Opened log file 

Copyright (c) Microsoft Corporation. All rights reserved.


ModLoad: 00130000 00142000   C:\Program Files (x86)\MHJ-Software\WinSPS-S7-V6\DATEDLL.DLL
ModLoad: 001e0000 001fb000   C:\Program Files (x86)\MHJ-Software\WinSPS-S7-V6\WUNZIP32.DLL
ModLoad: 00400000 0114a000   C:\Program Files (x86)\MHJ-Software\WinSPS-S7-V6\ws7v6.exe
ModLoad: 01e00000 01e28000   C:\Program Files (x86)\MHJ-Software\WinSPS-S7-V6\WS7_SPR2.DLL
ModLoad: 01e30000 01e5d000   C:\Program Files (x86)\MHJ-Software\WinSPS-S7-V6\WS7_S7P.DLL
ModLoad: 01e60000 01ea0000   C:\Program Files (x86)\MHJ-Software\WinSPS-S7-V6\MUTILS40.DLL
ModLoad: 02ed0000 0341d000   C:\Program Files (x86)\MHJ-Software\WinSPS-S7-V6\WS7_V2_MPI.DLL
ModLoad: 03420000 03554000   C:\Program Files (x86)\MHJ-Software\WinSPS-S7-V6\WS7_AGBEF.DLL
ModLoad: 03560000 03638000   C:\WINDOWS\SYSTEM32\WS7_S7AG.DLL
ModLoad: 03640000 03896000   C:\Program Files (x86)\MHJ-Software\WinSPS-S7-V6\WS7COMP.DLL
ModLoad: 038a0000 039f5000   C:\Program Files (x86)\MHJ-Software\WinSPS-S7-V6\MASKEDLLPROJECT.DLL
ModLoad: 03a00000 03a3b000   C:\Program Files (x86)\MHJ-Software\WinSPS-S7-V6\WS7_SYMBOL.DLL
ModLoad: 03a40000 03aef000   C:\Program Files (x86)\MHJ-Software\WinSPS-S7-V6\DLL_REGEX.DLL
ModLoad: 10000000 10069000   C:\Program Files (x86)\MHJ-Software\WinSPS-S7-V6\MPIWIN32.DLL
ModLoad: 1d000000 1d068000   C:\Program Files (x86)\MHJ-Software\WinSPS-S7-V6\WZIP32.DLL
ModLoad: 32a00000 32b15000   C:\Program Files (x86)\MHJ-Software\WinSPS-S7-V6\CC32100.DLL
ModLoad: 68ef0000 69037000   C:\ProgramData\Microsoft\Windbg\1-2111-9001\TTD\wow64\TTDRecordCPU.dll
ModLoad: 6edd0000 6edd6000   C:\WINDOWS\SYSTEM32\SHFOLDER.DLL
ModLoad: 6fca0000 6fca8000   C:\WINDOWS\SYSTEM32\WSOCK32.DLL
ModLoad: 707c0000 70885000   C:\WINDOWS\SYSTEM32\PROPSYS.dll
ModLoad: 70890000 708c2000   C:\WINDOWS\SYSTEM32\IPHLPAPI.DLL
ModLoad: 708d0000 7093c000   C:\WINDOWS\SYSTEM32\WINSPOOL.DRV
ModLoad: 70940000 70963000   C:\WINDOWS\SYSTEM32\winmmbase.dll
ModLoad: 70970000 70994000   C:\WINDOWS\SYSTEM32\WINMM.DLL
ModLoad: 70b70000 70bea000   C:\WINDOWS\system32\uxtheme.dll
ModLoad: 70bf0000 70bf6000   C:\WINDOWS\SYSTEM32\MSIMG32.DLL
ModLoad: 73fd0000 741df000   C:\WINDOWS\WinSxS\x86_microsoft.windows.common-controls_6595b64144ccf1df_6.0.18362.1801_none_e626de10f8de6cf6\COMCTL32.DLL
ModLoad: 741e0000 741e8000   C:\WINDOWS\SYSTEM32\VERSION.dll
ModLoad: 74420000 74433000   C:\WINDOWS\SYSTEM32\NETAPI32.DLL
ModLoad: 74680000 7470f000   C:\WINDOWS\System32\SYSFER.DLL
ModLoad: 74710000 7471a000   C:\WINDOWS\System32\CRYPTBASE.dll
ModLoad: 74720000 74740000   C:\WINDOWS\System32\SspiCli.dll
ModLoad: 74740000 74820000   C:\WINDOWS\System32\KERNEL32.DLL
ModLoad: 74820000 74917000   C:\WINDOWS\System32\OLE32.DLL
ModLoad: 74920000 74937000   C:\WINDOWS\System32\win32u.dll
ModLoad: 74940000 74953000   C:\WINDOWS\System32\cryptsp.dll
ModLoad: 74960000 74979000   C:\WINDOWS\System32\bcrypt.dll
ModLoad: 74980000 749fa000   C:\WINDOWS\System32\ADVAPI32.DLL
ModLoad: 74a00000 74c77000   C:\WINDOWS\System32\combase.dll
ModLoad: 74c80000 74cf6000   C:\WINDOWS\System32\sechost.dll
ModLoad: 74d00000 74dbf000   C:\WINDOWS\System32\msvcrt.dll
ModLoad: 74ec0000 74f03000   C:\WINDOWS\System32\powrprof.dll
ModLoad: 74f10000 75013000   C:\WINDOWS\System32\MSCTF.dll
ModLoad: 75080000 75112000   C:\WINDOWS\System32\OLEAUT32.dll
ModLoad: 751d0000 7532d000   C:\WINDOWS\System32\gdi32full.dll
ModLoad: 75330000 758aa000   C:\WINDOWS\System32\SHELL32.dll
ModLoad: 758b0000 75ab0000   C:\WINDOWS\System32\KERNELBASE.dll
ModLoad: 75ab0000 75ab6000   C:\WINDOWS\System32\PSAPI.DLL
ModLoad: 75ac0000 75acf000   C:\WINDOWS\System32\kernel.appcore.dll
ModLoad: 75ad0000 75b0b000   C:\WINDOWS\System32\cfgmgr32.dll
ModLoad: 75fc0000 75fe5000   C:\WINDOWS\System32\IMM32.DLL
ModLoad: 75ff0000 76187000   C:\WINDOWS\System32\USER32.dll
ModLoad: 76190000 762b0000   C:\WINDOWS\System32\ucrtbase.dll
ModLoad: 76460000 764a4000   C:\WINDOWS\System32\SHLWAPI.dll
ModLoad: 76540000 765bc000   C:\WINDOWS\System32\msvcp_win.dll
ModLoad: 765c0000 765cd000   C:\WINDOWS\System32\UMPDC.dll
ModLoad: 765d0000 76654000   C:\WINDOWS\System32\shcore.dll
ModLoad: 76660000 76677000   C:\WINDOWS\System32\profapi.dll
ModLoad: 76690000 7674b000   C:\WINDOWS\System32\RPCRT4.dll
ModLoad: 76750000 767ae000   C:\WINDOWS\System32\WS2_32.dll
ModLoad: 767b0000 767d1000   C:\WINDOWS\System32\GDI32.dll
ModLoad: 767e0000 76842000   C:\WINDOWS\System32\bcryptPrimitives.dll
ModLoad: 76850000 76e10000   C:\WINDOWS\System32\windows.storage.dll
ModLoad: 76e10000 76ec0000   C:\WINDOWS\System32\COMDLG32.DLL
ModLoad: 76f50000 770ea000   C:\WINDOWS\SYSTEM32\ntdll.dll
................................................................
.

************* Symbol Loading Error Summary **************
Module name            Error
ntdll                  The system cannot find the file specified

You can troubleshoot most symbol related issues by turning on symbol loading diagnostics (!sym noisy) and repeating the command that caused symbols to be loaded.
You should also verify that your symbol search path (.sympath) is correct.
(45b8.21e4): Break instruction exception - code 80000003 (first/second chance not available)
Time Travel Position: 47:0
eax=00401ee8 ebx=00270000 ecx=00000000 edx=00000000 esi=00000000 edi=00000000
eip=76f82ec0 esp=0164fd14 ebp=00000000 iopl=0         nv up ei pl nz na po nc
cs=0023  ss=002b  ds=002b  es=002b  fs=0053  gs=002b             efl=00000202
ntdll!LdrInitializeThunk:
76f82ec0 8bff            mov     edi,edi
*** WARNING: Unable to verify checksum for DATEDLL.DLL
0:000> !tt 100
!tt 100
Setting position to the end of the trace
Setting position: 6DE2FA:0
gt 0
ModLoad: 6fa60000 6fab2000   C:\WINDOWS\SYSTEM32\mswsock.dll
ModLoad: 76ec0000 76f40000   C:\WINDOWS\System32\clbcatq.dll
ModLoad: 73c70000 73d0f000   C:\WINDOWS\SYSTEM32\apphelp.dll
ModLoad: 6b320000 6b33b000   C:\WINDOWS\SYSTEM32\edputil.dll
ModLoad: 6f5e0000 6f80a000   C:\WINDOWS\SYSTEM32\iertutil.dll
ModLoad: 6f810000 6f82c000   C:\WINDOWS\SYSTEM32\srvcli.dll
ModLoad: 74280000 7428b000   C:\WINDOWS\SYSTEM32\netutils.dll
ModLoad: 6f8b0000 6fa5a000   C:\WINDOWS\SYSTEM32\urlmon.dll
ModLoad: 6efc0000 6efc8000   C:\WINDOWS\SYSTEM32\FLTLIB.DLL
ModLoad: 65820000 6583b000   C:\WINDOWS\SYSTEM32\CLDAPI.dll
ModLoad: 527a0000 52877000   C:\Windows\System32\wintypes.dll
ModLoad: 73f90000 73fb9000   C:\WINDOWS\SYSTEM32\ntmarta.dll
ModLoad: 51f40000 51fc9000   C:\WINDOWS\System32\CoreMessaging.dll
ModLoad: 51fd0000 5222e000   C:\WINDOWS\System32\CoreUIComponents.dll
ModLoad: 52230000 522b1000   C:\WINDOWS\System32\TextInputFramework.dll
ModLoad: 70b10000 70b63000   C:\WINDOWS\system32\Oleacc.dll
ModLoad: 60570000 60595000   C:\WINDOWS\SYSTEM32\DWMAPI.DLL
ModLoad: 60510000 60529000   C:\WINDOWS\SYSTEM32\dxcore.dll
(45b8.21e4): Break instruction exception - code 80000003 (first/second chance not available)
Time Travel Position: 6DE2FA:0
eax=0007002c ebx=00000000 ecx=4cd070cc edx=76fd9f60 esi=00000000 edi=7706da60
eip=76f46000 esp=0164fe38 ebp=0164ff10 iopl=0         nv up ei ng nz ac pe cy
cs=0023  ss=002b  ds=002b  es=002b  fs=0053  gs=002b             efl=00000297
76f46000 ea0960f4763300  jmp     0033:76F46009
0:000> !tt 0
!tt 0
Setting position to the beginning of the trace
Setting position: 47:0
gt 0
(45b8.21e4): Break instruction exception - code 80000003 (first/second chance not available)
Time Travel Position: 47:0
eax=00401ee8 ebx=00270000 ecx=00000000 edx=00000000 esi=00000000 edi=00000000
eip=76f82ec0 esp=0164fd14 ebp=00000000 iopl=0         nv up ei pl nz na po nc
cs=0023  ss=002b  ds=002b  es=002b  fs=0053  gs=002b             efl=00000202
ntdll!LdrInitializeThunk:
76f82ec0 8bff            mov     edi,edi
0:000> !tt 0
!tt 0
Setting position to the beginning of the trace
Setting position: 47:0
gt 0
(45b8.21e4): Break instruction exception - code 80000003 (first/second chance not available)
Time Travel Position: 47:0
eax=00401ee8 ebx=00270000 ecx=00000000 edx=00000000 esi=00000000 edi=00000000
eip=76f82ec0 esp=0164fd14 ebp=00000000 iopl=0         nv up ei pl nz na po nc
cs=0023  ss=002b  ds=002b  es=002b  fs=0053  gs=002b             efl=00000202
ntdll!LdrInitializeThunk:
76f82ec0 8bff            mov     edi,edi
0:000> ~1s
~1s
eax=00000000 ebx=03624ecc ecx=00000000 edx=00000000 esi=00000000 edi=06f1ff18
eip=76fc308c esp=06f1fed8 ebp=06f1ff3c iopl=0         nv up ei pl nz na pe nc
cs=0023  ss=002b  ds=002b  es=002b  fs=0053  gs=002b             efl=00000206
ntdll!ZwDelayExecution+0xc:
76fc308c c20800          ret     8
0:001> !tt 0
!tt 0
Setting position to the beginning of the trace
Setting position: 47:0
gt 0
(45b8.21e4): Break instruction exception - code 80000003 (first/second chance not available)
Time Travel Position: 47:0
eax=00401ee8 ebx=00270000 ecx=00000000 edx=00000000 esi=00000000 edi=00000000
eip=76f82ec0 esp=0164fd14 ebp=00000000 iopl=0         nv up ei pl nz na po nc
cs=0023  ss=002b  ds=002b  es=002b  fs=0053  gs=002b             efl=00000202
ntdll!LdrInitializeThunk:
76f82ec0 8bff            mov     edi,edi
0:000> ~1s
~1s
eax=00000000 ebx=03624ecc ecx=00000000 edx=00000000 esi=00000000 edi=06f1ff18
eip=76fc308c esp=06f1fed8 ebp=06f1ff3c iopl=0         nv up ei pl nz na pe nc
cs=0023  ss=002b  ds=002b  es=002b  fs=0053  gs=002b             efl=00000206
ntdll!ZwDelayExecution+0xc:
76fc308c c20800          ret     8
0:001> ~
~
#  0  Id: 45b8.21e4 Suspend: 4096 Teb: 00273000 Unfrozen
.  1  Id: 45b8.55c Suspend: 4096 Teb: 00282000 Unfrozen
   2  Id: 45b8.14e8 Suspend: 4096 Teb: 00288000 Unfrozen
   3  Id: 45b8.5170 Suspend: 4096 Teb: 00285000 Unfrozen
   4  Id: 45b8.2c58 Suspend: 4096 Teb: 0028b000 Unfrozen
   5  Id: 45b8.1324 Suspend: 4096 Teb: 00279000 Unfrozen
   6  Id: 45b8.3c0c Suspend: 4096 Teb: 0027f000 Unfrozen
   7  Id: 45b8.465c Suspend: 4096 Teb: 0027c000 Unfrozen
0:001> p 200
p 200
eax=00000000 ebx=03624ecc ecx=00000000 edx=00000000 esi=00000000 edi=06f1ff18
eip=759ab1af esp=06f1fee4 ebp=06f1ff3c iopl=0         nv up ei pl nz na pe nc
cs=0023  ss=002b  ds=002b  es=002b  fs=0053  gs=002b             efl=00000206
KERNELBASE!SleepEx+0x5f:
759ab1af 8bf8            mov     edi,eax
eax=00000000 ebx=03624ecc ecx=00000000 edx=00000000 esi=00000000 edi=00000000
eip=759ab1b1 esp=06f1fee4 ebp=06f1ff3c iopl=0         nv up ei pl nz na pe nc
cs=0023  ss=002b  ds=002b  es=002b  fs=0053  gs=002b             efl=00000206
KERNELBASE!SleepEx+0x61:
759ab1b1 897de4          mov     dword ptr [ebp-1Ch],edi ss:002b:06f1ff20=00000000
eax=00000000 ebx=03624ecc ecx=00000000 edx=00000000 esi=00000000 edi=00000000
eip=759ab1b4 esp=06f1fee4 ebp=06f1ff3c iopl=0         nv up ei pl nz na pe nc
cs=0023  ss=002b  ds=002b  es=002b  fs=0053  gs=002b             efl=00000206
KERNELBASE!SleepEx+0x64:
759ab1b4 85f6            test    esi,esi
eax=00000000 ebx=03624ecc ecx=00000000 edx=00000000 esi=00000000 edi=00000000
eip=759ab1b6 esp=06f1fee4 ebp=06f1ff3c iopl=0         nv up ei pl zr na pe nc
cs=0023  ss=002b  ds=002b  es=002b  fs=0053  gs=002b             efl=00000246
KERNELBASE!SleepEx+0x66:
759ab1b6 7536            jne     KERNELBASE!SleepEx+0x9e (759ab1ee)      [br=0]
eax=00000000 ebx=03624ecc ecx=00000000 edx=00000000 esi=00000000 edi=00000000
eip=759ab1b8 esp=06f1fee4 ebp=06f1ff3c iopl=0         nv up ei pl zr na pe nc
cs=0023  ss=002b  ds=002b  es=002b  fs=0053  gs=002b             efl=00000246
KERNELBASE!SleepEx+0x68:
759ab1b8 c745fcfeffffff  mov     dword ptr [ebp-4],0FFFFFFFEh ss:002b:06f1ff38=00000000
eax=00000000 ebx=03624ecc ecx=00000000 edx=00000000 esi=00000000 edi=00000000
eip=759ab1bf esp=06f1fee4 ebp=06f1ff3c iopl=0         nv up ei pl zr na pe nc
cs=0023  ss=002b  ds=002b  es=002b  fs=0053  gs=002b             efl=00000246
KERNELBASE!SleepEx+0x6f:
759ab1bf e841000000      call    KERNELBASE!SleepEx+0xb5 (759ab205)
eax=00000000 ebx=03624ecc ecx=00000000 edx=00000000 esi=00000000 edi=00000000
eip=759ab1c4 esp=06f1fee4 ebp=06f1ff3c iopl=0         nv up ei pl zr na pe nc
cs=0023  ss=002b  ds=002b  es=002b  fs=0053  gs=002b             efl=00000246
KERNELBASE!SleepEx+0x74:
759ab1c4 b8c0000000      mov     eax,0C0h
eax=000000c0 ebx=03624ecc ecx=00000000 edx=00000000 esi=00000000 edi=00000000
eip=759ab1c9 esp=06f1fee4 ebp=06f1ff3c iopl=0         nv up ei pl zr na pe nc
cs=0023  ss=002b  ds=002b  es=002b  fs=0053  gs=002b             efl=00000246
KERNELBASE!SleepEx+0x79:
759ab1c9 3bf8            cmp     edi,eax
eax=000000c0 ebx=03624ecc ecx=00000000 edx=00000000 esi=00000000 edi=00000000
eip=759ab1cb esp=06f1fee4 ebp=06f1ff3c iopl=0         nv up ei ng nz na po cy
cs=0023  ss=002b  ds=002b  es=002b  fs=0053  gs=002b             efl=00000283
KERNELBASE!SleepEx+0x7b:
759ab1cb 7402            je      KERNELBASE!SleepEx+0x7f (759ab1cf)      [br=0]
eax=000000c0 ebx=03624ecc ecx=00000000 edx=00000000 esi=00000000 edi=00000000
eip=759ab1cd esp=06f1fee4 ebp=06f1ff3c iopl=0         nv up ei ng nz na po cy
cs=0023  ss=002b  ds=002b  es=002b  fs=0053  gs=002b             efl=00000283
KERNELBASE!SleepEx+0x7d:
759ab1cd 33c0            xor     eax,eax
eax=00000000 ebx=03624ecc ecx=00000000 edx=00000000 esi=00000000 edi=00000000
eip=759ab1cf esp=06f1fee4 ebp=06f1ff3c iopl=0         nv up ei pl zr na pe nc
cs=0023  ss=002b  ds=002b  es=002b  fs=0053  gs=002b             efl=00000246
KERNELBASE!SleepEx+0x7f:
759ab1cf 8b4df0          mov     ecx,dword ptr [ebp-10h] ss:002b:06f1ff2c=06f1ffcc
eax=00000000 ebx=03624ecc ecx=06f1ffcc edx=00000000 esi=00000000 edi=00000000
eip=759ab1d2 esp=06f1fee4 ebp=06f1ff3c iopl=0         nv up ei pl zr na pe nc
cs=0023  ss=002b  ds=002b  es=002b  fs=0053  gs=002b             efl=00000246
KERNELBASE!SleepEx+0x82:
759ab1d2 64890d00000000  mov     dword ptr fs:[0],ecx fs:0053:00000000=????????
eax=00000000 ebx=03624ecc ecx=06f1ffcc edx=00000000 esi=00000000 edi=00000000
eip=759ab1d9 esp=06f1fee4 ebp=06f1ff3c iopl=0         nv up ei pl zr na pe nc
cs=0023  ss=002b  ds=002b  es=002b  fs=0053  gs=002b             efl=00000246
KERNELBASE!SleepEx+0x89:
759ab1d9 59              pop     ecx
eax=00000000 ebx=03624ecc ecx=74276ea4 edx=00000000 esi=00000000 edi=00000000
eip=759ab1da esp=06f1fee8 ebp=06f1ff3c iopl=0         nv up ei pl zr na pe nc
cs=0023  ss=002b  ds=002b  es=002b  fs=0053  gs=002b             efl=00000246
KERNELBASE!SleepEx+0x8a:
759ab1da 5f              pop     edi
eax=00000000 ebx=03624ecc ecx=74276ea4 edx=00000000 esi=00000000 edi=03624eb4
eip=759ab1db esp=06f1feec ebp=06f1ff3c iopl=0         nv up ei pl zr na pe nc
cs=0023  ss=002b  ds=002b  es=002b  fs=0053  gs=002b             efl=00000246
KERNELBASE!SleepEx+0x8b:
759ab1db 5e              pop     esi
eax=00000000 ebx=03624ecc ecx=74276ea4 edx=00000000 esi=00000000 edi=03624eb4
eip=759ab1dc esp=06f1fef0 ebp=06f1ff3c iopl=0         nv up ei pl zr na pe nc
cs=0023  ss=002b  ds=002b  es=002b  fs=0053  gs=002b             efl=00000246
KERNELBASE!SleepEx+0x8c:
759ab1dc 5b              pop     ebx
eax=00000000 ebx=03624ecc ecx=74276ea4 edx=00000000 esi=00000000 edi=03624eb4
eip=759ab1dd esp=06f1fef4 ebp=06f1ff3c iopl=0         nv up ei pl zr na pe nc
cs=0023  ss=002b  ds=002b  es=002b  fs=0053  gs=002b             efl=00000246
KERNELBASE!SleepEx+0x8d:
759ab1dd c9              leave
eax=00000000 ebx=03624ecc ecx=74276ea4 edx=00000000 esi=00000000 edi=03624eb4
eip=759ab1de esp=06f1ff40 ebp=06f1ff4c iopl=0         nv up ei pl zr na pe nc
cs=0023  ss=002b  ds=002b  es=002b  fs=0053  gs=002b             efl=00000246
KERNELBASE!SleepEx+0x8e:
759ab1de c20800          ret     8
eax=00000000 ebx=03624ecc ecx=74276ea4 edx=00000000 esi=00000000 edi=03624eb4
eip=759ab13f esp=06f1ff4c ebp=06f1ff4c iopl=0         nv up ei pl zr na pe nc
cs=0023  ss=002b  ds=002b  es=002b  fs=0053  gs=002b             efl=00000246
KERNELBASE!Sleep+0xf:
759ab13f 5d              pop     ebp
eax=00000000 ebx=03624ecc ecx=74276ea4 edx=00000000 esi=00000000 edi=03624eb4
eip=759ab140 esp=06f1ff50 ebp=06f1ff70 iopl=0         nv up ei pl zr na pe nc
cs=0023  ss=002b  ds=002b  es=002b  fs=0053  gs=002b             efl=00000246
KERNELBASE!Sleep+0x10:
759ab140 c20400          ret     4
*** WARNING: Unable to verify checksum for WS7_S7AG.DLL
eax=00000000 ebx=03624ecc ecx=74276ea4 edx=00000000 esi=00000000 edi=03624eb4
eip=035ed373 esp=06f1ff58 ebp=06f1ff70 iopl=0         nv up ei pl zr na pe nc
cs=0023  ss=002b  ds=002b  es=002b  fs=0053  gs=002b             efl=00000246
WS7_S7AG!S7AG_IsTIAPortalStarted$qqsv+0x6fa3b:
035ed373 8b45f4          mov     eax,dword ptr [ebp-0Ch] ss:002b:06f1ff64=03624ec8
eax=03624ec8 ebx=03624ecc ecx=74276ea4 edx=00000000 esi=00000000 edi=03624eb4
eip=035ed376 esp=06f1ff58 ebp=06f1ff70 iopl=0         nv up ei pl zr na pe nc
cs=0023  ss=002b  ds=002b  es=002b  fs=0053  gs=002b             efl=00000246
WS7_S7AG!S7AG_IsTIAPortalStarted$qqsv+0x6fa3e:
035ed376 c60000          mov     byte ptr [eax],0           ds:002b:03624ec8=00
eax=03624ec8 ebx=03624ecc ecx=74276ea4 edx=00000000 esi=00000000 edi=03624eb4
eip=035ed379 esp=06f1ff58 ebp=06f1ff70 iopl=0         nv up ei pl zr na pe nc
cs=0023  ss=002b  ds=002b  es=002b  fs=0053  gs=002b             efl=00000246
WS7_S7AG!S7AG_IsTIAPortalStarted$qqsv+0x6fa41:
035ed379 803b00          cmp     byte ptr [ebx],0           ds:002b:03624ecc=00
eax=03624ec8 ebx=03624ecc ecx=74276ea4 edx=00000000 esi=00000000 edi=03624eb4
eip=035ed37c esp=06f1ff58 ebp=06f1ff70 iopl=0         nv up ei pl zr na pe nc
cs=0023  ss=002b  ds=002b  es=002b  fs=0053  gs=002b             efl=00000246
WS7_S7AG!S7AG_IsTIAPortalStarted$qqsv+0x6fa44:
035ed37c 0f8445ffffff    je      WS7_S7AG!S7AG_IsTIAPortalStarted$qqsv+0x6f98f (035ed2c7) [br=1]
eax=03624ec8 ebx=03624ecc ecx=74276ea4 edx=00000000 esi=00000000 edi=03624eb4
eip=035ed2c7 esp=06f1ff58 ebp=06f1ff70 iopl=0         nv up ei pl zr na pe nc
cs=0023  ss=002b  ds=002b  es=002b  fs=0053  gs=002b             efl=00000246
WS7_S7AG!S7AG_IsTIAPortalStarted$qqsv+0x6f98f:
035ed2c7 8b45f8          mov     eax,dword ptr [ebp-8] ss:002b:06f1ff68=03624e3c
eax=03624e3c ebx=03624ecc ecx=74276ea4 edx=00000000 esi=00000000 edi=03624eb4
eip=035ed2ca esp=06f1ff58 ebp=06f1ff70 iopl=0         nv up ei pl zr na pe nc
cs=0023  ss=002b  ds=002b  es=002b  fs=0053  gs=002b             efl=00000246
WS7_S7AG!S7AG_IsTIAPortalStarted$qqsv+0x6f992:
035ed2ca c60001          mov     byte ptr [eax],1           ds:002b:03624e3c=01
eax=03624e3c ebx=03624ecc ecx=74276ea4 edx=00000000 esi=00000000 edi=03624eb4
eip=035ed2cd esp=06f1ff58 ebp=06f1ff70 iopl=0         nv up ei pl zr na pe nc
cs=0023  ss=002b  ds=002b  es=002b  fs=0053  gs=002b             efl=00000246
WS7_S7AG!S7AG_IsTIAPortalStarted$qqsv+0x6f995:
035ed2cd 803b00          cmp     byte ptr [ebx],0           ds:002b:03624ecc=00
eax=03624e3c ebx=03624ecc ecx=74276ea4 edx=00000000 esi=00000000 edi=03624eb4
eip=035ed2d0 esp=06f1ff58 ebp=06f1ff70 iopl=0         nv up ei pl zr na pe nc
cs=0023  ss=002b  ds=002b  es=002b  fs=0053  gs=002b             efl=00000246
WS7_S7AG!S7AG_IsTIAPortalStarted$qqsv+0x6f998:
035ed2d0 7405            je      WS7_S7AG!S7AG_IsTIAPortalStarted$qqsv+0x6f99f (035ed2d7) [br=1]
eax=03624e3c ebx=03624ecc ecx=74276ea4 edx=00000000 esi=00000000 edi=03624eb4
eip=035ed2d7 esp=06f1ff58 ebp=06f1ff70 iopl=0         nv up ei pl zr na pe nc
cs=0023  ss=002b  ds=002b  es=002b  fs=0053  gs=002b             efl=00000246
WS7_S7AG!S7AG_IsTIAPortalStarted$qqsv+0x6f99f:
035ed2d7 8bd6            mov     edx,esi
eax=03624e3c ebx=03624ecc ecx=74276ea4 edx=00000000 esi=00000000 edi=03624eb4
eip=035ed2d9 esp=06f1ff58 ebp=06f1ff70 iopl=0         nv up ei pl zr na pe nc
cs=0023  ss=002b  ds=002b  es=002b  fs=0053  gs=002b             efl=00000246
WS7_S7AG!S7AG_IsTIAPortalStarted$qqsv+0x6f9a1:
035ed2d9 8b0d084e6203    mov     ecx,dword ptr [WS7_S7AG!__CPPdebugHook+0x28cfc (03624e08)] ds:002b:03624e08=06460000
eax=03624e3c ebx=03624ecc ecx=06460000 edx=00000000 esi=00000000 edi=03624eb4
eip=035ed2df esp=06f1ff58 ebp=06f1ff70 iopl=0         nv up ei pl zr na pe nc
cs=0023  ss=002b  ds=002b  es=002b  fs=0053  gs=002b             efl=00000246
WS7_S7AG!S7AG_IsTIAPortalStarted$qqsv+0x6f9a7:
035ed2df c1e205          shl     edx,5
eax=03624e3c ebx=03624ecc ecx=06460000 edx=00000000 esi=00000000 edi=03624eb4
eip=035ed2e2 esp=06f1ff58 ebp=06f1ff70 iopl=0         nv up ei pl zr na pe nc
cs=0023  ss=002b  ds=002b  es=002b  fs=0053  gs=002b             efl=00000246
WS7_S7AG!S7AG_IsTIAPortalStarted$qqsv+0x6f9aa:
035ed2e2 03d6            add     edx,esi
eax=03624e3c ebx=03624ecc ecx=06460000 edx=00000000 esi=00000000 edi=03624eb4
eip=035ed2e4 esp=06f1ff58 ebp=06f1ff70 iopl=0         nv up ei pl zr na pe nc
cs=0023  ss=002b  ds=002b  es=002b  fs=0053  gs=002b             efl=00000246
WS7_S7AG!S7AG_IsTIAPortalStarted$qqsv+0x6f9ac:
035ed2e4 c645ff01        mov     byte ptr [ebp-1],1         ss:002b:06f1ff6f=01
eax=03624e3c ebx=03624ecc ecx=06460000 edx=00000000 esi=00000000 edi=03624eb4
eip=035ed2e8 esp=06f1ff58 ebp=06f1ff70 iopl=0         nv up ei pl zr na pe nc
cs=0023  ss=002b  ds=002b  es=002b  fs=0053  gs=002b             efl=00000246
WS7_S7AG!S7AG_IsTIAPortalStarted$qqsv+0x6f9b0:
035ed2e8 80bc9160765b0000 cmp     byte ptr ws7v6!DlgdownloadspFinalize+0x555c (005b7660)[ecx+edx*4],0 ds:002b:06a17660=00
eax=03624e3c ebx=03624ecc ecx=06460000 edx=00000000 esi=00000000 edi=03624eb4
eip=035ed2f0 esp=06f1ff58 ebp=06f1ff70 iopl=0         nv up ei pl zr na pe nc
cs=0023  ss=002b  ds=002b  es=002b  fs=0053  gs=002b             efl=00000246
WS7_S7AG!S7AG_IsTIAPortalStarted$qqsv+0x6f9b8:
035ed2f0 746d            je      WS7_S7AG!S7AG_IsTIAPortalStarted$qqsv+0x6fa27 (035ed35f) [br=1]
eax=03624e3c ebx=03624ecc ecx=06460000 edx=00000000 esi=00000000 edi=03624eb4
eip=035ed35f esp=06f1ff58 ebp=06f1ff70 iopl=0         nv up ei pl zr na pe nc
cs=0023  ss=002b  ds=002b  es=002b  fs=0053  gs=002b             efl=00000246
WS7_S7AG!S7AG_IsTIAPortalStarted$qqsv+0x6fa27:
035ed35f 6a01            push    1
eax=03624e3c ebx=03624ecc ecx=06460000 edx=00000000 esi=00000000 edi=03624eb4
eip=035ed361 esp=06f1ff54 ebp=06f1ff70 iopl=0         nv up ei pl zr na pe nc
cs=0023  ss=002b  ds=002b  es=002b  fs=0053  gs=002b             efl=00000246
WS7_S7AG!S7AG_IsTIAPortalStarted$qqsv+0x6fa29:
035ed361 e87edd0000      call    WS7_S7AG!S7AG_IsTIAPortalStarted$qqsv+0x7d7ac (035fb0e4)
eax=00000000 ebx=03624ecc ecx=74276ea4 edx=00000000 esi=00000000 edi=03624eb4
eip=035ed366 esp=06f1ff58 ebp=06f1ff70 iopl=0         nv up ei pl zr na pe nc
cs=0023  ss=002b  ds=002b  es=002b  fs=0053  gs=002b             efl=00000246
WS7_S7AG!S7AG_IsTIAPortalStarted$qqsv+0x6fa2e:
035ed366 807dff00        cmp     byte ptr [ebp-1],0         ss:002b:06f1ff6f=01
eax=00000000 ebx=03624ecc ecx=74276ea4 edx=00000000 esi=00000000 edi=03624eb4
eip=035ed36a esp=06f1ff58 ebp=06f1ff70 iopl=0         nv up ei pl nz na po nc
cs=0023  ss=002b  ds=002b  es=002b  fs=0053  gs=002b             efl=00000202
WS7_S7AG!S7AG_IsTIAPortalStarted$qqsv+0x6fa32:
035ed36a 7407            je      WS7_S7AG!S7AG_IsTIAPortalStarted$qqsv+0x6fa3b (035ed373) [br=0]
eax=00000000 ebx=03624ecc ecx=74276ea4 edx=00000000 esi=00000000 edi=03624eb4
eip=035ed36c esp=06f1ff58 ebp=06f1ff70 iopl=0         nv up ei pl nz na po nc
cs=0023  ss=002b  ds=002b  es=002b  fs=0053  gs=002b             efl=00000202
WS7_S7AG!S7AG_IsTIAPortalStarted$qqsv+0x6fa34:
035ed36c 6a0a            push    0Ah
eax=00000000 ebx=03624ecc ecx=74276ea4 edx=00000000 esi=00000000 edi=03624eb4
eip=035ed36e esp=06f1ff54 ebp=06f1ff70 iopl=0         nv up ei pl nz na po nc
cs=0023  ss=002b  ds=002b  es=002b  fs=0053  gs=002b             efl=00000202
WS7_S7AG!S7AG_IsTIAPortalStarted$qqsv+0x6fa36:
035ed36e e871dd0000      call    WS7_S7AG!S7AG_IsTIAPortalStarted$qqsv+0x7d7ac (035fb0e4)
eax=00000000 ebx=03624ecc ecx=74276ea4 edx=00000000 esi=00000000 edi=03624eb4
eip=035ed373 esp=06f1ff58 ebp=06f1ff70 iopl=0         nv up ei pl zr na pe nc
cs=0023  ss=002b  ds=002b  es=002b  fs=0053  gs=002b             efl=00000246
WS7_S7AG!S7AG_IsTIAPortalStarted$qqsv+0x6fa3b:
035ed373 8b45f4          mov     eax,dword ptr [ebp-0Ch] ss:002b:06f1ff64=03624ec8
eax=03624ec8 ebx=03624ecc ecx=74276ea4 edx=00000000 esi=00000000 edi=03624eb4
eip=035ed376 esp=06f1ff58 ebp=06f1ff70 iopl=0         nv up ei pl zr na pe nc
cs=0023  ss=002b  ds=002b  es=002b  fs=0053  gs=002b             efl=00000246
WS7_S7AG!S7AG_IsTIAPortalStarted$qqsv+0x6fa3e:
035ed376 c60000          mov     byte ptr [eax],0           ds:002b:03624ec8=00
eax=03624ec8 ebx=03624ecc ecx=74276ea4 edx=00000000 esi=00000000 edi=03624eb4
eip=035ed379 esp=06f1ff58 ebp=06f1ff70 iopl=0         nv up ei pl zr na pe nc
cs=0023  ss=002b  ds=002b  es=002b  fs=0053  gs=002b             efl=00000246
WS7_S7AG!S7AG_IsTIAPortalStarted$qqsv+0x6fa41:
035ed379 803b00          cmp     byte ptr [ebx],0           ds:002b:03624ecc=00
eax=03624ec8 ebx=03624ecc ecx=74276ea4 edx=00000000 esi=00000000 edi=03624eb4
eip=035ed37c esp=06f1ff58 ebp=06f1ff70 iopl=0         nv up ei pl zr na pe nc
cs=0023  ss=002b  ds=002b  es=002b  fs=0053  gs=002b             efl=00000246
WS7_S7AG!S7AG_IsTIAPortalStarted$qqsv+0x6fa44:
035ed37c 0f8445ffffff    je      WS7_S7AG!S7AG_IsTIAPortalStarted$qqsv+0x6f98f (035ed2c7) [br=1]
eax=03624ec8 ebx=03624ecc ecx=74276ea4 edx=00000000 esi=00000000 edi=03624eb4
eip=035ed2c7 esp=06f1ff58 ebp=06f1ff70 iopl=0         nv up ei pl zr na pe nc
cs=0023  ss=002b  ds=002b  es=002b  fs=0053  gs=002b             efl=00000246
WS7_S7AG!S7AG_IsTIAPortalStarted$qqsv+0x6f98f:
035ed2c7 8b45f8          mov     eax,dword ptr [ebp-8] ss:002b:06f1ff68=03624e3c
eax=03624e3c ebx=03624ecc ecx=74276ea4 edx=00000000 esi=00000000 edi=03624eb4
eip=035ed2ca esp=06f1ff58 ebp=06f1ff70 iopl=0         nv up ei pl zr na pe nc
cs=0023  ss=002b  ds=002b  es=002b  fs=0053  gs=002b             efl=00000246
WS7_S7AG!S7AG_IsTIAPortalStarted$qqsv+0x6f992:
035ed2ca c60001          mov     byte ptr [eax],1           ds:002b:03624e3c=01
eax=03624e3c ebx=03624ecc ecx=74276ea4 edx=00000000 esi=00000000 edi=03624eb4
eip=035ed2cd esp=06f1ff58 ebp=06f1ff70 iopl=0         nv up ei pl zr na pe nc
cs=0023  ss=002b  ds=002b  es=002b  fs=0053  gs=002b             efl=00000246
WS7_S7AG!S7AG_IsTIAPortalStarted$qqsv+0x6f995:
035ed2cd 803b00          cmp     byte ptr [ebx],0           ds:002b:03624ecc=00
eax=03624e3c ebx=03624ecc ecx=74276ea4 edx=00000000 esi=00000000 edi=03624eb4
eip=035ed2d0 esp=06f1ff58 ebp=06f1ff70 iopl=0         nv up ei pl zr na pe nc
cs=0023  ss=002b  ds=002b  es=002b  fs=0053  gs=002b             efl=00000246
WS7_S7AG!S7AG_IsTIAPortalStarted$qqsv+0x6f998:
035ed2d0 7405            je      WS7_S7AG!S7AG_IsTIAPortalStarted$qqsv+0x6f99f (035ed2d7) [br=1]
eax=03624e3c ebx=03624ecc ecx=74276ea4 edx=00000000 esi=00000000 edi=03624eb4
eip=035ed2d7 esp=06f1ff58 ebp=06f1ff70 iopl=0         nv up ei pl zr na pe nc
cs=0023  ss=002b  ds=002b  es=002b  fs=0053  gs=002b             efl=00000246
WS7_S7AG!S7AG_IsTIAPortalStarted$qqsv+0x6f99f:
035ed2d7 8bd6            mov     edx,esi
eax=03624e3c ebx=03624ecc ecx=74276ea4 edx=00000000 esi=00000000 edi=03624eb4
eip=035ed2d9 esp=06f1ff58 ebp=06f1ff70 iopl=0         nv up ei pl zr na pe nc
cs=0023  ss=002b  ds=002b  es=002b  fs=0053  gs=002b             efl=00000246
WS7_S7AG!S7AG_IsTIAPortalStarted$qqsv+0x6f9a1:
035ed2d9 8b0d084e6203    mov     ecx,dword ptr [WS7_S7AG!__CPPdebugHook+0x28cfc (03624e08)] ds:002b:03624e08=06460000
eax=03624e3c ebx=03624ecc ecx=06460000 edx=00000000 esi=00000000 edi=03624eb4
eip=035ed2df esp=06f1ff58 ebp=06f1ff70 iopl=0         nv up ei pl zr na pe nc
cs=0023  ss=002b  ds=002b  es=002b  fs=0053  gs=002b             efl=00000246
WS7_S7AG!S7AG_IsTIAPortalStarted$qqsv+0x6f9a7:
035ed2df c1e205          shl     edx,5
eax=03624e3c ebx=03624ecc ecx=06460000 edx=00000000 esi=00000000 edi=03624eb4
eip=035ed2e2 esp=06f1ff58 ebp=06f1ff70 iopl=0         nv up ei pl zr na pe nc
cs=0023  ss=002b  ds=002b  es=002b  fs=0053  gs=002b             efl=00000246
WS7_S7AG!S7AG_IsTIAPortalStarted$qqsv+0x6f9aa:
035ed2e2 03d6            add     edx,esi
eax=03624e3c ebx=03624ecc ecx=06460000 edx=00000000 esi=00000000 edi=03624eb4
eip=035ed2e4 esp=06f1ff58 ebp=06f1ff70 iopl=0         nv up ei pl zr na pe nc
cs=0023  ss=002b  ds=002b  es=002b  fs=0053  gs=002b             efl=00000246
WS7_S7AG!S7AG_IsTIAPortalStarted$qqsv+0x6f9ac:
035ed2e4 c645ff01        mov     byte ptr [ebp-1],1         ss:002b:06f1ff6f=01
eax=03624e3c ebx=03624ecc ecx=06460000 edx=00000000 esi=00000000 edi=03624eb4
eip=035ed2e8 esp=06f1ff58 ebp=06f1ff70 iopl=0         nv up ei pl zr na pe nc
cs=0023  ss=002b  ds=002b  es=002b  fs=0053  gs=002b             efl=00000246
WS7_S7AG!S7AG_IsTIAPortalStarted$qqsv+0x6f9b0:
035ed2e8 80bc9160765b0000 cmp     byte ptr ws7v6!DlgdownloadspFinalize+0x555c (005b7660)[ecx+edx*4],0 ds:002b:06a17660=00
eax=03624e3c ebx=03624ecc ecx=06460000 edx=00000000 esi=00000000 edi=03624eb4
eip=035ed2f0 esp=06f1ff58 ebp=06f1ff70 iopl=0         nv up ei pl zr na pe nc
cs=0023  ss=002b  ds=002b  es=002b  fs=0053  gs=002b             efl=00000246
WS7_S7AG!S7AG_IsTIAPortalStarted$qqsv+0x6f9b8:
035ed2f0 746d            je      WS7_S7AG!S7AG_IsTIAPortalStarted$qqsv+0x6fa27 (035ed35f) [br=1]
eax=03624e3c ebx=03624ecc ecx=06460000 edx=00000000 esi=00000000 edi=03624eb4
eip=035ed35f esp=06f1ff58 ebp=06f1ff70 iopl=0         nv up ei pl zr na pe nc
cs=0023  ss=002b  ds=002b  es=002b  fs=0053  gs=002b             efl=00000246
WS7_S7AG!S7AG_IsTIAPortalStarted$qqsv+0x6fa27:
035ed35f 6a01            push    1
eax=03624e3c ebx=03624ecc ecx=06460000 edx=00000000 esi=00000000 edi=03624eb4
eip=035ed361 esp=06f1ff54 ebp=06f1ff70 iopl=0         nv up ei pl zr na pe nc
cs=0023  ss=002b  ds=002b  es=002b  fs=0053  gs=002b             efl=00000246
WS7_S7AG!S7AG_IsTIAPortalStarted$qqsv+0x6fa29:
035ed361 e87edd0000      call    WS7_S7AG!S7AG_IsTIAPortalStarted$qqsv+0x7d7ac (035fb0e4)
eax=00000000 ebx=03624ecc ecx=74276ea4 edx=00000000 esi=00000000 edi=03624eb4
eip=035ed366 esp=06f1ff58 ebp=06f1ff70 iopl=0         nv up ei pl zr na pe nc
cs=0023  ss=002b  ds=002b  es=002b  fs=0053  gs=002b             efl=00000246
WS7_S7AG!S7AG_IsTIAPortalStarted$qqsv+0x6fa2e:
035ed366 807dff00        cmp     byte ptr [ebp-1],0         ss:002b:06f1ff6f=01
eax=00000000 ebx=03624ecc ecx=74276ea4 edx=00000000 esi=00000000 edi=03624eb4
eip=035ed36a esp=06f1ff58 ebp=06f1ff70 iopl=0         nv up ei pl nz na po nc
cs=0023  ss=002b  ds=002b  es=002b  fs=0053  gs=002b             efl=00000202
WS7_S7AG!S7AG_IsTIAPortalStarted$qqsv+0x6fa32:
035ed36a 7407            je      WS7_S7AG!S7AG_IsTIAPortalStarted$qqsv+0x6fa3b (035ed373) [br=0]
eax=00000000 ebx=03624ecc ecx=74276ea4 edx=00000000 esi=00000000 edi=03624eb4
eip=035ed36c esp=06f1ff58 ebp=06f1ff70 iopl=0         nv up ei pl nz na po nc
cs=0023  ss=002b  ds=002b  es=002b  fs=0053  gs=002b             efl=00000202
WS7_S7AG!S7AG_IsTIAPortalStarted$qqsv+0x6fa34:
035ed36c 6a0a            push    0Ah
eax=00000000 ebx=03624ecc ecx=74276ea4 edx=00000000 esi=00000000 edi=03624eb4
eip=035ed36e esp=06f1ff54 ebp=06f1ff70 iopl=0         nv up ei pl nz na po nc
cs=0023  ss=002b  ds=002b  es=002b  fs=0053  gs=002b             efl=00000202
WS7_S7AG!S7AG_IsTIAPortalStarted$qqsv+0x6fa36:
035ed36e e871dd0000      call    WS7_S7AG!S7AG_IsTIAPortalStarted$qqsv+0x7d7ac (035fb0e4)
eax=00000000 ebx=03624ecc ecx=74276ea4 edx=00000000 esi=00000000 edi=03624eb4
eip=035ed373 esp=06f1ff58 ebp=06f1ff70 iopl=0         nv up ei pl zr na pe nc
cs=0023  ss=002b  ds=002b  es=002b  fs=0053  gs=002b             efl=00000246
WS7_S7AG!S7AG_IsTIAPortalStarted$qqsv+0x6fa3b:
035ed373 8b45f4          mov     eax,dword ptr [ebp-0Ch] ss:002b:06f1ff64=03624ec8
eax=03624ec8 ebx=03624ecc ecx=74276ea4 edx=00000000 esi=00000000 edi=03624eb4
eip=035ed376 esp=06f1ff58 ebp=06f1ff70 iopl=0         nv up ei pl zr na pe nc
cs=0023  ss=002b  ds=002b  es=002b  fs=0053  gs=002b             efl=00000246
WS7_S7AG!S7AG_IsTIAPortalStarted$qqsv+0x6fa3e:
035ed376 c60000          mov     byte ptr [eax],0           ds:002b:03624ec8=00
eax=03624ec8 ebx=03624ecc ecx=74276ea4 edx=00000000 esi=00000000 edi=03624eb4
eip=035ed379 esp=06f1ff58 ebp=06f1ff70 iopl=0         nv up ei pl zr na pe nc
cs=0023  ss=002b  ds=002b  es=002b  fs=0053  gs=002b             efl=00000246
WS7_S7AG!S7AG_IsTIAPortalStarted$qqsv+0x6fa41:
035ed379 803b00          cmp     byte ptr [ebx],0           ds:002b:03624ecc=00
eax=03624ec8 ebx=03624ecc ecx=74276ea4 edx=00000000 esi=00000000 edi=03624eb4
eip=035ed37c esp=06f1ff58 ebp=06f1ff70 iopl=0         nv up ei pl zr na pe nc
cs=0023  ss=002b  ds=002b  es=002b  fs=0053  gs=002b             efl=00000246
WS7_S7AG!S7AG_IsTIAPortalStarted$qqsv+0x6fa44:
035ed37c 0f8445ffffff    je      WS7_S7AG!S7AG_IsTIAPortalStarted$qqsv+0x6f98f (035ed2c7) [br=1]
eax=03624ec8 ebx=03624ecc ecx=74276ea4 edx=00000000 esi=00000000 edi=03624eb4
eip=035ed2c7 esp=06f1ff58 ebp=06f1ff70 iopl=0         nv up ei pl zr na pe nc
cs=0023  ss=002b  ds=002b  es=002b  fs=0053  gs=002b             efl=00000246
WS7_S7AG!S7AG_IsTIAPortalStarted$qqsv+0x6f98f:
035ed2c7 8b45f8          mov     eax,dword ptr [ebp-8] ss:002b:06f1ff68=03624e3c
eax=03624e3c ebx=03624ecc ecx=74276ea4 edx=00000000 esi=00000000 edi=03624eb4
eip=035ed2ca esp=06f1ff58 ebp=06f1ff70 iopl=0         nv up ei pl zr na pe nc
cs=0023  ss=002b  ds=002b  es=002b  fs=0053  gs=002b             efl=00000246
WS7_S7AG!S7AG_IsTIAPortalStarted$qqsv+0x6f992:
035ed2ca c60001          mov     byte ptr [eax],1           ds:002b:03624e3c=01
eax=03624e3c ebx=03624ecc ecx=74276ea4 edx=00000000 esi=00000000 edi=03624eb4
eip=035ed2cd esp=06f1ff58 ebp=06f1ff70 iopl=0         nv up ei pl zr na pe nc
cs=0023  ss=002b  ds=002b  es=002b  fs=0053  gs=002b             efl=00000246
WS7_S7AG!S7AG_IsTIAPortalStarted$qqsv+0x6f995:
035ed2cd 803b00          cmp     byte ptr [ebx],0           ds:002b:03624ecc=00
eax=03624e3c ebx=03624ecc ecx=74276ea4 edx=00000000 esi=00000000 edi=03624eb4
eip=035ed2d0 esp=06f1ff58 ebp=06f1ff70 iopl=0         nv up ei pl zr na pe nc
cs=0023  ss=002b  ds=002b  es=002b  fs=0053  gs=002b             efl=00000246
WS7_S7AG!S7AG_IsTIAPortalStarted$qqsv+0x6f998:
035ed2d0 7405            je      WS7_S7AG!S7AG_IsTIAPortalStarted$qqsv+0x6f99f (035ed2d7) [br=1]
eax=03624e3c ebx=03624ecc ecx=74276ea4 edx=00000000 esi=00000000 edi=03624eb4
eip=035ed2d7 esp=06f1ff58 ebp=06f1ff70 iopl=0         nv up ei pl zr na pe nc
cs=0023  ss=002b  ds=002b  es=002b  fs=0053  gs=002b             efl=00000246
WS7_S7AG!S7AG_IsTIAPortalStarted$qqsv+0x6f99f:
035ed2d7 8bd6            mov     edx,esi
eax=03624e3c ebx=03624ecc ecx=74276ea4 edx=00000000 esi=00000000 edi=03624eb4
eip=035ed2d9 esp=06f1ff58 ebp=06f1ff70 iopl=0         nv up ei pl zr na pe nc
cs=0023  ss=002b  ds=002b  es=002b  fs=0053  gs=002b             efl=00000246
WS7_S7AG!S7AG_IsTIAPortalStarted$qqsv+0x6f9a1:
035ed2d9 8b0d084e6203    mov     ecx,dword ptr [WS7_S7AG!__CPPdebugHook+0x28cfc (03624e08)] ds:002b:03624e08=06460000
eax=03624e3c ebx=03624ecc ecx=06460000 edx=00000000 esi=00000000 edi=03624eb4
eip=035ed2df esp=06f1ff58 ebp=06f1ff70 iopl=0         nv up ei pl zr na pe nc
cs=0023  ss=002b  ds=002b  es=002b  fs=0053  gs=002b             efl=00000246
WS7_S7AG!S7AG_IsTIAPortalStarted$qqsv+0x6f9a7:
035ed2df c1e205          shl     edx,5
eax=03624e3c ebx=03624ecc ecx=06460000 edx=00000000 esi=00000000 edi=03624eb4
eip=035ed2e2 esp=06f1ff58 ebp=06f1ff70 iopl=0         nv up ei pl zr na pe nc
cs=0023  ss=002b  ds=002b  es=002b  fs=0053  gs=002b             efl=00000246
WS7_S7AG!S7AG_IsTIAPortalStarted$qqsv+0x6f9aa:
035ed2e2 03d6            add     edx,esi
eax=03624e3c ebx=03624ecc ecx=06460000 edx=00000000 esi=00000000 edi=03624eb4
eip=035ed2e4 esp=06f1ff58 ebp=06f1ff70 iopl=0         nv up ei pl zr na pe nc
cs=0023  ss=002b  ds=002b  es=002b  fs=0053  gs=002b             efl=00000246
WS7_S7AG!S7AG_IsTIAPortalStarted$qqsv+0x6f9ac:
035ed2e4 c645ff01        mov     byte ptr [ebp-1],1         ss:002b:06f1ff6f=01
eax=03624e3c ebx=03624ecc ecx=06460000 edx=00000000 esi=00000000 edi=03624eb4
eip=035ed2e8 esp=06f1ff58 ebp=06f1ff70 iopl=0         nv up ei pl zr na pe nc
cs=0023  ss=002b  ds=002b  es=002b  fs=0053  gs=002b             efl=00000246
WS7_S7AG!S7AG_IsTIAPortalStarted$qqsv+0x6f9b0:
035ed2e8 80bc9160765b0000 cmp     byte ptr ws7v6!DlgdownloadspFinalize+0x555c (005b7660)[ecx+edx*4],0 ds:002b:06a17660=00
eax=03624e3c ebx=03624ecc ecx=06460000 edx=00000000 esi=00000000 edi=03624eb4
eip=035ed2f0 esp=06f1ff58 ebp=06f1ff70 iopl=0         nv up ei pl zr na pe nc
cs=0023  ss=002b  ds=002b  es=002b  fs=0053  gs=002b             efl=00000246
WS7_S7AG!S7AG_IsTIAPortalStarted$qqsv+0x6f9b8:
035ed2f0 746d            je      WS7_S7AG!S7AG_IsTIAPortalStarted$qqsv+0x6fa27 (035ed35f) [br=1]
eax=03624e3c ebx=03624ecc ecx=06460000 edx=00000000 esi=00000000 edi=03624eb4
eip=035ed35f esp=06f1ff58 ebp=06f1ff70 iopl=0         nv up ei pl zr na pe nc
cs=0023  ss=002b  ds=002b  es=002b  fs=0053  gs=002b             efl=00000246
WS7_S7AG!S7AG_IsTIAPortalStarted$qqsv+0x6fa27:
035ed35f 6a01            push    1
eax=03624e3c ebx=03624ecc ecx=06460000 edx=00000000 esi=00000000 edi=03624eb4
eip=035ed361 esp=06f1ff54 ebp=06f1ff70 iopl=0         nv up ei pl zr na pe nc
cs=0023  ss=002b  ds=002b  es=002b  fs=0053  gs=002b             efl=00000246
WS7_S7AG!S7AG_IsTIAPortalStarted$qqsv+0x6fa29:
035ed361 e87edd0000      call    WS7_S7AG!S7AG_IsTIAPortalStarted$qqsv+0x7d7ac (035fb0e4)
eax=00000000 ebx=03624ecc ecx=74276ea4 edx=00000000 esi=00000000 edi=03624eb4
eip=035ed366 esp=06f1ff58 ebp=06f1ff70 iopl=0         nv up ei pl zr na pe nc
cs=0023  ss=002b  ds=002b  es=002b  fs=0053  gs=002b             efl=00000246
WS7_S7AG!S7AG_IsTIAPortalStarted$qqsv+0x6fa2e:
035ed366 807dff00        cmp     byte ptr [ebp-1],0         ss:002b:06f1ff6f=01
eax=00000000 ebx=03624ecc ecx=74276ea4 edx=00000000 esi=00000000 edi=03624eb4
eip=035ed36a esp=06f1ff58 ebp=06f1ff70 iopl=0         nv up ei pl nz na po nc
cs=0023  ss=002b  ds=002b  es=002b  fs=0053  gs=002b             efl=00000202
WS7_S7AG!S7AG_IsTIAPortalStarted$qqsv+0x6fa32:
035ed36a 7407            je      WS7_S7AG!S7AG_IsTIAPortalStarted$qqsv+0x6fa3b (035ed373) [br=0]
eax=00000000 ebx=03624ecc ecx=74276ea4 edx=00000000 esi=00000000 edi=03624eb4
eip=035ed36c esp=06f1ff58 ebp=06f1ff70 iopl=0         nv up ei pl nz na po nc
cs=0023  ss=002b  ds=002b  es=002b  fs=0053  gs=002b             efl=00000202
WS7_S7AG!S7AG_IsTIAPortalStarted$qqsv+0x6fa34:
035ed36c 6a0a            push    0Ah
eax=00000000 ebx=03624ecc ecx=74276ea4 edx=00000000 esi=00000000 edi=03624eb4
eip=035ed36e esp=06f1ff54 ebp=06f1ff70 iopl=0         nv up ei pl nz na po nc
cs=0023  ss=002b  ds=002b  es=002b  fs=0053  gs=002b             efl=00000202
WS7_S7AG!S7AG_IsTIAPortalStarted$qqsv+0x6fa36:
035ed36e e871dd0000      call    WS7_S7AG!S7AG_IsTIAPortalStarted$qqsv+0x7d7ac (035fb0e4)
eax=00000000 ebx=03624ecc ecx=74276ea4 edx=00000000 esi=00000000 edi=03624eb4
eip=035ed373 esp=06f1ff58 ebp=06f1ff70 iopl=0         nv up ei pl zr na pe nc
cs=0023  ss=002b  ds=002b  es=002b  fs=0053  gs=002b             efl=00000246
WS7_S7AG!S7AG_IsTIAPortalStarted$qqsv+0x6fa3b:
035ed373 8b45f4          mov     eax,dword ptr [ebp-0Ch] ss:002b:06f1ff64=03624ec8
eax=03624ec8 ebx=03624ecc ecx=74276ea4 edx=00000000 esi=00000000 edi=03624eb4
eip=035ed376 esp=06f1ff58 ebp=06f1ff70 iopl=0         nv up ei pl zr na pe nc
cs=0023  ss=002b  ds=002b  es=002b  fs=0053  gs=002b             efl=00000246
WS7_S7AG!S7AG_IsTIAPortalStarted$qqsv+0x6fa3e:
035ed376 c60000          mov     byte ptr [eax],0           ds:002b:03624ec8=00
eax=03624ec8 ebx=03624ecc ecx=74276ea4 edx=00000000 esi=00000000 edi=03624eb4
eip=035ed379 esp=06f1ff58 ebp=06f1ff70 iopl=0         nv up ei pl zr na pe nc
cs=0023  ss=002b  ds=002b  es=002b  fs=0053  gs=002b             efl=00000246
WS7_S7AG!S7AG_IsTIAPortalStarted$qqsv+0x6fa41:
035ed379 803b00          cmp     byte ptr [ebx],0           ds:002b:03624ecc=00
eax=03624ec8 ebx=03624ecc ecx=74276ea4 edx=00000000 esi=00000000 edi=03624eb4
eip=035ed37c esp=06f1ff58 ebp=06f1ff70 iopl=0         nv up ei pl zr na pe nc
cs=0023  ss=002b  ds=002b  es=002b  fs=0053  gs=002b             efl=00000246
WS7_S7AG!S7AG_IsTIAPortalStarted$qqsv+0x6fa44:
035ed37c 0f8445ffffff    je      WS7_S7AG!S7AG_IsTIAPortalStarted$qqsv+0x6f98f (035ed2c7) [br=1]
eax=03624ec8 ebx=03624ecc ecx=74276ea4 edx=00000000 esi=00000000 edi=03624eb4
eip=035ed2c7 esp=06f1ff58 ebp=06f1ff70 iopl=0         nv up ei pl zr na pe nc
cs=0023  ss=002b  ds=002b  es=002b  fs=0053  gs=002b             efl=00000246
WS7_S7AG!S7AG_IsTIAPortalStarted$qqsv+0x6f98f:
035ed2c7 8b45f8          mov     eax,dword ptr [ebp-8] ss:002b:06f1ff68=03624e3c
eax=03624e3c ebx=03624ecc ecx=74276ea4 edx=00000000 esi=00000000 edi=03624eb4
eip=035ed2ca esp=06f1ff58 ebp=06f1ff70 iopl=0         nv up ei pl zr na pe nc
cs=0023  ss=002b  ds=002b  es=002b  fs=0053  gs=002b             efl=00000246
WS7_S7AG!S7AG_IsTIAPortalStarted$qqsv+0x6f992:
035ed2ca c60001          mov     byte ptr [eax],1           ds:002b:03624e3c=01
eax=03624e3c ebx=03624ecc ecx=74276ea4 edx=00000000 esi=00000000 edi=03624eb4
eip=035ed2cd esp=06f1ff58 ebp=06f1ff70 iopl=0         nv up ei pl zr na pe nc
cs=0023  ss=002b  ds=002b  es=002b  fs=0053  gs=002b             efl=00000246
WS7_S7AG!S7AG_IsTIAPortalStarted$qqsv+0x6f995:
035ed2cd 803b00          cmp     byte ptr [ebx],0           ds:002b:03624ecc=00
eax=03624e3c ebx=03624ecc ecx=74276ea4 edx=00000000 esi=00000000 edi=03624eb4
eip=035ed2d0 esp=06f1ff58 ebp=06f1ff70 iopl=0         nv up ei pl zr na pe nc
cs=0023  ss=002b  ds=002b  es=002b  fs=0053  gs=002b             efl=00000246
WS7_S7AG!S7AG_IsTIAPortalStarted$qqsv+0x6f998:
035ed2d0 7405            je      WS7_S7AG!S7AG_IsTIAPortalStarted$qqsv+0x6f99f (035ed2d7) [br=1]
eax=03624e3c ebx=03624ecc ecx=74276ea4 edx=00000000 esi=00000000 edi=03624eb4
eip=035ed2d7 esp=06f1ff58 ebp=06f1ff70 iopl=0         nv up ei pl zr na pe nc
cs=0023  ss=002b  ds=002b  es=002b  fs=0053  gs=002b             efl=00000246
WS7_S7AG!S7AG_IsTIAPortalStarted$qqsv+0x6f99f:
035ed2d7 8bd6            mov     edx,esi
eax=03624e3c ebx=03624ecc ecx=74276ea4 edx=00000000 esi=00000000 edi=03624eb4
eip=035ed2d9 esp=06f1ff58 ebp=06f1ff70 iopl=0         nv up ei pl zr na pe nc
cs=0023  ss=002b  ds=002b  es=002b  fs=0053  gs=002b             efl=00000246
WS7_S7AG!S7AG_IsTIAPortalStarted$qqsv+0x6f9a1:
035ed2d9 8b0d084e6203    mov     ecx,dword ptr [WS7_S7AG!__CPPdebugHook+0x28cfc (03624e08)] ds:002b:03624e08=06460000
eax=03624e3c ebx=03624ecc ecx=06460000 edx=00000000 esi=00000000 edi=03624eb4
eip=035ed2df esp=06f1ff58 ebp=06f1ff70 iopl=0         nv up ei pl zr na pe nc
cs=0023  ss=002b  ds=002b  es=002b  fs=0053  gs=002b             efl=00000246
WS7_S7AG!S7AG_IsTIAPortalStarted$qqsv+0x6f9a7:
035ed2df c1e205          shl     edx,5
eax=03624e3c ebx=03624ecc ecx=06460000 edx=00000000 esi=00000000 edi=03624eb4
eip=035ed2e2 esp=06f1ff58 ebp=06f1ff70 iopl=0         nv up ei pl zr na pe nc
cs=0023  ss=002b  ds=002b  es=002b  fs=0053  gs=002b             efl=00000246
WS7_S7AG!S7AG_IsTIAPortalStarted$qqsv+0x6f9aa:
035ed2e2 03d6            add     edx,esi
eax=03624e3c ebx=03624ecc ecx=06460000 edx=00000000 esi=00000000 edi=03624eb4
eip=035ed2e4 esp=06f1ff58 ebp=06f1ff70 iopl=0         nv up ei pl zr na pe nc
cs=0023  ss=002b  ds=002b  es=002b  fs=0053  gs=002b             efl=00000246
WS7_S7AG!S7AG_IsTIAPortalStarted$qqsv+0x6f9ac:
035ed2e4 c645ff01        mov     byte ptr [ebp-1],1         ss:002b:06f1ff6f=01
eax=03624e3c ebx=03624ecc ecx=06460000 edx=00000000 esi=00000000 edi=03624eb4
eip=035ed2e8 esp=06f1ff58 ebp=06f1ff70 iopl=0         nv up ei pl zr na pe nc
cs=0023  ss=002b  ds=002b  es=002b  fs=0053  gs=002b             efl=00000246
WS7_S7AG!S7AG_IsTIAPortalStarted$qqsv+0x6f9b0:
035ed2e8 80bc9160765b0000 cmp     byte ptr ws7v6!DlgdownloadspFinalize+0x555c (005b7660)[ecx+edx*4],0 ds:002b:06a17660=00
eax=03624e3c ebx=03624ecc ecx=06460000 edx=00000000 esi=00000000 edi=03624eb4
eip=035ed2f0 esp=06f1ff58 ebp=06f1ff70 iopl=0         nv up ei pl zr na pe nc
cs=0023  ss=002b  ds=002b  es=002b  fs=0053  gs=002b             efl=00000246
WS7_S7AG!S7AG_IsTIAPortalStarted$qqsv+0x6f9b8:
035ed2f0 746d            je      WS7_S7AG!S7AG_IsTIAPortalStarted$qqsv+0x6fa27 (035ed35f) [br=1]
eax=03624e3c ebx=03624ecc ecx=06460000 edx=00000000 esi=00000000 edi=03624eb4
eip=035ed35f esp=06f1ff58 ebp=06f1ff70 iopl=0         nv up ei pl zr na pe nc
cs=0023  ss=002b  ds=002b  es=002b  fs=0053  gs=002b             efl=00000246
WS7_S7AG!S7AG_IsTIAPortalStarted$qqsv+0x6fa27:
035ed35f 6a01            push    1
eax=03624e3c ebx=03624ecc ecx=06460000 edx=00000000 esi=00000000 edi=03624eb4
eip=035ed361 esp=06f1ff54 ebp=06f1ff70 iopl=0         nv up ei pl zr na pe nc
cs=0023  ss=002b  ds=002b  es=002b  fs=0053  gs=002b             efl=00000246
WS7_S7AG!S7AG_IsTIAPortalStarted$qqsv+0x6fa29:
035ed361 e87edd0000      call    WS7_S7AG!S7AG_IsTIAPortalStarted$qqsv+0x7d7ac (035fb0e4)
ModLoad: 68ed0000 68ee9000   C:\WINDOWS\SYSTEM32\olepro32.dll
eax=00000000 ebx=03624ecc ecx=74276ea4 edx=00000000 esi=00000000 edi=03624eb4
eip=035ed366 esp=06f1ff58 ebp=06f1ff70 iopl=0         nv up ei pl zr na pe nc
cs=0023  ss=002b  ds=002b  es=002b  fs=0053  gs=002b             efl=00000246
WS7_S7AG!S7AG_IsTIAPortalStarted$qqsv+0x6fa2e:
035ed366 807dff00        cmp     byte ptr [ebp-1],0         ss:002b:06f1ff6f=01
eax=00000000 ebx=03624ecc ecx=74276ea4 edx=00000000 esi=00000000 edi=03624eb4
eip=035ed36a esp=06f1ff58 ebp=06f1ff70 iopl=0         nv up ei pl nz na po nc
cs=0023  ss=002b  ds=002b  es=002b  fs=0053  gs=002b             efl=00000202
WS7_S7AG!S7AG_IsTIAPortalStarted$qqsv+0x6fa32:
035ed36a 7407            je      WS7_S7AG!S7AG_IsTIAPortalStarted$qqsv+0x6fa3b (035ed373) [br=0]
eax=00000000 ebx=03624ecc ecx=74276ea4 edx=00000000 esi=00000000 edi=03624eb4
eip=035ed36c esp=06f1ff58 ebp=06f1ff70 iopl=0         nv up ei pl nz na po nc
cs=0023  ss=002b  ds=002b  es=002b  fs=0053  gs=002b             efl=00000202
WS7_S7AG!S7AG_IsTIAPortalStarted$qqsv+0x6fa34:
035ed36c 6a0a            push    0Ah
eax=00000000 ebx=03624ecc ecx=74276ea4 edx=00000000 esi=00000000 edi=03624eb4
eip=035ed36e esp=06f1ff54 ebp=06f1ff70 iopl=0         nv up ei pl nz na po nc
cs=0023  ss=002b  ds=002b  es=002b  fs=0053  gs=002b             efl=00000202
WS7_S7AG!S7AG_IsTIAPortalStarted$qqsv+0x6fa36:
035ed36e e871dd0000      call    WS7_S7AG!S7AG_IsTIAPortalStarted$qqsv+0x7d7ac (035fb0e4)
eax=00000000 ebx=03624ecc ecx=74276ea4 edx=00000000 esi=00000000 edi=03624eb4
eip=035ed373 esp=06f1ff58 ebp=06f1ff70 iopl=0         nv up ei pl zr na pe nc
cs=0023  ss=002b  ds=002b  es=002b  fs=0053  gs=002b             efl=00000246
WS7_S7AG!S7AG_IsTIAPortalStarted$qqsv+0x6fa3b:
035ed373 8b45f4          mov     eax,dword ptr [ebp-0Ch] ss:002b:06f1ff64=03624ec8
eax=03624ec8 ebx=03624ecc ecx=74276ea4 edx=00000000 esi=00000000 edi=03624eb4
eip=035ed376 esp=06f1ff58 ebp=06f1ff70 iopl=0         nv up ei pl zr na pe nc
cs=0023  ss=002b  ds=002b  es=002b  fs=0053  gs=002b             efl=00000246
WS7_S7AG!S7AG_IsTIAPortalStarted$qqsv+0x6fa3e:
035ed376 c60000          mov     byte ptr [eax],0           ds:002b:03624ec8=00
eax=03624ec8 ebx=03624ecc ecx=74276ea4 edx=00000000 esi=00000000 edi=03624eb4
eip=035ed379 esp=06f1ff58 ebp=06f1ff70 iopl=0         nv up ei pl zr na pe nc
cs=0023  ss=002b  ds=002b  es=002b  fs=0053  gs=002b             efl=00000246
WS7_S7AG!S7AG_IsTIAPortalStarted$qqsv+0x6fa41:
035ed379 803b00          cmp     byte ptr [ebx],0           ds:002b:03624ecc=00
eax=03624ec8 ebx=03624ecc ecx=74276ea4 edx=00000000 esi=00000000 edi=03624eb4
eip=035ed37c esp=06f1ff58 ebp=06f1ff70 iopl=0         nv up ei pl zr na pe nc
cs=0023  ss=002b  ds=002b  es=002b  fs=0053  gs=002b             efl=00000246
WS7_S7AG!S7AG_IsTIAPortalStarted$qqsv+0x6fa44:
035ed37c 0f8445ffffff    je      WS7_S7AG!S7AG_IsTIAPortalStarted$qqsv+0x6f98f (035ed2c7) [br=1]
eax=03624ec8 ebx=03624ecc ecx=74276ea4 edx=00000000 esi=00000000 edi=03624eb4
eip=035ed2c7 esp=06f1ff58 ebp=06f1ff70 iopl=0         nv up ei pl zr na pe nc
cs=0023  ss=002b  ds=002b  es=002b  fs=0053  gs=002b             efl=00000246
WS7_S7AG!S7AG_IsTIAPortalStarted$qqsv+0x6f98f:
035ed2c7 8b45f8          mov     eax,dword ptr [ebp-8] ss:002b:06f1ff68=03624e3c
eax=03624e3c ebx=03624ecc ecx=74276ea4 edx=00000000 esi=00000000 edi=03624eb4
eip=035ed2ca esp=06f1ff58 ebp=06f1ff70 iopl=0         nv up ei pl zr na pe nc
cs=0023  ss=002b  ds=002b  es=002b  fs=0053  gs=002b             efl=00000246
WS7_S7AG!S7AG_IsTIAPortalStarted$qqsv+0x6f992:
035ed2ca c60001          mov     byte ptr [eax],1           ds:002b:03624e3c=01
eax=03624e3c ebx=03624ecc ecx=74276ea4 edx=00000000 esi=00000000 edi=03624eb4
eip=035ed2cd esp=06f1ff58 ebp=06f1ff70 iopl=0         nv up ei pl zr na pe nc
cs=0023  ss=002b  ds=002b  es=002b  fs=0053  gs=002b             efl=00000246
WS7_S7AG!S7AG_IsTIAPortalStarted$qqsv+0x6f995:
035ed2cd 803b00          cmp     byte ptr [ebx],0           ds:002b:03624ecc=00
eax=03624e3c ebx=03624ecc ecx=74276ea4 edx=00000000 esi=00000000 edi=03624eb4
eip=035ed2d0 esp=06f1ff58 ebp=06f1ff70 iopl=0         nv up ei pl zr na pe nc
cs=0023  ss=002b  ds=002b  es=002b  fs=0053  gs=002b             efl=00000246
WS7_S7AG!S7AG_IsTIAPortalStarted$qqsv+0x6f998:
035ed2d0 7405            je      WS7_S7AG!S7AG_IsTIAPortalStarted$qqsv+0x6f99f (035ed2d7) [br=1]
eax=03624e3c ebx=03624ecc ecx=74276ea4 edx=00000000 esi=00000000 edi=03624eb4
eip=035ed2d7 esp=06f1ff58 ebp=06f1ff70 iopl=0         nv up ei pl zr na pe nc
cs=0023  ss=002b  ds=002b  es=002b  fs=0053  gs=002b             efl=00000246
WS7_S7AG!S7AG_IsTIAPortalStarted$qqsv+0x6f99f:
035ed2d7 8bd6            mov     edx,esi
eax=03624e3c ebx=03624ecc ecx=74276ea4 edx=00000000 esi=00000000 edi=03624eb4
eip=035ed2d9 esp=06f1ff58 ebp=06f1ff70 iopl=0         nv up ei pl zr na pe nc
cs=0023  ss=002b  ds=002b  es=002b  fs=0053  gs=002b             efl=00000246
WS7_S7AG!S7AG_IsTIAPortalStarted$qqsv+0x6f9a1:
035ed2d9 8b0d084e6203    mov     ecx,dword ptr [WS7_S7AG!__CPPdebugHook+0x28cfc (03624e08)] ds:002b:03624e08=06460000
eax=03624e3c ebx=03624ecc ecx=06460000 edx=00000000 esi=00000000 edi=03624eb4
eip=035ed2df esp=06f1ff58 ebp=06f1ff70 iopl=0         nv up ei pl zr na pe nc
cs=0023  ss=002b  ds=002b  es=002b  fs=0053  gs=002b             efl=00000246
WS7_S7AG!S7AG_IsTIAPortalStarted$qqsv+0x6f9a7:
035ed2df c1e205          shl     edx,5
eax=03624e3c ebx=03624ecc ecx=06460000 edx=00000000 esi=00000000 edi=03624eb4
eip=035ed2e2 esp=06f1ff58 ebp=06f1ff70 iopl=0         nv up ei pl zr na pe nc
cs=0023  ss=002b  ds=002b  es=002b  fs=0053  gs=002b             efl=00000246
WS7_S7AG!S7AG_IsTIAPortalStarted$qqsv+0x6f9aa:
035ed2e2 03d6            add     edx,esi
eax=03624e3c ebx=03624ecc ecx=06460000 edx=00000000 esi=00000000 edi=03624eb4
eip=035ed2e4 esp=06f1ff58 ebp=06f1ff70 iopl=0         nv up ei pl zr na pe nc
cs=0023  ss=002b  ds=002b  es=002b  fs=0053  gs=002b             efl=00000246
WS7_S7AG!S7AG_IsTIAPortalStarted$qqsv+0x6f9ac:
035ed2e4 c645ff01        mov     byte ptr [ebp-1],1         ss:002b:06f1ff6f=01
eax=03624e3c ebx=03624ecc ecx=06460000 edx=00000000 esi=00000000 edi=03624eb4
eip=035ed2e8 esp=06f1ff58 ebp=06f1ff70 iopl=0         nv up ei pl zr na pe nc
cs=0023  ss=002b  ds=002b  es=002b  fs=0053  gs=002b             efl=00000246
WS7_S7AG!S7AG_IsTIAPortalStarted$qqsv+0x6f9b0:
035ed2e8 80bc9160765b0000 cmp     byte ptr ws7v6!DlgdownloadspFinalize+0x555c (005b7660)[ecx+edx*4],0 ds:002b:06a17660=00
eax=03624e3c ebx=03624ecc ecx=06460000 edx=00000000 esi=00000000 edi=03624eb4
eip=035ed2f0 esp=06f1ff58 ebp=06f1ff70 iopl=0         nv up ei pl zr na pe nc
cs=0023  ss=002b  ds=002b  es=002b  fs=0053  gs=002b             efl=00000246
WS7_S7AG!S7AG_IsTIAPortalStarted$qqsv+0x6f9b8:
035ed2f0 746d            je      WS7_S7AG!S7AG_IsTIAPortalStarted$qqsv+0x6fa27 (035ed35f) [br=1]
eax=03624e3c ebx=03624ecc ecx=06460000 edx=00000000 esi=00000000 edi=03624eb4
eip=035ed35f esp=06f1ff58 ebp=06f1ff70 iopl=0         nv up ei pl zr na pe nc
cs=0023  ss=002b  ds=002b  es=002b  fs=0053  gs=002b             efl=00000246
WS7_S7AG!S7AG_IsTIAPortalStarted$qqsv+0x6fa27:
035ed35f 6a01            push    1
eax=03624e3c ebx=03624ecc ecx=06460000 edx=00000000 esi=00000000 edi=03624eb4
eip=035ed361 esp=06f1ff54 ebp=06f1ff70 iopl=0         nv up ei pl zr na pe nc
cs=0023  ss=002b  ds=002b  es=002b  fs=0053  gs=002b             efl=00000246
WS7_S7AG!S7AG_IsTIAPortalStarted$qqsv+0x6fa29:
035ed361 e87edd0000      call    WS7_S7AG!S7AG_IsTIAPortalStarted$qqsv+0x7d7ac (035fb0e4)
eax=00000000 ebx=03624ecc ecx=74276ea4 edx=00000000 esi=00000000 edi=03624eb4
eip=035ed366 esp=06f1ff58 ebp=06f1ff70 iopl=0         nv up ei pl zr na pe nc
cs=0023  ss=002b  ds=002b  es=002b  fs=0053  gs=002b             efl=00000246
WS7_S7AG!S7AG_IsTIAPortalStarted$qqsv+0x6fa2e:
035ed366 807dff00        cmp     byte ptr [ebp-1],0         ss:002b:06f1ff6f=01
eax=00000000 ebx=03624ecc ecx=74276ea4 edx=00000000 esi=00000000 edi=03624eb4
eip=035ed36a esp=06f1ff58 ebp=06f1ff70 iopl=0         nv up ei pl nz na po nc
cs=0023  ss=002b  ds=002b  es=002b  fs=0053  gs=002b             efl=00000202
WS7_S7AG!S7AG_IsTIAPortalStarted$qqsv+0x6fa32:
035ed36a 7407            je      WS7_S7AG!S7AG_IsTIAPortalStarted$qqsv+0x6fa3b (035ed373) [br=0]
eax=00000000 ebx=03624ecc ecx=74276ea4 edx=00000000 esi=00000000 edi=03624eb4
eip=035ed36c esp=06f1ff58 ebp=06f1ff70 iopl=0         nv up ei pl nz na po nc
cs=0023  ss=002b  ds=002b  es=002b  fs=0053  gs=002b             efl=00000202
WS7_S7AG!S7AG_IsTIAPortalStarted$qqsv+0x6fa34:
035ed36c 6a0a            push    0Ah
eax=00000000 ebx=03624ecc ecx=74276ea4 edx=00000000 esi=00000000 edi=03624eb4
eip=035ed36e esp=06f1ff54 ebp=06f1ff70 iopl=0         nv up ei pl nz na po nc
cs=0023  ss=002b  ds=002b  es=002b  fs=0053  gs=002b             efl=00000202
WS7_S7AG!S7AG_IsTIAPortalStarted$qqsv+0x6fa36:
035ed36e e871dd0000      call    WS7_S7AG!S7AG_IsTIAPortalStarted$qqsv+0x7d7ac (035fb0e4)
eax=00000000 ebx=03624ecc ecx=74276ea4 edx=00000000 esi=00000000 edi=03624eb4
eip=035ed373 esp=06f1ff58 ebp=06f1ff70 iopl=0         nv up ei pl zr na pe nc
cs=0023  ss=002b  ds=002b  es=002b  fs=0053  gs=002b             efl=00000246
WS7_S7AG!S7AG_IsTIAPortalStarted$qqsv+0x6fa3b:
035ed373 8b45f4          mov     eax,dword ptr [ebp-0Ch] ss:002b:06f1ff64=03624ec8
eax=03624ec8 ebx=03624ecc ecx=74276ea4 edx=00000000 esi=00000000 edi=03624eb4
eip=035ed376 esp=06f1ff58 ebp=06f1ff70 iopl=0         nv up ei pl zr na pe nc
cs=0023  ss=002b  ds=002b  es=002b  fs=0053  gs=002b             efl=00000246
WS7_S7AG!S7AG_IsTIAPortalStarted$qqsv+0x6fa3e:
035ed376 c60000          mov     byte ptr [eax],0           ds:002b:03624ec8=00
eax=03624ec8 ebx=03624ecc ecx=74276ea4 edx=00000000 esi=00000000 edi=03624eb4
eip=035ed379 esp=06f1ff58 ebp=06f1ff70 iopl=0         nv up ei pl zr na pe nc
cs=0023  ss=002b  ds=002b  es=002b  fs=0053  gs=002b             efl=00000246
WS7_S7AG!S7AG_IsTIAPortalStarted$qqsv+0x6fa41:
035ed379 803b00          cmp     byte ptr [ebx],0           ds:002b:03624ecc=00
eax=03624ec8 ebx=03624ecc ecx=74276ea4 edx=00000000 esi=00000000 edi=03624eb4
eip=035ed37c esp=06f1ff58 ebp=06f1ff70 iopl=0         nv up ei pl zr na pe nc
cs=0023  ss=002b  ds=002b  es=002b  fs=0053  gs=002b             efl=00000246
WS7_S7AG!S7AG_IsTIAPortalStarted$qqsv+0x6fa44:
035ed37c 0f8445ffffff    je      WS7_S7AG!S7AG_IsTIAPortalStarted$qqsv+0x6f98f (035ed2c7) [br=1]
eax=03624ec8 ebx=03624ecc ecx=74276ea4 edx=00000000 esi=00000000 edi=03624eb4
eip=035ed2c7 esp=06f1ff58 ebp=06f1ff70 iopl=0         nv up ei pl zr na pe nc
cs=0023  ss=002b  ds=002b  es=002b  fs=0053  gs=002b             efl=00000246
WS7_S7AG!S7AG_IsTIAPortalStarted$qqsv+0x6f98f:
035ed2c7 8b45f8          mov     eax,dword ptr [ebp-8] ss:002b:06f1ff68=03624e3c
eax=03624e3c ebx=03624ecc ecx=74276ea4 edx=00000000 esi=00000000 edi=03624eb4
eip=035ed2ca esp=06f1ff58 ebp=06f1ff70 iopl=0         nv up ei pl zr na pe nc
cs=0023  ss=002b  ds=002b  es=002b  fs=0053  gs=002b             efl=00000246
WS7_S7AG!S7AG_IsTIAPortalStarted$qqsv+0x6f992:
035ed2ca c60001          mov     byte ptr [eax],1           ds:002b:03624e3c=01
eax=03624e3c ebx=03624ecc ecx=74276ea4 edx=00000000 esi=00000000 edi=03624eb4
eip=035ed2cd esp=06f1ff58 ebp=06f1ff70 iopl=0         nv up ei pl zr na pe nc
cs=0023  ss=002b  ds=002b  es=002b  fs=0053  gs=002b             efl=00000246
WS7_S7AG!S7AG_IsTIAPortalStarted$qqsv+0x6f995:
035ed2cd 803b00          cmp     byte ptr [ebx],0           ds:002b:03624ecc=00
eax=03624e3c ebx=03624ecc ecx=74276ea4 edx=00000000 esi=00000000 edi=03624eb4
eip=035ed2d0 esp=06f1ff58 ebp=06f1ff70 iopl=0         nv up ei pl zr na pe nc
cs=0023  ss=002b  ds=002b  es=002b  fs=0053  gs=002b             efl=00000246
WS7_S7AG!S7AG_IsTIAPortalStarted$qqsv+0x6f998:
035ed2d0 7405            je      WS7_S7AG!S7AG_IsTIAPortalStarted$qqsv+0x6f99f (035ed2d7) [br=1]
eax=03624e3c ebx=03624ecc ecx=74276ea4 edx=00000000 esi=00000000 edi=03624eb4
eip=035ed2d7 esp=06f1ff58 ebp=06f1ff70 iopl=0         nv up ei pl zr na pe nc
cs=0023  ss=002b  ds=002b  es=002b  fs=0053  gs=002b             efl=00000246
WS7_S7AG!S7AG_IsTIAPortalStarted$qqsv+0x6f99f:
035ed2d7 8bd6            mov     edx,esi
eax=03624e3c ebx=03624ecc ecx=74276ea4 edx=00000000 esi=00000000 edi=03624eb4
eip=035ed2d9 esp=06f1ff58 ebp=06f1ff70 iopl=0         nv up ei pl zr na pe nc
cs=0023  ss=002b  ds=002b  es=002b  fs=0053  gs=002b             efl=00000246
WS7_S7AG!S7AG_IsTIAPortalStarted$qqsv+0x6f9a1:
035ed2d9 8b0d084e6203    mov     ecx,dword ptr [WS7_S7AG!__CPPdebugHook+0x28cfc (03624e08)] ds:002b:03624e08=06460000
eax=03624e3c ebx=03624ecc ecx=06460000 edx=00000000 esi=00000000 edi=03624eb4
eip=035ed2df esp=06f1ff58 ebp=06f1ff70 iopl=0         nv up ei pl zr na pe nc
cs=0023  ss=002b  ds=002b  es=002b  fs=0053  gs=002b             efl=00000246
WS7_S7AG!S7AG_IsTIAPortalStarted$qqsv+0x6f9a7:
035ed2df c1e205          shl     edx,5
eax=03624e3c ebx=03624ecc ecx=06460000 edx=00000000 esi=00000000 edi=03624eb4
eip=035ed2e2 esp=06f1ff58 ebp=06f1ff70 iopl=0         nv up ei pl zr na pe nc
cs=0023  ss=002b  ds=002b  es=002b  fs=0053  gs=002b             efl=00000246
WS7_S7AG!S7AG_IsTIAPortalStarted$qqsv+0x6f9aa:
035ed2e2 03d6            add     edx,esi
eax=03624e3c ebx=03624ecc ecx=06460000 edx=00000000 esi=00000000 edi=03624eb4
eip=035ed2e4 esp=06f1ff58 ebp=06f1ff70 iopl=0         nv up ei pl zr na pe nc
cs=0023  ss=002b  ds=002b  es=002b  fs=0053  gs=002b             efl=00000246
WS7_S7AG!S7AG_IsTIAPortalStarted$qqsv+0x6f9ac:
035ed2e4 c645ff01        mov     byte ptr [ebp-1],1         ss:002b:06f1ff6f=01
eax=03624e3c ebx=03624ecc ecx=06460000 edx=00000000 esi=00000000 edi=03624eb4
eip=035ed2e8 esp=06f1ff58 ebp=06f1ff70 iopl=0         nv up ei pl zr na pe nc
cs=0023  ss=002b  ds=002b  es=002b  fs=0053  gs=002b             efl=00000246
WS7_S7AG!S7AG_IsTIAPortalStarted$qqsv+0x6f9b0:
035ed2e8 80bc9160765b0000 cmp     byte ptr ws7v6!DlgdownloadspFinalize+0x555c (005b7660)[ecx+edx*4],0 ds:002b:06a17660=00
eax=03624e3c ebx=03624ecc ecx=06460000 edx=00000000 esi=00000000 edi=03624eb4
eip=035ed2f0 esp=06f1ff58 ebp=06f1ff70 iopl=0         nv up ei pl zr na pe nc
cs=0023  ss=002b  ds=002b  es=002b  fs=0053  gs=002b             efl=00000246
WS7_S7AG!S7AG_IsTIAPortalStarted$qqsv+0x6f9b8:
035ed2f0 746d            je      WS7_S7AG!S7AG_IsTIAPortalStarted$qqsv+0x6fa27 (035ed35f) [br=1]
eax=03624e3c ebx=03624ecc ecx=06460000 edx=00000000 esi=00000000 edi=03624eb4
eip=035ed35f esp=06f1ff58 ebp=06f1ff70 iopl=0         nv up ei pl zr na pe nc
cs=0023  ss=002b  ds=002b  es=002b  fs=0053  gs=002b             efl=00000246
WS7_S7AG!S7AG_IsTIAPortalStarted$qqsv+0x6fa27:
035ed35f 6a01            push    1
eax=03624e3c ebx=03624ecc ecx=06460000 edx=00000000 esi=00000000 edi=03624eb4
eip=035ed361 esp=06f1ff54 ebp=06f1ff70 iopl=0         nv up ei pl zr na pe nc
cs=0023  ss=002b  ds=002b  es=002b  fs=0053  gs=002b             efl=00000246
WS7_S7AG!S7AG_IsTIAPortalStarted$qqsv+0x6fa29:
035ed361 e87edd0000      call    WS7_S7AG!S7AG_IsTIAPortalStarted$qqsv+0x7d7ac (035fb0e4)
eax=00000000 ebx=03624ecc ecx=74276ea4 edx=00000000 esi=00000000 edi=03624eb4
eip=035ed366 esp=06f1ff58 ebp=06f1ff70 iopl=0         nv up ei pl zr na pe nc
cs=0023  ss=002b  ds=002b  es=002b  fs=0053  gs=002b             efl=00000246
WS7_S7AG!S7AG_IsTIAPortalStarted$qqsv+0x6fa2e:
035ed366 807dff00        cmp     byte ptr [ebp-1],0         ss:002b:06f1ff6f=01
eax=00000000 ebx=03624ecc ecx=74276ea4 edx=00000000 esi=00000000 edi=03624eb4
eip=035ed36a esp=06f1ff58 ebp=06f1ff70 iopl=0         nv up ei pl nz na po nc
cs=0023  ss=002b  ds=002b  es=002b  fs=0053  gs=002b             efl=00000202
WS7_S7AG!S7AG_IsTIAPortalStarted$qqsv+0x6fa32:
035ed36a 7407            je      WS7_S7AG!S7AG_IsTIAPortalStarted$qqsv+0x6fa3b (035ed373) [br=0]
eax=00000000 ebx=03624ecc ecx=74276ea4 edx=00000000 esi=00000000 edi=03624eb4
eip=035ed36c esp=06f1ff58 ebp=06f1ff70 iopl=0         nv up ei pl nz na po nc
cs=0023  ss=002b  ds=002b  es=002b  fs=0053  gs=002b             efl=00000202
WS7_S7AG!S7AG_IsTIAPortalStarted$qqsv+0x6fa34:
035ed36c 6a0a            push    0Ah
eax=00000000 ebx=03624ecc ecx=74276ea4 edx=00000000 esi=00000000 edi=03624eb4
eip=035ed36e esp=06f1ff54 ebp=06f1ff70 iopl=0         nv up ei pl nz na po nc
cs=0023  ss=002b  ds=002b  es=002b  fs=0053  gs=002b             efl=00000202
WS7_S7AG!S7AG_IsTIAPortalStarted$qqsv+0x6fa36:
035ed36e e871dd0000      call    WS7_S7AG!S7AG_IsTIAPortalStarted$qqsv+0x7d7ac (035fb0e4)
eax=00000000 ebx=03624ecc ecx=74276ea4 edx=00000000 esi=00000000 edi=03624eb4
eip=035ed373 esp=06f1ff58 ebp=06f1ff70 iopl=0         nv up ei pl zr na pe nc
cs=0023  ss=002b  ds=002b  es=002b  fs=0053  gs=002b             efl=00000246
WS7_S7AG!S7AG_IsTIAPortalStarted$qqsv+0x6fa3b:
035ed373 8b45f4          mov     eax,dword ptr [ebp-0Ch] ss:002b:06f1ff64=03624ec8
eax=03624ec8 ebx=03624ecc ecx=74276ea4 edx=00000000 esi=00000000 edi=03624eb4
eip=035ed376 esp=06f1ff58 ebp=06f1ff70 iopl=0         nv up ei pl zr na pe nc
cs=0023  ss=002b  ds=002b  es=002b  fs=0053  gs=002b             efl=00000246
WS7_S7AG!S7AG_IsTIAPortalStarted$qqsv+0x6fa3e:
035ed376 c60000          mov     byte ptr [eax],0           ds:002b:03624ec8=00
eax=03624ec8 ebx=03624ecc ecx=74276ea4 edx=00000000 esi=00000000 edi=03624eb4
eip=035ed379 esp=06f1ff58 ebp=06f1ff70 iopl=0         nv up ei pl zr na pe nc
cs=0023  ss=002b  ds=002b  es=002b  fs=0053  gs=002b             efl=00000246
WS7_S7AG!S7AG_IsTIAPortalStarted$qqsv+0x6fa41:
035ed379 803b00          cmp     byte ptr [ebx],0           ds:002b:03624ecc=00
eax=03624ec8 ebx=03624ecc ecx=74276ea4 edx=00000000 esi=00000000 edi=03624eb4
eip=035ed37c esp=06f1ff58 ebp=06f1ff70 iopl=0         nv up ei pl zr na pe nc
cs=0023  ss=002b  ds=002b  es=002b  fs=0053  gs=002b             efl=00000246
WS7_S7AG!S7AG_IsTIAPortalStarted$qqsv+0x6fa44:
035ed37c 0f8445ffffff    je      WS7_S7AG!S7AG_IsTIAPortalStarted$qqsv+0x6f98f (035ed2c7) [br=1]
eax=03624ec8 ebx=03624ecc ecx=74276ea4 edx=00000000 esi=00000000 edi=03624eb4
eip=035ed2c7 esp=06f1ff58 ebp=06f1ff70 iopl=0         nv up ei pl zr na pe nc
cs=0023  ss=002b  ds=002b  es=002b  fs=0053  gs=002b             efl=00000246
WS7_S7AG!S7AG_IsTIAPortalStarted$qqsv+0x6f98f:
035ed2c7 8b45f8          mov     eax,dword ptr [ebp-8] ss:002b:06f1ff68=03624e3c
eax=03624e3c ebx=03624ecc ecx=74276ea4 edx=00000000 esi=00000000 edi=03624eb4
eip=035ed2ca esp=06f1ff58 ebp=06f1ff70 iopl=0         nv up ei pl zr na pe nc
cs=0023  ss=002b  ds=002b  es=002b  fs=0053  gs=002b             efl=00000246
WS7_S7AG!S7AG_IsTIAPortalStarted$qqsv+0x6f992:
035ed2ca c60001          mov     byte ptr [eax],1           ds:002b:03624e3c=01
eax=03624e3c ebx=03624ecc ecx=74276ea4 edx=00000000 esi=00000000 edi=03624eb4
eip=035ed2cd esp=06f1ff58 ebp=06f1ff70 iopl=0         nv up ei pl zr na pe nc
cs=0023  ss=002b  ds=002b  es=002b  fs=0053  gs=002b             efl=00000246
WS7_S7AG!S7AG_IsTIAPortalStarted$qqsv+0x6f995:
035ed2cd 803b00          cmp     byte ptr [ebx],0           ds:002b:03624ecc=00
eax=03624e3c ebx=03624ecc ecx=74276ea4 edx=00000000 esi=00000000 edi=03624eb4
eip=035ed2d0 esp=06f1ff58 ebp=06f1ff70 iopl=0         nv up ei pl zr na pe nc
cs=0023  ss=002b  ds=002b  es=002b  fs=0053  gs=002b             efl=00000246
WS7_S7AG!S7AG_IsTIAPortalStarted$qqsv+0x6f998:
035ed2d0 7405            je      WS7_S7AG!S7AG_IsTIAPortalStarted$qqsv+0x6f99f (035ed2d7) [br=1]
eax=03624e3c ebx=03624ecc ecx=74276ea4 edx=00000000 esi=00000000 edi=03624eb4
eip=035ed2d7 esp=06f1ff58 ebp=06f1ff70 iopl=0         nv up ei pl zr na pe nc
cs=0023  ss=002b  ds=002b  es=002b  fs=0053  gs=002b             efl=00000246
WS7_S7AG!S7AG_IsTIAPortalStarted$qqsv+0x6f99f:
035ed2d7 8bd6            mov     edx,esi
eax=03624e3c ebx=03624ecc ecx=74276ea4 edx=00000000 esi=00000000 edi=03624eb4
eip=035ed2d9 esp=06f1ff58 ebp=06f1ff70 iopl=0         nv up ei pl zr na pe nc
cs=0023  ss=002b  ds=002b  es=002b  fs=0053  gs=002b             efl=00000246
WS7_S7AG!S7AG_IsTIAPortalStarted$qqsv+0x6f9a1:
035ed2d9 8b0d084e6203    mov     ecx,dword ptr [WS7_S7AG!__CPPdebugHook+0x28cfc (03624e08)] ds:002b:03624e08=06460000
eax=03624e3c ebx=03624ecc ecx=06460000 edx=00000000 esi=00000000 edi=03624eb4
eip=035ed2df esp=06f1ff58 ebp=06f1ff70 iopl=0         nv up ei pl zr na pe nc
cs=0023  ss=002b  ds=002b  es=002b  fs=0053  gs=002b             efl=00000246
WS7_S7AG!S7AG_IsTIAPortalStarted$qqsv+0x6f9a7:
035ed2df c1e205          shl     edx,5
eax=03624e3c ebx=03624ecc ecx=06460000 edx=00000000 esi=00000000 edi=03624eb4
eip=035ed2e2 esp=06f1ff58 ebp=06f1ff70 iopl=0         nv up ei pl zr na pe nc
cs=0023  ss=002b  ds=002b  es=002b  fs=0053  gs=002b             efl=00000246
WS7_S7AG!S7AG_IsTIAPortalStarted$qqsv+0x6f9aa:
035ed2e2 03d6            add     edx,esi
eax=03624e3c ebx=03624ecc ecx=06460000 edx=00000000 esi=00000000 edi=03624eb4
eip=035ed2e4 esp=06f1ff58 ebp=06f1ff70 iopl=0         nv up ei pl zr na pe nc
cs=0023  ss=002b  ds=002b  es=002b  fs=0053  gs=002b             efl=00000246
WS7_S7AG!S7AG_IsTIAPortalStarted$qqsv+0x6f9ac:
035ed2e4 c645ff01        mov     byte ptr [ebp-1],1         ss:002b:06f1ff6f=01
eax=03624e3c ebx=03624ecc ecx=06460000 edx=00000000 esi=00000000 edi=03624eb4
eip=035ed2e8 esp=06f1ff58 ebp=06f1ff70 iopl=0         nv up ei pl zr na pe nc
cs=0023  ss=002b  ds=002b  es=002b  fs=0053  gs=002b             efl=00000246
WS7_S7AG!S7AG_IsTIAPortalStarted$qqsv+0x6f9b0:
035ed2e8 80bc9160765b0000 cmp     byte ptr ws7v6!DlgdownloadspFinalize+0x555c (005b7660)[ecx+edx*4],0 ds:002b:06a17660=00
eax=03624e3c ebx=03624ecc ecx=06460000 edx=00000000 esi=00000000 edi=03624eb4
eip=035ed2f0 esp=06f1ff58 ebp=06f1ff70 iopl=0         nv up ei pl zr na pe nc
cs=0023  ss=002b  ds=002b  es=002b  fs=0053  gs=002b             efl=00000246
WS7_S7AG!S7AG_IsTIAPortalStarted$qqsv+0x6f9b8:
035ed2f0 746d            je      WS7_S7AG!S7AG_IsTIAPortalStarted$qqsv+0x6fa27 (035ed35f) [br=1]
eax=03624e3c ebx=03624ecc ecx=06460000 edx=00000000 esi=00000000 edi=03624eb4
eip=035ed35f esp=06f1ff58 ebp=06f1ff70 iopl=0         nv up ei pl zr na pe nc
cs=0023  ss=002b  ds=002b  es=002b  fs=0053  gs=002b             efl=00000246
WS7_S7AG!S7AG_IsTIAPortalStarted$qqsv+0x6fa27:
035ed35f 6a01            push    1
eax=03624e3c ebx=03624ecc ecx=06460000 edx=00000000 esi=00000000 edi=03624eb4
eip=035ed361 esp=06f1ff54 ebp=06f1ff70 iopl=0         nv up ei pl zr na pe nc
cs=0023  ss=002b  ds=002b  es=002b  fs=0053  gs=002b             efl=00000246
WS7_S7AG!S7AG_IsTIAPortalStarted$qqsv+0x6fa29:
035ed361 e87edd0000      call    WS7_S7AG!S7AG_IsTIAPortalStarted$qqsv+0x7d7ac (035fb0e4)
eax=00000000 ebx=03624ecc ecx=74276ea4 edx=00000000 esi=00000000 edi=03624eb4
eip=035ed366 esp=06f1ff58 ebp=06f1ff70 iopl=0         nv up ei pl zr na pe nc
cs=0023  ss=002b  ds=002b  es=002b  fs=0053  gs=002b             efl=00000246
WS7_S7AG!S7AG_IsTIAPortalStarted$qqsv+0x6fa2e:
035ed366 807dff00        cmp     byte ptr [ebp-1],0         ss:002b:06f1ff6f=01
eax=00000000 ebx=03624ecc ecx=74276ea4 edx=00000000 esi=00000000 edi=03624eb4
eip=035ed36a esp=06f1ff58 ebp=06f1ff70 iopl=0         nv up ei pl nz na po nc
cs=0023  ss=002b  ds=002b  es=002b  fs=0053  gs=002b             efl=00000202
WS7_S7AG!S7AG_IsTIAPortalStarted$qqsv+0x6fa32:
035ed36a 7407            je      WS7_S7AG!S7AG_IsTIAPortalStarted$qqsv+0x6fa3b (035ed373) [br=0]
eax=00000000 ebx=03624ecc ecx=74276ea4 edx=00000000 esi=00000000 edi=03624eb4
eip=035ed36c esp=06f1ff58 ebp=06f1ff70 iopl=0         nv up ei pl nz na po nc
cs=0023  ss=002b  ds=002b  es=002b  fs=0053  gs=002b             efl=00000202
WS7_S7AG!S7AG_IsTIAPortalStarted$qqsv+0x6fa34:
035ed36c 6a0a            push    0Ah
eax=00000000 ebx=03624ecc ecx=74276ea4 edx=00000000 esi=00000000 edi=03624eb4
eip=035ed36e esp=06f1ff54 ebp=06f1ff70 iopl=0         nv up ei pl nz na po nc
cs=0023  ss=002b  ds=002b  es=002b  fs=0053  gs=002b             efl=00000202
WS7_S7AG!S7AG_IsTIAPortalStarted$qqsv+0x6fa36:
035ed36e e871dd0000      call    WS7_S7AG!S7AG_IsTIAPortalStarted$qqsv+0x7d7ac (035fb0e4)
eax=00000000 ebx=03624ecc ecx=74276ea4 edx=00000000 esi=00000000 edi=03624eb4
eip=035ed373 esp=06f1ff58 ebp=06f1ff70 iopl=0         nv up ei pl zr na pe nc
cs=0023  ss=002b  ds=002b  es=002b  fs=0053  gs=002b             efl=00000246
WS7_S7AG!S7AG_IsTIAPortalStarted$qqsv+0x6fa3b:
035ed373 8b45f4          mov     eax,dword ptr [ebp-0Ch] ss:002b:06f1ff64=03624ec8
eax=03624ec8 ebx=03624ecc ecx=74276ea4 edx=00000000 esi=00000000 edi=03624eb4
eip=035ed376 esp=06f1ff58 ebp=06f1ff70 iopl=0         nv up ei pl zr na pe nc
cs=0023  ss=002b  ds=002b  es=002b  fs=0053  gs=002b             efl=00000246
WS7_S7AG!S7AG_IsTIAPortalStarted$qqsv+0x6fa3e:
035ed376 c60000          mov     byte ptr [eax],0           ds:002b:03624ec8=00
eax=03624ec8 ebx=03624ecc ecx=74276ea4 edx=00000000 esi=00000000 edi=03624eb4
eip=035ed379 esp=06f1ff58 ebp=06f1ff70 iopl=0         nv up ei pl zr na pe nc
cs=0023  ss=002b  ds=002b  es=002b  fs=0053  gs=002b             efl=00000246
WS7_S7AG!S7AG_IsTIAPortalStarted$qqsv+0x6fa41:
035ed379 803b00          cmp     byte ptr [ebx],0           ds:002b:03624ecc=00
eax=03624ec8 ebx=03624ecc ecx=74276ea4 edx=00000000 esi=00000000 edi=03624eb4
eip=035ed37c esp=06f1ff58 ebp=06f1ff70 iopl=0         nv up ei pl zr na pe nc
cs=0023  ss=002b  ds=002b  es=002b  fs=0053  gs=002b             efl=00000246
WS7_S7AG!S7AG_IsTIAPortalStarted$qqsv+0x6fa44:
035ed37c 0f8445ffffff    je      WS7_S7AG!S7AG_IsTIAPortalStarted$qqsv+0x6f98f (035ed2c7) [br=1]
eax=03624ec8 ebx=03624ecc ecx=74276ea4 edx=00000000 esi=00000000 edi=03624eb4
eip=035ed2c7 esp=06f1ff58 ebp=06f1ff70 iopl=0         nv up ei pl zr na pe nc
cs=0023  ss=002b  ds=002b  es=002b  fs=0053  gs=002b             efl=00000246
WS7_S7AG!S7AG_IsTIAPortalStarted$qqsv+0x6f98f:
035ed2c7 8b45f8          mov     eax,dword ptr [ebp-8] ss:002b:06f1ff68=03624e3c
eax=03624e3c ebx=03624ecc ecx=74276ea4 edx=00000000 esi=00000000 edi=03624eb4
eip=035ed2ca esp=06f1ff58 ebp=06f1ff70 iopl=0         nv up ei pl zr na pe nc
cs=0023  ss=002b  ds=002b  es=002b  fs=0053  gs=002b             efl=00000246
WS7_S7AG!S7AG_IsTIAPortalStarted$qqsv+0x6f992:
035ed2ca c60001          mov     byte ptr [eax],1           ds:002b:03624e3c=01
eax=03624e3c ebx=03624ecc ecx=74276ea4 edx=00000000 esi=00000000 edi=03624eb4
eip=035ed2cd esp=06f1ff58 ebp=06f1ff70 iopl=0         nv up ei pl zr na pe nc
cs=0023  ss=002b  ds=002b  es=002b  fs=0053  gs=002b             efl=00000246
WS7_S7AG!S7AG_IsTIAPortalStarted$qqsv+0x6f995:
035ed2cd 803b00          cmp     byte ptr [ebx],0           ds:002b:03624ecc=00
eax=03624e3c ebx=03624ecc ecx=74276ea4 edx=00000000 esi=00000000 edi=03624eb4
eip=035ed2d0 esp=06f1ff58 ebp=06f1ff70 iopl=0         nv up ei pl zr na pe nc
cs=0023  ss=002b  ds=002b  es=002b  fs=0053  gs=002b             efl=00000246
WS7_S7AG!S7AG_IsTIAPortalStarted$qqsv+0x6f998:
035ed2d0 7405            je      WS7_S7AG!S7AG_IsTIAPortalStarted$qqsv+0x6f99f (035ed2d7) [br=1]
eax=03624e3c ebx=03624ecc ecx=74276ea4 edx=00000000 esi=00000000 edi=03624eb4
eip=035ed2d7 esp=06f1ff58 ebp=06f1ff70 iopl=0         nv up ei pl zr na pe nc
cs=0023  ss=002b  ds=002b  es=002b  fs=0053  gs=002b             efl=00000246
WS7_S7AG!S7AG_IsTIAPortalStarted$qqsv+0x6f99f:
035ed2d7 8bd6            mov     edx,esi
eax=03624e3c ebx=03624ecc ecx=74276ea4 edx=00000000 esi=00000000 edi=03624eb4
eip=035ed2d9 esp=06f1ff58 ebp=06f1ff70 iopl=0         nv up ei pl zr na pe nc
cs=0023  ss=002b  ds=002b  es=002b  fs=0053  gs=002b             efl=00000246
WS7_S7AG!S7AG_IsTIAPortalStarted$qqsv+0x6f9a1:
035ed2d9 8b0d084e6203    mov     ecx,dword ptr [WS7_S7AG!__CPPdebugHook+0x28cfc (03624e08)] ds:002b:03624e08=06460000
eax=03624e3c ebx=03624ecc ecx=06460000 edx=00000000 esi=00000000 edi=03624eb4
eip=035ed2df esp=06f1ff58 ebp=06f1ff70 iopl=0         nv up ei pl zr na pe nc
cs=0023  ss=002b  ds=002b  es=002b  fs=0053  gs=002b             efl=00000246
WS7_S7AG!S7AG_IsTIAPortalStarted$qqsv+0x6f9a7:
035ed2df c1e205          shl     edx,5
eax=03624e3c ebx=03624ecc ecx=06460000 edx=00000000 esi=00000000 edi=03624eb4
eip=035ed2e2 esp=06f1ff58 ebp=06f1ff70 iopl=0         nv up ei pl zr na pe nc
cs=0023  ss=002b  ds=002b  es=002b  fs=0053  gs=002b             efl=00000246
WS7_S7AG!S7AG_IsTIAPortalStarted$qqsv+0x6f9aa:
035ed2e2 03d6            add     edx,esi
eax=03624e3c ebx=03624ecc ecx=06460000 edx=00000000 esi=00000000 edi=03624eb4
eip=035ed2e4 esp=06f1ff58 ebp=06f1ff70 iopl=0         nv up ei pl zr na pe nc
cs=0023  ss=002b  ds=002b  es=002b  fs=0053  gs=002b             efl=00000246
WS7_S7AG!S7AG_IsTIAPortalStarted$qqsv+0x6f9ac:
035ed2e4 c645ff01        mov     byte ptr [ebp-1],1         ss:002b:06f1ff6f=01
eax=03624e3c ebx=03624ecc ecx=06460000 edx=00000000 esi=00000000 edi=03624eb4
eip=035ed2e8 esp=06f1ff58 ebp=06f1ff70 iopl=0         nv up ei pl zr na pe nc
cs=0023  ss=002b  ds=002b  es=002b  fs=0053  gs=002b             efl=00000246
WS7_S7AG!S7AG_IsTIAPortalStarted$qqsv+0x6f9b0:
035ed2e8 80bc9160765b0000 cmp     byte ptr ws7v6!DlgdownloadspFinalize+0x555c (005b7660)[ecx+edx*4],0 ds:002b:06a17660=00
eax=03624e3c ebx=03624ecc ecx=06460000 edx=00000000 esi=00000000 edi=03624eb4
eip=035ed2f0 esp=06f1ff58 ebp=06f1ff70 iopl=0         nv up ei pl zr na pe nc
cs=0023  ss=002b  ds=002b  es=002b  fs=0053  gs=002b             efl=00000246
WS7_S7AG!S7AG_IsTIAPortalStarted$qqsv+0x6f9b8:
035ed2f0 746d            je      WS7_S7AG!S7AG_IsTIAPortalStarted$qqsv+0x6fa27 (035ed35f) [br=1]
eax=03624e3c ebx=03624ecc ecx=06460000 edx=00000000 esi=00000000 edi=03624eb4
eip=035ed35f esp=06f1ff58 ebp=06f1ff70 iopl=0         nv up ei pl zr na pe nc
cs=0023  ss=002b  ds=002b  es=002b  fs=0053  gs=002b             efl=00000246
WS7_S7AG!S7AG_IsTIAPortalStarted$qqsv+0x6fa27:
035ed35f 6a01            push    1
eax=03624e3c ebx=03624ecc ecx=06460000 edx=00000000 esi=00000000 edi=03624eb4
eip=035ed361 esp=06f1ff54 ebp=06f1ff70 iopl=0         nv up ei pl zr na pe nc
cs=0023  ss=002b  ds=002b  es=002b  fs=0053  gs=002b             efl=00000246
WS7_S7AG!S7AG_IsTIAPortalStarted$qqsv+0x6fa29:
035ed361 e87edd0000      call    WS7_S7AG!S7AG_IsTIAPortalStarted$qqsv+0x7d7ac (035fb0e4)
eax=00000000 ebx=03624ecc ecx=74276ea4 edx=00000000 esi=00000000 edi=03624eb4
eip=035ed366 esp=06f1ff58 ebp=06f1ff70 iopl=0         nv up ei pl zr na pe nc
cs=0023  ss=002b  ds=002b  es=002b  fs=0053  gs=002b             efl=00000246
WS7_S7AG!S7AG_IsTIAPortalStarted$qqsv+0x6fa2e:
035ed366 807dff00        cmp     byte ptr [ebp-1],0         ss:002b:06f1ff6f=01
eax=00000000 ebx=03624ecc ecx=74276ea4 edx=00000000 esi=00000000 edi=03624eb4
eip=035ed36a esp=06f1ff58 ebp=06f1ff70 iopl=0         nv up ei pl nz na po nc
cs=0023  ss=002b  ds=002b  es=002b  fs=0053  gs=002b             efl=00000202
WS7_S7AG!S7AG_IsTIAPortalStarted$qqsv+0x6fa32:
035ed36a 7407            je      WS7_S7AG!S7AG_IsTIAPortalStarted$qqsv+0x6fa3b (035ed373) [br=0]
eax=00000000 ebx=03624ecc ecx=74276ea4 edx=00000000 esi=00000000 edi=03624eb4
eip=035ed36c esp=06f1ff58 ebp=06f1ff70 iopl=0         nv up ei pl nz na po nc
cs=0023  ss=002b  ds=002b  es=002b  fs=0053  gs=002b             efl=00000202
WS7_S7AG!S7AG_IsTIAPortalStarted$qqsv+0x6fa34:
035ed36c 6a0a            push    0Ah
eax=00000000 ebx=03624ecc ecx=74276ea4 edx=00000000 esi=00000000 edi=03624eb4
eip=035ed36e esp=06f1ff54 ebp=06f1ff70 iopl=0         nv up ei pl nz na po nc
cs=0023  ss=002b  ds=002b  es=002b  fs=0053  gs=002b             efl=00000202
WS7_S7AG!S7AG_IsTIAPortalStarted$qqsv+0x6fa36:
035ed36e e871dd0000      call    WS7_S7AG!S7AG_IsTIAPortalStarted$qqsv+0x7d7ac (035fb0e4)
eax=00000000 ebx=03624ecc ecx=74276ea4 edx=00000000 esi=00000000 edi=03624eb4
eip=035ed373 esp=06f1ff58 ebp=06f1ff70 iopl=0         nv up ei pl zr na pe nc
cs=0023  ss=002b  ds=002b  es=002b  fs=0053  gs=002b             efl=00000246
WS7_S7AG!S7AG_IsTIAPortalStarted$qqsv+0x6fa3b:
035ed373 8b45f4          mov     eax,dword ptr [ebp-0Ch] ss:002b:06f1ff64=03624ec8
eax=03624ec8 ebx=03624ecc ecx=74276ea4 edx=00000000 esi=00000000 edi=03624eb4
eip=035ed376 esp=06f1ff58 ebp=06f1ff70 iopl=0         nv up ei pl zr na pe nc
cs=0023  ss=002b  ds=002b  es=002b  fs=0053  gs=002b             efl=00000246
WS7_S7AG!S7AG_IsTIAPortalStarted$qqsv+0x6fa3e:
035ed376 c60000          mov     byte ptr [eax],0           ds:002b:03624ec8=00
eax=03624ec8 ebx=03624ecc ecx=74276ea4 edx=00000000 esi=00000000 edi=03624eb4
eip=035ed379 esp=06f1ff58 ebp=06f1ff70 iopl=0         nv up ei pl zr na pe nc
cs=0023  ss=002b  ds=002b  es=002b  fs=0053  gs=002b             efl=00000246
WS7_S7AG!S7AG_IsTIAPortalStarted$qqsv+0x6fa41:
035ed379 803b00          cmp     byte ptr [ebx],0           ds:002b:03624ecc=00
eax=03624ec8 ebx=03624ecc ecx=74276ea4 edx=00000000 esi=00000000 edi=03624eb4
eip=035ed37c esp=06f1ff58 ebp=06f1ff70 iopl=0         nv up ei pl zr na pe nc
cs=0023  ss=002b  ds=002b  es=002b  fs=0053  gs=002b             efl=00000246
WS7_S7AG!S7AG_IsTIAPortalStarted$qqsv+0x6fa44:
035ed37c 0f8445ffffff    je      WS7_S7AG!S7AG_IsTIAPortalStarted$qqsv+0x6f98f (035ed2c7) [br=1]
eax=03624ec8 ebx=03624ecc ecx=74276ea4 edx=00000000 esi=00000000 edi=03624eb4
eip=035ed2c7 esp=06f1ff58 ebp=06f1ff70 iopl=0         nv up ei pl zr na pe nc
cs=0023  ss=002b  ds=002b  es=002b  fs=0053  gs=002b             efl=00000246
WS7_S7AG!S7AG_IsTIAPortalStarted$qqsv+0x6f98f:
035ed2c7 8b45f8          mov     eax,dword ptr [ebp-8] ss:002b:06f1ff68=03624e3c
eax=03624e3c ebx=03624ecc ecx=74276ea4 edx=00000000 esi=00000000 edi=03624eb4
eip=035ed2ca esp=06f1ff58 ebp=06f1ff70 iopl=0         nv up ei pl zr na pe nc
cs=0023  ss=002b  ds=002b  es=002b  fs=0053  gs=002b             efl=00000246
WS7_S7AG!S7AG_IsTIAPortalStarted$qqsv+0x6f992:
035ed2ca c60001          mov     byte ptr [eax],1           ds:002b:03624e3c=01
eax=03624e3c ebx=03624ecc ecx=74276ea4 edx=00000000 esi=00000000 edi=03624eb4
eip=035ed2cd esp=06f1ff58 ebp=06f1ff70 iopl=0         nv up ei pl zr na pe nc
cs=0023  ss=002b  ds=002b  es=002b  fs=0053  gs=002b             efl=00000246
WS7_S7AG!S7AG_IsTIAPortalStarted$qqsv+0x6f995:
035ed2cd 803b00          cmp     byte ptr [ebx],0           ds:002b:03624ecc=00
eax=03624e3c ebx=03624ecc ecx=74276ea4 edx=00000000 esi=00000000 edi=03624eb4
eip=035ed2d0 esp=06f1ff58 ebp=06f1ff70 iopl=0         nv up ei pl zr na pe nc
cs=0023  ss=002b  ds=002b  es=002b  fs=0053  gs=002b             efl=00000246
WS7_S7AG!S7AG_IsTIAPortalStarted$qqsv+0x6f998:
035ed2d0 7405            je      WS7_S7AG!S7AG_IsTIAPortalStarted$qqsv+0x6f99f (035ed2d7) [br=1]
eax=03624e3c ebx=03624ecc ecx=74276ea4 edx=00000000 esi=00000000 edi=03624eb4
eip=035ed2d7 esp=06f1ff58 ebp=06f1ff70 iopl=0         nv up ei pl zr na pe nc
cs=0023  ss=002b  ds=002b  es=002b  fs=0053  gs=002b             efl=00000246
WS7_S7AG!S7AG_IsTIAPortalStarted$qqsv+0x6f99f:
035ed2d7 8bd6            mov     edx,esi
eax=03624e3c ebx=03624ecc ecx=74276ea4 edx=00000000 esi=00000000 edi=03624eb4
eip=035ed2d9 esp=06f1ff58 ebp=06f1ff70 iopl=0         nv up ei pl zr na pe nc
cs=0023  ss=002b  ds=002b  es=002b  fs=0053  gs=002b             efl=00000246
WS7_S7AG!S7AG_IsTIAPortalStarted$qqsv+0x6f9a1:
035ed2d9 8b0d084e6203    mov     ecx,dword ptr [WS7_S7AG!__CPPdebugHook+0x28cfc (03624e08)] ds:002b:03624e08=06460000
eax=03624e3c ebx=03624ecc ecx=06460000 edx=00000000 esi=00000000 edi=03624eb4
eip=035ed2df esp=06f1ff58 ebp=06f1ff70 iopl=0         nv up ei pl zr na pe nc
cs=0023  ss=002b  ds=002b  es=002b  fs=0053  gs=002b             efl=00000246
WS7_S7AG!S7AG_IsTIAPortalStarted$qqsv+0x6f9a7:
035ed2df c1e205          shl     edx,5
eax=03624e3c ebx=03624ecc ecx=06460000 edx=00000000 esi=00000000 edi=03624eb4
eip=035ed2e2 esp=06f1ff58 ebp=06f1ff70 iopl=0         nv up ei pl zr na pe nc
cs=0023  ss=002b  ds=002b  es=002b  fs=0053  gs=002b             efl=00000246
WS7_S7AG!S7AG_IsTIAPortalStarted$qqsv+0x6f9aa:
035ed2e2 03d6            add     edx,esi
eax=03624e3c ebx=03624ecc ecx=06460000 edx=00000000 esi=00000000 edi=03624eb4
eip=035ed2e4 esp=06f1ff58 ebp=06f1ff70 iopl=0         nv up ei pl zr na pe nc
cs=0023  ss=002b  ds=002b  es=002b  fs=0053  gs=002b             efl=00000246
WS7_S7AG!S7AG_IsTIAPortalStarted$qqsv+0x6f9ac:
035ed2e4 c645ff01        mov     byte ptr [ebp-1],1         ss:002b:06f1ff6f=01
eax=03624e3c ebx=03624ecc ecx=06460000 edx=00000000 esi=00000000 edi=03624eb4
eip=035ed2e8 esp=06f1ff58 ebp=06f1ff70 iopl=0         nv up ei pl zr na pe nc
cs=0023  ss=002b  ds=002b  es=002b  fs=0053  gs=002b             efl=00000246
WS7_S7AG!S7AG_IsTIAPortalStarted$qqsv+0x6f9b0:
035ed2e8 80bc9160765b0000 cmp     byte ptr ws7v6!DlgdownloadspFinalize+0x555c (005b7660)[ecx+edx*4],0 ds:002b:06a17660=00
eax=03624e3c ebx=03624ecc ecx=06460000 edx=00000000 esi=00000000 edi=03624eb4
eip=035ed2f0 esp=06f1ff58 ebp=06f1ff70 iopl=0         nv up ei pl zr na pe nc
cs=0023  ss=002b  ds=002b  es=002b  fs=0053  gs=002b             efl=00000246
WS7_S7AG!S7AG_IsTIAPortalStarted$qqsv+0x6f9b8:
035ed2f0 746d            je      WS7_S7AG!S7AG_IsTIAPortalStarted$qqsv+0x6fa27 (035ed35f) [br=1]
eax=03624e3c ebx=03624ecc ecx=06460000 edx=00000000 esi=00000000 edi=03624eb4
eip=035ed35f esp=06f1ff58 ebp=06f1ff70 iopl=0         nv up ei pl zr na pe nc
cs=0023  ss=002b  ds=002b  es=002b  fs=0053  gs=002b             efl=00000246
WS7_S7AG!S7AG_IsTIAPortalStarted$qqsv+0x6fa27:
035ed35f 6a01            push    1
eax=03624e3c ebx=03624ecc ecx=06460000 edx=00000000 esi=00000000 edi=03624eb4
eip=035ed361 esp=06f1ff54 ebp=06f1ff70 iopl=0         nv up ei pl zr na pe nc
cs=0023  ss=002b  ds=002b  es=002b  fs=0053  gs=002b             efl=00000246
WS7_S7AG!S7AG_IsTIAPortalStarted$qqsv+0x6fa29:
035ed361 e87edd0000      call    WS7_S7AG!S7AG_IsTIAPortalStarted$qqsv+0x7d7ac (035fb0e4)
eax=00000000 ebx=03624ecc ecx=74276ea4 edx=00000000 esi=00000000 edi=03624eb4
eip=035ed366 esp=06f1ff58 ebp=06f1ff70 iopl=0         nv up ei pl zr na pe nc
cs=0023  ss=002b  ds=002b  es=002b  fs=0053  gs=002b             efl=00000246
WS7_S7AG!S7AG_IsTIAPortalStarted$qqsv+0x6fa2e:
035ed366 807dff00        cmp     byte ptr [ebp-1],0         ss:002b:06f1ff6f=01
eax=00000000 ebx=03624ecc ecx=74276ea4 edx=00000000 esi=00000000 edi=03624eb4
eip=035ed36a esp=06f1ff58 ebp=06f1ff70 iopl=0         nv up ei pl nz na po nc
cs=0023  ss=002b  ds=002b  es=002b  fs=0053  gs=002b             efl=00000202
WS7_S7AG!S7AG_IsTIAPortalStarted$qqsv+0x6fa32:
035ed36a 7407            je      WS7_S7AG!S7AG_IsTIAPortalStarted$qqsv+0x6fa3b (035ed373) [br=0]
eax=00000000 ebx=03624ecc ecx=74276ea4 edx=00000000 esi=00000000 edi=03624eb4
eip=035ed36c esp=06f1ff58 ebp=06f1ff70 iopl=0         nv up ei pl nz na po nc
cs=0023  ss=002b  ds=002b  es=002b  fs=0053  gs=002b             efl=00000202
WS7_S7AG!S7AG_IsTIAPortalStarted$qqsv+0x6fa34:
035ed36c 6a0a            push    0Ah
eax=00000000 ebx=03624ecc ecx=74276ea4 edx=00000000 esi=00000000 edi=03624eb4
eip=035ed36e esp=06f1ff54 ebp=06f1ff70 iopl=0         nv up ei pl nz na po nc
cs=0023  ss=002b  ds=002b  es=002b  fs=0053  gs=002b             efl=00000202
WS7_S7AG!S7AG_IsTIAPortalStarted$qqsv+0x6fa36:
035ed36e e871dd0000      call    WS7_S7AG!S7AG_IsTIAPortalStarted$qqsv+0x7d7ac (035fb0e4)
eax=00000000 ebx=03624ecc ecx=74276ea4 edx=00000000 esi=00000000 edi=03624eb4
eip=035ed373 esp=06f1ff58 ebp=06f1ff70 iopl=0         nv up ei pl zr na pe nc
cs=0023  ss=002b  ds=002b  es=002b  fs=0053  gs=002b             efl=00000246
WS7_S7AG!S7AG_IsTIAPortalStarted$qqsv+0x6fa3b:
035ed373 8b45f4          mov     eax,dword ptr [ebp-0Ch] ss:002b:06f1ff64=03624ec8
eax=03624ec8 ebx=03624ecc ecx=74276ea4 edx=00000000 esi=00000000 edi=03624eb4
eip=035ed376 esp=06f1ff58 ebp=06f1ff70 iopl=0         nv up ei pl zr na pe nc
cs=0023  ss=002b  ds=002b  es=002b  fs=0053  gs=002b             efl=00000246
WS7_S7AG!S7AG_IsTIAPortalStarted$qqsv+0x6fa3e:
035ed376 c60000          mov     byte ptr [eax],0           ds:002b:03624ec8=00
eax=03624ec8 ebx=03624ecc ecx=74276ea4 edx=00000000 esi=00000000 edi=03624eb4
eip=035ed379 esp=06f1ff58 ebp=06f1ff70 iopl=0         nv up ei pl zr na pe nc
cs=0023  ss=002b  ds=002b  es=002b  fs=0053  gs=002b             efl=00000246
WS7_S7AG!S7AG_IsTIAPortalStarted$qqsv+0x6fa41:
035ed379 803b00          cmp     byte ptr [ebx],0           ds:002b:03624ecc=00
eax=03624ec8 ebx=03624ecc ecx=74276ea4 edx=00000000 esi=00000000 edi=03624eb4
eip=035ed37c esp=06f1ff58 ebp=06f1ff70 iopl=0         nv up ei pl zr na pe nc
cs=0023  ss=002b  ds=002b  es=002b  fs=0053  gs=002b             efl=00000246
WS7_S7AG!S7AG_IsTIAPortalStarted$qqsv+0x6fa44:
035ed37c 0f8445ffffff    je      WS7_S7AG!S7AG_IsTIAPortalStarted$qqsv+0x6f98f (035ed2c7) [br=1]
eax=03624ec8 ebx=03624ecc ecx=74276ea4 edx=00000000 esi=00000000 edi=03624eb4
eip=035ed2c7 esp=06f1ff58 ebp=06f1ff70 iopl=0         nv up ei pl zr na pe nc
cs=0023  ss=002b  ds=002b  es=002b  fs=0053  gs=002b             efl=00000246
WS7_S7AG!S7AG_IsTIAPortalStarted$qqsv+0x6f98f:
035ed2c7 8b45f8          mov     eax,dword ptr [ebp-8] ss:002b:06f1ff68=03624e3c
eax=03624e3c ebx=03624ecc ecx=74276ea4 edx=00000000 esi=00000000 edi=03624eb4
eip=035ed2ca esp=06f1ff58 ebp=06f1ff70 iopl=0         nv up ei pl zr na pe nc
cs=0023  ss=002b  ds=002b  es=002b  fs=0053  gs=002b             efl=00000246
WS7_S7AG!S7AG_IsTIAPortalStarted$qqsv+0x6f992:
035ed2ca c60001          mov     byte ptr [eax],1           ds:002b:03624e3c=01
eax=03624e3c ebx=03624ecc ecx=74276ea4 edx=00000000 esi=00000000 edi=03624eb4
eip=035ed2cd esp=06f1ff58 ebp=06f1ff70 iopl=0         nv up ei pl zr na pe nc
cs=0023  ss=002b  ds=002b  es=002b  fs=0053  gs=002b             efl=00000246
WS7_S7AG!S7AG_IsTIAPortalStarted$qqsv+0x6f995:
035ed2cd 803b00          cmp     byte ptr [ebx],0           ds:002b:03624ecc=00
eax=03624e3c ebx=03624ecc ecx=74276ea4 edx=00000000 esi=00000000 edi=03624eb4
eip=035ed2d0 esp=06f1ff58 ebp=06f1ff70 iopl=0         nv up ei pl zr na pe nc
cs=0023  ss=002b  ds=002b  es=002b  fs=0053  gs=002b             efl=00000246
WS7_S7AG!S7AG_IsTIAPortalStarted$qqsv+0x6f998:
035ed2d0 7405            je      WS7_S7AG!S7AG_IsTIAPortalStarted$qqsv+0x6f99f (035ed2d7) [br=1]
eax=03624e3c ebx=03624ecc ecx=74276ea4 edx=00000000 esi=00000000 edi=03624eb4
eip=035ed2d7 esp=06f1ff58 ebp=06f1ff70 iopl=0         nv up ei pl zr na pe nc
cs=0023  ss=002b  ds=002b  es=002b  fs=0053  gs=002b             efl=00000246
WS7_S7AG!S7AG_IsTIAPortalStarted$qqsv+0x6f99f:
035ed2d7 8bd6            mov     edx,esi
eax=03624e3c ebx=03624ecc ecx=74276ea4 edx=00000000 esi=00000000 edi=03624eb4
eip=035ed2d9 esp=06f1ff58 ebp=06f1ff70 iopl=0         nv up ei pl zr na pe nc
cs=0023  ss=002b  ds=002b  es=002b  fs=0053  gs=002b             efl=00000246
WS7_S7AG!S7AG_IsTIAPortalStarted$qqsv+0x6f9a1:
035ed2d9 8b0d084e6203    mov     ecx,dword ptr [WS7_S7AG!__CPPdebugHook+0x28cfc (03624e08)] ds:002b:03624e08=06460000
eax=03624e3c ebx=03624ecc ecx=06460000 edx=00000000 esi=00000000 edi=03624eb4
eip=035ed2df esp=06f1ff58 ebp=06f1ff70 iopl=0         nv up ei pl zr na pe nc
cs=0023  ss=002b  ds=002b  es=002b  fs=0053  gs=002b             efl=00000246
WS7_S7AG!S7AG_IsTIAPortalStarted$qqsv+0x6f9a7:
035ed2df c1e205          shl     edx,5
eax=03624e3c ebx=03624ecc ecx=06460000 edx=00000000 esi=00000000 edi=03624eb4
eip=035ed2e2 esp=06f1ff58 ebp=06f1ff70 iopl=0         nv up ei pl zr na pe nc
cs=0023  ss=002b  ds=002b  es=002b  fs=0053  gs=002b             efl=00000246
WS7_S7AG!S7AG_IsTIAPortalStarted$qqsv+0x6f9aa:
035ed2e2 03d6            add     edx,esi
eax=03624e3c ebx=03624ecc ecx=06460000 edx=00000000 esi=00000000 edi=03624eb4
eip=035ed2e4 esp=06f1ff58 ebp=06f1ff70 iopl=0         nv up ei pl zr na pe nc
cs=0023  ss=002b  ds=002b  es=002b  fs=0053  gs=002b             efl=00000246
WS7_S7AG!S7AG_IsTIAPortalStarted$qqsv+0x6f9ac:
035ed2e4 c645ff01        mov     byte ptr [ebp-1],1         ss:002b:06f1ff6f=01
eax=03624e3c ebx=03624ecc ecx=06460000 edx=00000000 esi=00000000 edi=03624eb4
eip=035ed2e8 esp=06f1ff58 ebp=06f1ff70 iopl=0         nv up ei pl zr na pe nc
cs=0023  ss=002b  ds=002b  es=002b  fs=0053  gs=002b             efl=00000246
WS7_S7AG!S7AG_IsTIAPortalStarted$qqsv+0x6f9b0:
035ed2e8 80bc9160765b0000 cmp     byte ptr ws7v6!DlgdownloadspFinalize+0x555c (005b7660)[ecx+edx*4],0 ds:002b:06a17660=00
eax=03624e3c ebx=03624ecc ecx=06460000 edx=00000000 esi=00000000 edi=03624eb4
eip=035ed2f0 esp=06f1ff58 ebp=06f1ff70 iopl=0         nv up ei pl zr na pe nc
cs=0023  ss=002b  ds=002b  es=002b  fs=0053  gs=002b             efl=00000246
WS7_S7AG!S7AG_IsTIAPortalStarted$qqsv+0x6f9b8:
035ed2f0 746d            je      WS7_S7AG!S7AG_IsTIAPortalStarted$qqsv+0x6fa27 (035ed35f) [br=1]
eax=03624e3c ebx=03624ecc ecx=06460000 edx=00000000 esi=00000000 edi=03624eb4
eip=035ed35f esp=06f1ff58 ebp=06f1ff70 iopl=0         nv up ei pl zr na pe nc
cs=0023  ss=002b  ds=002b  es=002b  fs=0053  gs=002b             efl=00000246
WS7_S7AG!S7AG_IsTIAPortalStarted$qqsv+0x6fa27:
035ed35f 6a01            push    1
eax=03624e3c ebx=03624ecc ecx=06460000 edx=00000000 esi=00000000 edi=03624eb4
eip=035ed361 esp=06f1ff54 ebp=06f1ff70 iopl=0         nv up ei pl zr na pe nc
cs=0023  ss=002b  ds=002b  es=002b  fs=0053  gs=002b             efl=00000246
WS7_S7AG!S7AG_IsTIAPortalStarted$qqsv+0x6fa29:
035ed361 e87edd0000      call    WS7_S7AG!S7AG_IsTIAPortalStarted$qqsv+0x7d7ac (035fb0e4)
eax=00000000 ebx=03624ecc ecx=74276ea4 edx=00000000 esi=00000000 edi=03624eb4
eip=035ed366 esp=06f1ff58 ebp=06f1ff70 iopl=0         nv up ei pl zr na pe nc
cs=0023  ss=002b  ds=002b  es=002b  fs=0053  gs=002b             efl=00000246
WS7_S7AG!S7AG_IsTIAPortalStarted$qqsv+0x6fa2e:
035ed366 807dff00        cmp     byte ptr [ebp-1],0         ss:002b:06f1ff6f=01
eax=00000000 ebx=03624ecc ecx=74276ea4 edx=00000000 esi=00000000 edi=03624eb4
eip=035ed36a esp=06f1ff58 ebp=06f1ff70 iopl=0         nv up ei pl nz na po nc
cs=0023  ss=002b  ds=002b  es=002b  fs=0053  gs=002b             efl=00000202
WS7_S7AG!S7AG_IsTIAPortalStarted$qqsv+0x6fa32:
035ed36a 7407            je      WS7_S7AG!S7AG_IsTIAPortalStarted$qqsv+0x6fa3b (035ed373) [br=0]
eax=00000000 ebx=03624ecc ecx=74276ea4 edx=00000000 esi=00000000 edi=03624eb4
eip=035ed36c esp=06f1ff58 ebp=06f1ff70 iopl=0         nv up ei pl nz na po nc
cs=0023  ss=002b  ds=002b  es=002b  fs=0053  gs=002b             efl=00000202
WS7_S7AG!S7AG_IsTIAPortalStarted$qqsv+0x6fa34:
035ed36c 6a0a            push    0Ah
eax=00000000 ebx=03624ecc ecx=74276ea4 edx=00000000 esi=00000000 edi=03624eb4
eip=035ed36e esp=06f1ff54 ebp=06f1ff70 iopl=0         nv up ei pl nz na po nc
cs=0023  ss=002b  ds=002b  es=002b  fs=0053  gs=002b             efl=00000202
WS7_S7AG!S7AG_IsTIAPortalStarted$qqsv+0x6fa36:
035ed36e e871dd0000      call    WS7_S7AG!S7AG_IsTIAPortalStarted$qqsv+0x7d7ac (035fb0e4)
eax=00000000 ebx=03624ecc ecx=74276ea4 edx=00000000 esi=00000000 edi=03624eb4
eip=035ed373 esp=06f1ff58 ebp=06f1ff70 iopl=0         nv up ei pl zr na pe nc
cs=0023  ss=002b  ds=002b  es=002b  fs=0053  gs=002b             efl=00000246
WS7_S7AG!S7AG_IsTIAPortalStarted$qqsv+0x6fa3b:
035ed373 8b45f4          mov     eax,dword ptr [ebp-0Ch] ss:002b:06f1ff64=03624ec8
eax=03624ec8 ebx=03624ecc ecx=74276ea4 edx=00000000 esi=00000000 edi=03624eb4
eip=035ed376 esp=06f1ff58 ebp=06f1ff70 iopl=0         nv up ei pl zr na pe nc
cs=0023  ss=002b  ds=002b  es=002b  fs=0053  gs=002b             efl=00000246
WS7_S7AG!S7AG_IsTIAPortalStarted$qqsv+0x6fa3e:
035ed376 c60000          mov     byte ptr [eax],0           ds:002b:03624ec8=00
eax=03624ec8 ebx=03624ecc ecx=74276ea4 edx=00000000 esi=00000000 edi=03624eb4
eip=035ed379 esp=06f1ff58 ebp=06f1ff70 iopl=0         nv up ei pl zr na pe nc
cs=0023  ss=002b  ds=002b  es=002b  fs=0053  gs=002b             efl=00000246
WS7_S7AG!S7AG_IsTIAPortalStarted$qqsv+0x6fa41:
035ed379 803b00          cmp     byte ptr [ebx],0           ds:002b:03624ecc=00
eax=03624ec8 ebx=03624ecc ecx=74276ea4 edx=00000000 esi=00000000 edi=03624eb4
eip=035ed37c esp=06f1ff58 ebp=06f1ff70 iopl=0         nv up ei pl zr na pe nc
cs=0023  ss=002b  ds=002b  es=002b  fs=0053  gs=002b             efl=00000246
WS7_S7AG!S7AG_IsTIAPortalStarted$qqsv+0x6fa44:
035ed37c 0f8445ffffff    je      WS7_S7AG!S7AG_IsTIAPortalStarted$qqsv+0x6f98f (035ed2c7) [br=1]
eax=03624ec8 ebx=03624ecc ecx=74276ea4 edx=00000000 esi=00000000 edi=03624eb4
eip=035ed2c7 esp=06f1ff58 ebp=06f1ff70 iopl=0         nv up ei pl zr na pe nc
cs=0023  ss=002b  ds=002b  es=002b  fs=0053  gs=002b             efl=00000246
WS7_S7AG!S7AG_IsTIAPortalStarted$qqsv+0x6f98f:
035ed2c7 8b45f8          mov     eax,dword ptr [ebp-8] ss:002b:06f1ff68=03624e3c
eax=03624e3c ebx=03624ecc ecx=74276ea4 edx=00000000 esi=00000000 edi=03624eb4
eip=035ed2ca esp=06f1ff58 ebp=06f1ff70 iopl=0         nv up ei pl zr na pe nc
cs=0023  ss=002b  ds=002b  es=002b  fs=0053  gs=002b             efl=00000246
WS7_S7AG!S7AG_IsTIAPortalStarted$qqsv+0x6f992:
035ed2ca c60001          mov     byte ptr [eax],1           ds:002b:03624e3c=01
eax=03624e3c ebx=03624ecc ecx=74276ea4 edx=00000000 esi=00000000 edi=03624eb4
eip=035ed2cd esp=06f1ff58 ebp=06f1ff70 iopl=0         nv up ei pl zr na pe nc
cs=0023  ss=002b  ds=002b  es=002b  fs=0053  gs=002b             efl=00000246
WS7_S7AG!S7AG_IsTIAPortalStarted$qqsv+0x6f995:
035ed2cd 803b00          cmp     byte ptr [ebx],0           ds:002b:03624ecc=00
eax=03624e3c ebx=03624ecc ecx=74276ea4 edx=00000000 esi=00000000 edi=03624eb4
eip=035ed2d0 esp=06f1ff58 ebp=06f1ff70 iopl=0         nv up ei pl zr na pe nc
cs=0023  ss=002b  ds=002b  es=002b  fs=0053  gs=002b             efl=00000246
WS7_S7AG!S7AG_IsTIAPortalStarted$qqsv+0x6f998:
035ed2d0 7405            je      WS7_S7AG!S7AG_IsTIAPortalStarted$qqsv+0x6f99f (035ed2d7) [br=1]
eax=03624e3c ebx=03624ecc ecx=74276ea4 edx=00000000 esi=00000000 edi=03624eb4
eip=035ed2d7 esp=06f1ff58 ebp=06f1ff70 iopl=0         nv up ei pl zr na pe nc
cs=0023  ss=002b  ds=002b  es=002b  fs=0053  gs=002b             efl=00000246
WS7_S7AG!S7AG_IsTIAPortalStarted$qqsv+0x6f99f:
035ed2d7 8bd6            mov     edx,esi
eax=03624e3c ebx=03624ecc ecx=74276ea4 edx=00000000 esi=00000000 edi=03624eb4
eip=035ed2d9 esp=06f1ff58 ebp=06f1ff70 iopl=0         nv up ei pl zr na pe nc
cs=0023  ss=002b  ds=002b  es=002b  fs=0053  gs=002b             efl=00000246
WS7_S7AG!S7AG_IsTIAPortalStarted$qqsv+0x6f9a1:
035ed2d9 8b0d084e6203    mov     ecx,dword ptr [WS7_S7AG!__CPPdebugHook+0x28cfc (03624e08)] ds:002b:03624e08=06460000
eax=03624e3c ebx=03624ecc ecx=06460000 edx=00000000 esi=00000000 edi=03624eb4
eip=035ed2df esp=06f1ff58 ebp=06f1ff70 iopl=0         nv up ei pl zr na pe nc
cs=0023  ss=002b  ds=002b  es=002b  fs=0053  gs=002b             efl=00000246
WS7_S7AG!S7AG_IsTIAPortalStarted$qqsv+0x6f9a7:
035ed2df c1e205          shl     edx,5
eax=03624e3c ebx=03624ecc ecx=06460000 edx=00000000 esi=00000000 edi=03624eb4
eip=035ed2e2 esp=06f1ff58 ebp=06f1ff70 iopl=0         nv up ei pl zr na pe nc
cs=0023  ss=002b  ds=002b  es=002b  fs=0053  gs=002b             efl=00000246
WS7_S7AG!S7AG_IsTIAPortalStarted$qqsv+0x6f9aa:
035ed2e2 03d6            add     edx,esi
eax=03624e3c ebx=03624ecc ecx=06460000 edx=00000000 esi=00000000 edi=03624eb4
eip=035ed2e4 esp=06f1ff58 ebp=06f1ff70 iopl=0         nv up ei pl zr na pe nc
cs=0023  ss=002b  ds=002b  es=002b  fs=0053  gs=002b             efl=00000246
WS7_S7AG!S7AG_IsTIAPortalStarted$qqsv+0x6f9ac:
035ed2e4 c645ff01        mov     byte ptr [ebp-1],1         ss:002b:06f1ff6f=01
eax=03624e3c ebx=03624ecc ecx=06460000 edx=00000000 esi=00000000 edi=03624eb4
eip=035ed2e8 esp=06f1ff58 ebp=06f1ff70 iopl=0         nv up ei pl zr na pe nc
cs=0023  ss=002b  ds=002b  es=002b  fs=0053  gs=002b             efl=00000246
WS7_S7AG!S7AG_IsTIAPortalStarted$qqsv+0x6f9b0:
035ed2e8 80bc9160765b0000 cmp     byte ptr ws7v6!DlgdownloadspFinalize+0x555c (005b7660)[ecx+edx*4],0 ds:002b:06a17660=00
eax=03624e3c ebx=03624ecc ecx=06460000 edx=00000000 esi=00000000 edi=03624eb4
eip=035ed2f0 esp=06f1ff58 ebp=06f1ff70 iopl=0         nv up ei pl zr na pe nc
cs=0023  ss=002b  ds=002b  es=002b  fs=0053  gs=002b             efl=00000246
WS7_S7AG!S7AG_IsTIAPortalStarted$qqsv+0x6f9b8:
035ed2f0 746d            je      WS7_S7AG!S7AG_IsTIAPortalStarted$qqsv+0x6fa27 (035ed35f) [br=1]
eax=03624e3c ebx=03624ecc ecx=06460000 edx=00000000 esi=00000000 edi=03624eb4
eip=035ed35f esp=06f1ff58 ebp=06f1ff70 iopl=0         nv up ei pl zr na pe nc
cs=0023  ss=002b  ds=002b  es=002b  fs=0053  gs=002b             efl=00000246
WS7_S7AG!S7AG_IsTIAPortalStarted$qqsv+0x6fa27:
035ed35f 6a01            push    1
eax=03624e3c ebx=03624ecc ecx=06460000 edx=00000000 esi=00000000 edi=03624eb4
eip=035ed361 esp=06f1ff54 ebp=06f1ff70 iopl=0         nv up ei pl zr na pe nc
cs=0023  ss=002b  ds=002b  es=002b  fs=0053  gs=002b             efl=00000246
WS7_S7AG!S7AG_IsTIAPortalStarted$qqsv+0x6fa29:
035ed361 e87edd0000      call    WS7_S7AG!S7AG_IsTIAPortalStarted$qqsv+0x7d7ac (035fb0e4)
ModLoad: 6fa60000 6fab2000   C:\WINDOWS\SYSTEM32\mswsock.dll
eax=00000000 ebx=03624ecc ecx=74276ea4 edx=00000000 esi=00000000 edi=03624eb4
eip=035ed366 esp=06f1ff58 ebp=06f1ff70 iopl=0         nv up ei pl zr na pe nc
cs=0023  ss=002b  ds=002b  es=002b  fs=0053  gs=002b             efl=00000246
WS7_S7AG!S7AG_IsTIAPortalStarted$qqsv+0x6fa2e:
035ed366 807dff00        cmp     byte ptr [ebp-1],0         ss:002b:06f1ff6f=01
eax=00000000 ebx=03624ecc ecx=74276ea4 edx=00000000 esi=00000000 edi=03624eb4
eip=035ed36a esp=06f1ff58 ebp=06f1ff70 iopl=0         nv up ei pl nz na po nc
cs=0023  ss=002b  ds=002b  es=002b  fs=0053  gs=002b             efl=00000202
WS7_S7AG!S7AG_IsTIAPortalStarted$qqsv+0x6fa32:
035ed36a 7407            je      WS7_S7AG!S7AG_IsTIAPortalStarted$qqsv+0x6fa3b (035ed373) [br=0]
eax=00000000 ebx=03624ecc ecx=74276ea4 edx=00000000 esi=00000000 edi=03624eb4
eip=035ed36c esp=06f1ff58 ebp=06f1ff70 iopl=0         nv up ei pl nz na po nc
cs=0023  ss=002b  ds=002b  es=002b  fs=0053  gs=002b             efl=00000202
WS7_S7AG!S7AG_IsTIAPortalStarted$qqsv+0x6fa34:
035ed36c 6a0a            push    0Ah
eax=00000000 ebx=03624ecc ecx=74276ea4 edx=00000000 esi=00000000 edi=03624eb4
eip=035ed36e esp=06f1ff54 ebp=06f1ff70 iopl=0         nv up ei pl nz na po nc
cs=0023  ss=002b  ds=002b  es=002b  fs=0053  gs=002b             efl=00000202
WS7_S7AG!S7AG_IsTIAPortalStarted$qqsv+0x6fa36:
035ed36e e871dd0000      call    WS7_S7AG!S7AG_IsTIAPortalStarted$qqsv+0x7d7ac (035fb0e4)
eax=00000000 ebx=03624ecc ecx=74276ea4 edx=00000000 esi=00000000 edi=03624eb4
eip=035ed373 esp=06f1ff58 ebp=06f1ff70 iopl=0         nv up ei pl zr na pe nc
cs=0023  ss=002b  ds=002b  es=002b  fs=0053  gs=002b             efl=00000246
WS7_S7AG!S7AG_IsTIAPortalStarted$qqsv+0x6fa3b:
035ed373 8b45f4          mov     eax,dword ptr [ebp-0Ch] ss:002b:06f1ff64=03624ec8
eax=03624ec8 ebx=03624ecc ecx=74276ea4 edx=00000000 esi=00000000 edi=03624eb4
eip=035ed376 esp=06f1ff58 ebp=06f1ff70 iopl=0         nv up ei pl zr na pe nc
cs=0023  ss=002b  ds=002b  es=002b  fs=0053  gs=002b             efl=00000246
WS7_S7AG!S7AG_IsTIAPortalStarted$qqsv+0x6fa3e:
035ed376 c60000          mov     byte ptr [eax],0           ds:002b:03624ec8=00
eax=03624ec8 ebx=03624ecc ecx=74276ea4 edx=00000000 esi=00000000 edi=03624eb4
eip=035ed379 esp=06f1ff58 ebp=06f1ff70 iopl=0         nv up ei pl zr na pe nc
cs=0023  ss=002b  ds=002b  es=002b  fs=0053  gs=002b             efl=00000246
WS7_S7AG!S7AG_IsTIAPortalStarted$qqsv+0x6fa41:
035ed379 803b00          cmp     byte ptr [ebx],0           ds:002b:03624ecc=00
eax=03624ec8 ebx=03624ecc ecx=74276ea4 edx=00000000 esi=00000000 edi=03624eb4
eip=035ed37c esp=06f1ff58 ebp=06f1ff70 iopl=0         nv up ei pl zr na pe nc
cs=0023  ss=002b  ds=002b  es=002b  fs=0053  gs=002b             efl=00000246
WS7_S7AG!S7AG_IsTIAPortalStarted$qqsv+0x6fa44:
035ed37c 0f8445ffffff    je      WS7_S7AG!S7AG_IsTIAPortalStarted$qqsv+0x6f98f (035ed2c7) [br=1]
eax=03624ec8 ebx=03624ecc ecx=74276ea4 edx=00000000 esi=00000000 edi=03624eb4
eip=035ed2c7 esp=06f1ff58 ebp=06f1ff70 iopl=0         nv up ei pl zr na pe nc
cs=0023  ss=002b  ds=002b  es=002b  fs=0053  gs=002b             efl=00000246
WS7_S7AG!S7AG_IsTIAPortalStarted$qqsv+0x6f98f:
035ed2c7 8b45f8          mov     eax,dword ptr [ebp-8] ss:002b:06f1ff68=03624e3c
eax=03624e3c ebx=03624ecc ecx=74276ea4 edx=00000000 esi=00000000 edi=03624eb4
eip=035ed2ca esp=06f1ff58 ebp=06f1ff70 iopl=0         nv up ei pl zr na pe nc
cs=0023  ss=002b  ds=002b  es=002b  fs=0053  gs=002b             efl=00000246
WS7_S7AG!S7AG_IsTIAPortalStarted$qqsv+0x6f992:
035ed2ca c60001          mov     byte ptr [eax],1           ds:002b:03624e3c=01
eax=03624e3c ebx=03624ecc ecx=74276ea4 edx=00000000 esi=00000000 edi=03624eb4
eip=035ed2cd esp=06f1ff58 ebp=06f1ff70 iopl=0         nv up ei pl zr na pe nc
cs=0023  ss=002b  ds=002b  es=002b  fs=0053  gs=002b             efl=00000246
WS7_S7AG!S7AG_IsTIAPortalStarted$qqsv+0x6f995:
035ed2cd 803b00          cmp     byte ptr [ebx],0           ds:002b:03624ecc=00
eax=03624e3c ebx=03624ecc ecx=74276ea4 edx=00000000 esi=00000000 edi=03624eb4
eip=035ed2d0 esp=06f1ff58 ebp=06f1ff70 iopl=0         nv up ei pl zr na pe nc
cs=0023  ss=002b  ds=002b  es=002b  fs=0053  gs=002b             efl=00000246
WS7_S7AG!S7AG_IsTIAPortalStarted$qqsv+0x6f998:
035ed2d0 7405            je      WS7_S7AG!S7AG_IsTIAPortalStarted$qqsv+0x6f99f (035ed2d7) [br=1]
eax=03624e3c ebx=03624ecc ecx=74276ea4 edx=00000000 esi=00000000 edi=03624eb4
eip=035ed2d7 esp=06f1ff58 ebp=06f1ff70 iopl=0         nv up ei pl zr na pe nc
cs=0023  ss=002b  ds=002b  es=002b  fs=0053  gs=002b             efl=00000246
WS7_S7AG!S7AG_IsTIAPortalStarted$qqsv+0x6f99f:
035ed2d7 8bd6            mov     edx,esi
eax=03624e3c ebx=03624ecc ecx=74276ea4 edx=00000000 esi=00000000 edi=03624eb4
eip=035ed2d9 esp=06f1ff58 ebp=06f1ff70 iopl=0         nv up ei pl zr na pe nc
cs=0023  ss=002b  ds=002b  es=002b  fs=0053  gs=002b             efl=00000246
WS7_S7AG!S7AG_IsTIAPortalStarted$qqsv+0x6f9a1:
035ed2d9 8b0d084e6203    mov     ecx,dword ptr [WS7_S7AG!__CPPdebugHook+0x28cfc (03624e08)] ds:002b:03624e08=06460000
eax=03624e3c ebx=03624ecc ecx=06460000 edx=00000000 esi=00000000 edi=03624eb4
eip=035ed2df esp=06f1ff58 ebp=06f1ff70 iopl=0         nv up ei pl zr na pe nc
cs=0023  ss=002b  ds=002b  es=002b  fs=0053  gs=002b             efl=00000246
WS7_S7AG!S7AG_IsTIAPortalStarted$qqsv+0x6f9a7:
035ed2df c1e205          shl     edx,5
eax=03624e3c ebx=03624ecc ecx=06460000 edx=00000000 esi=00000000 edi=03624eb4
eip=035ed2e2 esp=06f1ff58 ebp=06f1ff70 iopl=0         nv up ei pl zr na pe nc
cs=0023  ss=002b  ds=002b  es=002b  fs=0053  gs=002b             efl=00000246
WS7_S7AG!S7AG_IsTIAPortalStarted$qqsv+0x6f9aa:
035ed2e2 03d6            add     edx,esi
eax=03624e3c ebx=03624ecc ecx=06460000 edx=00000000 esi=00000000 edi=03624eb4
eip=035ed2e4 esp=06f1ff58 ebp=06f1ff70 iopl=0         nv up ei pl zr na pe nc
cs=0023  ss=002b  ds=002b  es=002b  fs=0053  gs=002b             efl=00000246
WS7_S7AG!S7AG_IsTIAPortalStarted$qqsv+0x6f9ac:
035ed2e4 c645ff01        mov     byte ptr [ebp-1],1         ss:002b:06f1ff6f=01
eax=03624e3c ebx=03624ecc ecx=06460000 edx=00000000 esi=00000000 edi=03624eb4
eip=035ed2e8 esp=06f1ff58 ebp=06f1ff70 iopl=0         nv up ei pl zr na pe nc
cs=0023  ss=002b  ds=002b  es=002b  fs=0053  gs=002b             efl=00000246
WS7_S7AG!S7AG_IsTIAPortalStarted$qqsv+0x6f9b0:
035ed2e8 80bc9160765b0000 cmp     byte ptr ws7v6!DlgdownloadspFinalize+0x555c (005b7660)[ecx+edx*4],0 ds:002b:06a17660=00
eax=03624e3c ebx=03624ecc ecx=06460000 edx=00000000 esi=00000000 edi=03624eb4
eip=035ed2f0 esp=06f1ff58 ebp=06f1ff70 iopl=0         nv up ei pl zr na pe nc
cs=0023  ss=002b  ds=002b  es=002b  fs=0053  gs=002b             efl=00000246
WS7_S7AG!S7AG_IsTIAPortalStarted$qqsv+0x6f9b8:
035ed2f0 746d            je      WS7_S7AG!S7AG_IsTIAPortalStarted$qqsv+0x6fa27 (035ed35f) [br=1]
eax=03624e3c ebx=03624ecc ecx=06460000 edx=00000000 esi=00000000 edi=03624eb4
eip=035ed35f esp=06f1ff58 ebp=06f1ff70 iopl=0         nv up ei pl zr na pe nc
cs=0023  ss=002b  ds=002b  es=002b  fs=0053  gs=002b             efl=00000246
WS7_S7AG!S7AG_IsTIAPortalStarted$qqsv+0x6fa27:
035ed35f 6a01            push    1
eax=03624e3c ebx=03624ecc ecx=06460000 edx=00000000 esi=00000000 edi=03624eb4
eip=035ed361 esp=06f1ff54 ebp=06f1ff70 iopl=0         nv up ei pl zr na pe nc
cs=0023  ss=002b  ds=002b  es=002b  fs=0053  gs=002b             efl=00000246
WS7_S7AG!S7AG_IsTIAPortalStarted$qqsv+0x6fa29:
035ed361 e87edd0000      call    WS7_S7AG!S7AG_IsTIAPortalStarted$qqsv+0x7d7ac (035fb0e4)
eax=00000000 ebx=03624ecc ecx=74276ea4 edx=00000000 esi=00000000 edi=03624eb4
eip=035ed366 esp=06f1ff58 ebp=06f1ff70 iopl=0         nv up ei pl zr na pe nc
cs=0023  ss=002b  ds=002b  es=002b  fs=0053  gs=002b             efl=00000246
WS7_S7AG!S7AG_IsTIAPortalStarted$qqsv+0x6fa2e:
035ed366 807dff00        cmp     byte ptr [ebp-1],0         ss:002b:06f1ff6f=01
eax=00000000 ebx=03624ecc ecx=74276ea4 edx=00000000 esi=00000000 edi=03624eb4
eip=035ed36a esp=06f1ff58 ebp=06f1ff70 iopl=0         nv up ei pl nz na po nc
cs=0023  ss=002b  ds=002b  es=002b  fs=0053  gs=002b             efl=00000202
WS7_S7AG!S7AG_IsTIAPortalStarted$qqsv+0x6fa32:
035ed36a 7407            je      WS7_S7AG!S7AG_IsTIAPortalStarted$qqsv+0x6fa3b (035ed373) [br=0]
eax=00000000 ebx=03624ecc ecx=74276ea4 edx=00000000 esi=00000000 edi=03624eb4
eip=035ed36c esp=06f1ff58 ebp=06f1ff70 iopl=0         nv up ei pl nz na po nc
cs=0023  ss=002b  ds=002b  es=002b  fs=0053  gs=002b             efl=00000202
WS7_S7AG!S7AG_IsTIAPortalStarted$qqsv+0x6fa34:
035ed36c 6a0a            push    0Ah
eax=00000000 ebx=03624ecc ecx=74276ea4 edx=00000000 esi=00000000 edi=03624eb4
eip=035ed36e esp=06f1ff54 ebp=06f1ff70 iopl=0         nv up ei pl nz na po nc
cs=0023  ss=002b  ds=002b  es=002b  fs=0053  gs=002b             efl=00000202
WS7_S7AG!S7AG_IsTIAPortalStarted$qqsv+0x6fa36:
035ed36e e871dd0000      call    WS7_S7AG!S7AG_IsTIAPortalStarted$qqsv+0x7d7ac (035fb0e4)
eax=00000000 ebx=03624ecc ecx=74276ea4 edx=00000000 esi=00000000 edi=03624eb4
eip=035ed373 esp=06f1ff58 ebp=06f1ff70 iopl=0         nv up ei pl zr na pe nc
cs=0023  ss=002b  ds=002b  es=002b  fs=0053  gs=002b             efl=00000246
WS7_S7AG!S7AG_IsTIAPortalStarted$qqsv+0x6fa3b:
035ed373 8b45f4          mov     eax,dword ptr [ebp-0Ch] ss:002b:06f1ff64=03624ec8
eax=03624ec8 ebx=03624ecc ecx=74276ea4 edx=00000000 esi=00000000 edi=03624eb4
eip=035ed376 esp=06f1ff58 ebp=06f1ff70 iopl=0         nv up ei pl zr na pe nc
cs=0023  ss=002b  ds=002b  es=002b  fs=0053  gs=002b             efl=00000246
WS7_S7AG!S7AG_IsTIAPortalStarted$qqsv+0x6fa3e:
035ed376 c60000          mov     byte ptr [eax],0           ds:002b:03624ec8=00
eax=03624ec8 ebx=03624ecc ecx=74276ea4 edx=00000000 esi=00000000 edi=03624eb4
eip=035ed379 esp=06f1ff58 ebp=06f1ff70 iopl=0         nv up ei pl zr na pe nc
cs=0023  ss=002b  ds=002b  es=002b  fs=0053  gs=002b             efl=00000246
WS7_S7AG!S7AG_IsTIAPortalStarted$qqsv+0x6fa41:
035ed379 803b00          cmp     byte ptr [ebx],0           ds:002b:03624ecc=00
eax=03624ec8 ebx=03624ecc ecx=74276ea4 edx=00000000 esi=00000000 edi=03624eb4
eip=035ed37c esp=06f1ff58 ebp=06f1ff70 iopl=0         nv up ei pl zr na pe nc
cs=0023  ss=002b  ds=002b  es=002b  fs=0053  gs=002b             efl=00000246
WS7_S7AG!S7AG_IsTIAPortalStarted$qqsv+0x6fa44:
035ed37c 0f8445ffffff    je      WS7_S7AG!S7AG_IsTIAPortalStarted$qqsv+0x6f98f (035ed2c7) [br=1]
eax=03624ec8 ebx=03624ecc ecx=74276ea4 edx=00000000 esi=00000000 edi=03624eb4
eip=035ed2c7 esp=06f1ff58 ebp=06f1ff70 iopl=0         nv up ei pl zr na pe nc
cs=0023  ss=002b  ds=002b  es=002b  fs=0053  gs=002b             efl=00000246
WS7_S7AG!S7AG_IsTIAPortalStarted$qqsv+0x6f98f:
035ed2c7 8b45f8          mov     eax,dword ptr [ebp-8] ss:002b:06f1ff68=03624e3c
eax=03624e3c ebx=03624ecc ecx=74276ea4 edx=00000000 esi=00000000 edi=03624eb4
eip=035ed2ca esp=06f1ff58 ebp=06f1ff70 iopl=0         nv up ei pl zr na pe nc
cs=0023  ss=002b  ds=002b  es=002b  fs=0053  gs=002b             efl=00000246
WS7_S7AG!S7AG_IsTIAPortalStarted$qqsv+0x6f992:
035ed2ca c60001          mov     byte ptr [eax],1           ds:002b:03624e3c=01
eax=03624e3c ebx=03624ecc ecx=74276ea4 edx=00000000 esi=00000000 edi=03624eb4
eip=035ed2cd esp=06f1ff58 ebp=06f1ff70 iopl=0         nv up ei pl zr na pe nc
cs=0023  ss=002b  ds=002b  es=002b  fs=0053  gs=002b             efl=00000246
WS7_S7AG!S7AG_IsTIAPortalStarted$qqsv+0x6f995:
035ed2cd 803b00          cmp     byte ptr [ebx],0           ds:002b:03624ecc=00
eax=03624e3c ebx=03624ecc ecx=74276ea4 edx=00000000 esi=00000000 edi=03624eb4
eip=035ed2d0 esp=06f1ff58 ebp=06f1ff70 iopl=0         nv up ei pl zr na pe nc
cs=0023  ss=002b  ds=002b  es=002b  fs=0053  gs=002b             efl=00000246
WS7_S7AG!S7AG_IsTIAPortalStarted$qqsv+0x6f998:
035ed2d0 7405            je      WS7_S7AG!S7AG_IsTIAPortalStarted$qqsv+0x6f99f (035ed2d7) [br=1]
eax=03624e3c ebx=03624ecc ecx=74276ea4 edx=00000000 esi=00000000 edi=03624eb4
eip=035ed2d7 esp=06f1ff58 ebp=06f1ff70 iopl=0         nv up ei pl zr na pe nc
cs=0023  ss=002b  ds=002b  es=002b  fs=0053  gs=002b             efl=00000246
WS7_S7AG!S7AG_IsTIAPortalStarted$qqsv+0x6f99f:
035ed2d7 8bd6            mov     edx,esi
eax=03624e3c ebx=03624ecc ecx=74276ea4 edx=00000000 esi=00000000 edi=03624eb4
eip=035ed2d9 esp=06f1ff58 ebp=06f1ff70 iopl=0         nv up ei pl zr na pe nc
cs=0023  ss=002b  ds=002b  es=002b  fs=0053  gs=002b             efl=00000246
WS7_S7AG!S7AG_IsTIAPortalStarted$qqsv+0x6f9a1:
035ed2d9 8b0d084e6203    mov     ecx,dword ptr [WS7_S7AG!__CPPdebugHook+0x28cfc (03624e08)] ds:002b:03624e08=06460000
eax=03624e3c ebx=03624ecc ecx=06460000 edx=00000000 esi=00000000 edi=03624eb4
eip=035ed2df esp=06f1ff58 ebp=06f1ff70 iopl=0         nv up ei pl zr na pe nc
cs=0023  ss=002b  ds=002b  es=002b  fs=0053  gs=002b             efl=00000246
WS7_S7AG!S7AG_IsTIAPortalStarted$qqsv+0x6f9a7:
035ed2df c1e205          shl     edx,5
eax=03624e3c ebx=03624ecc ecx=06460000 edx=00000000 esi=00000000 edi=03624eb4
eip=035ed2e2 esp=06f1ff58 ebp=06f1ff70 iopl=0         nv up ei pl zr na pe nc
cs=0023  ss=002b  ds=002b  es=002b  fs=0053  gs=002b             efl=00000246
WS7_S7AG!S7AG_IsTIAPortalStarted$qqsv+0x6f9aa:
035ed2e2 03d6            add     edx,esi
eax=03624e3c ebx=03624ecc ecx=06460000 edx=00000000 esi=00000000 edi=03624eb4
eip=035ed2e4 esp=06f1ff58 ebp=06f1ff70 iopl=0         nv up ei pl zr na pe nc
cs=0023  ss=002b  ds=002b  es=002b  fs=0053  gs=002b             efl=00000246
WS7_S7AG!S7AG_IsTIAPortalStarted$qqsv+0x6f9ac:
035ed2e4 c645ff01        mov     byte ptr [ebp-1],1         ss:002b:06f1ff6f=01
eax=03624e3c ebx=03624ecc ecx=06460000 edx=00000000 esi=00000000 edi=03624eb4
eip=035ed2e8 esp=06f1ff58 ebp=06f1ff70 iopl=0         nv up ei pl zr na pe nc
cs=0023  ss=002b  ds=002b  es=002b  fs=0053  gs=002b             efl=00000246
WS7_S7AG!S7AG_IsTIAPortalStarted$qqsv+0x6f9b0:
035ed2e8 80bc9160765b0000 cmp     byte ptr ws7v6!DlgdownloadspFinalize+0x555c (005b7660)[ecx+edx*4],0 ds:002b:06a17660=00
eax=03624e3c ebx=03624ecc ecx=06460000 edx=00000000 esi=00000000 edi=03624eb4
eip=035ed2f0 esp=06f1ff58 ebp=06f1ff70 iopl=0         nv up ei pl zr na pe nc
cs=0023  ss=002b  ds=002b  es=002b  fs=0053  gs=002b             efl=00000246
WS7_S7AG!S7AG_IsTIAPortalStarted$qqsv+0x6f9b8:
035ed2f0 746d            je      WS7_S7AG!S7AG_IsTIAPortalStarted$qqsv+0x6fa27 (035ed35f) [br=1]
eax=03624e3c ebx=03624ecc ecx=06460000 edx=00000000 esi=00000000 edi=03624eb4
eip=035ed35f esp=06f1ff58 ebp=06f1ff70 iopl=0         nv up ei pl zr na pe nc
cs=0023  ss=002b  ds=002b  es=002b  fs=0053  gs=002b             efl=00000246
WS7_S7AG!S7AG_IsTIAPortalStarted$qqsv+0x6fa27:
035ed35f 6a01            push    1
eax=03624e3c ebx=03624ecc ecx=06460000 edx=00000000 esi=00000000 edi=03624eb4
eip=035ed361 esp=06f1ff54 ebp=06f1ff70 iopl=0         nv up ei pl zr na pe nc
cs=0023  ss=002b  ds=002b  es=002b  fs=0053  gs=002b             efl=00000246
WS7_S7AG!S7AG_IsTIAPortalStarted$qqsv+0x6fa29:
035ed361 e87edd0000      call    WS7_S7AG!S7AG_IsTIAPortalStarted$qqsv+0x7d7ac (035fb0e4)
eax=00000000 ebx=03624ecc ecx=74276ea4 edx=00000000 esi=00000000 edi=03624eb4
eip=035ed366 esp=06f1ff58 ebp=06f1ff70 iopl=0         nv up ei pl zr na pe nc
cs=0023  ss=002b  ds=002b  es=002b  fs=0053  gs=002b             efl=00000246
WS7_S7AG!S7AG_IsTIAPortalStarted$qqsv+0x6fa2e:
035ed366 807dff00        cmp     byte ptr [ebp-1],0         ss:002b:06f1ff6f=01
eax=00000000 ebx=03624ecc ecx=74276ea4 edx=00000000 esi=00000000 edi=03624eb4
eip=035ed36a esp=06f1ff58 ebp=06f1ff70 iopl=0         nv up ei pl nz na po nc
cs=0023  ss=002b  ds=002b  es=002b  fs=0053  gs=002b             efl=00000202
WS7_S7AG!S7AG_IsTIAPortalStarted$qqsv+0x6fa32:
035ed36a 7407            je      WS7_S7AG!S7AG_IsTIAPortalStarted$qqsv+0x6fa3b (035ed373) [br=0]
eax=00000000 ebx=03624ecc ecx=74276ea4 edx=00000000 esi=00000000 edi=03624eb4
eip=035ed36c esp=06f1ff58 ebp=06f1ff70 iopl=0         nv up ei pl nz na po nc
cs=0023  ss=002b  ds=002b  es=002b  fs=0053  gs=002b             efl=00000202
WS7_S7AG!S7AG_IsTIAPortalStarted$qqsv+0x6fa34:
035ed36c 6a0a            push    0Ah
eax=00000000 ebx=03624ecc ecx=74276ea4 edx=00000000 esi=00000000 edi=03624eb4
eip=035ed36e esp=06f1ff54 ebp=06f1ff70 iopl=0         nv up ei pl nz na po nc
cs=0023  ss=002b  ds=002b  es=002b  fs=0053  gs=002b             efl=00000202
WS7_S7AG!S7AG_IsTIAPortalStarted$qqsv+0x6fa36:
035ed36e e871dd0000      call    WS7_S7AG!S7AG_IsTIAPortalStarted$qqsv+0x7d7ac (035fb0e4)
eax=00000000 ebx=03624ecc ecx=74276ea4 edx=00000000 esi=00000000 edi=03624eb4
eip=035ed373 esp=06f1ff58 ebp=06f1ff70 iopl=0         nv up ei pl zr na pe nc
cs=0023  ss=002b  ds=002b  es=002b  fs=0053  gs=002b             efl=00000246
WS7_S7AG!S7AG_IsTIAPortalStarted$qqsv+0x6fa3b:
035ed373 8b45f4          mov     eax,dword ptr [ebp-0Ch] ss:002b:06f1ff64=03624ec8
eax=03624ec8 ebx=03624ecc ecx=74276ea4 edx=00000000 esi=00000000 edi=03624eb4
eip=035ed376 esp=06f1ff58 ebp=06f1ff70 iopl=0         nv up ei pl zr na pe nc
cs=0023  ss=002b  ds=002b  es=002b  fs=0053  gs=002b             efl=00000246
WS7_S7AG!S7AG_IsTIAPortalStarted$qqsv+0x6fa3e:
035ed376 c60000          mov     byte ptr [eax],0           ds:002b:03624ec8=00
eax=03624ec8 ebx=03624ecc ecx=74276ea4 edx=00000000 esi=00000000 edi=03624eb4
eip=035ed379 esp=06f1ff58 ebp=06f1ff70 iopl=0         nv up ei pl zr na pe nc
cs=0023  ss=002b  ds=002b  es=002b  fs=0053  gs=002b             efl=00000246
WS7_S7AG!S7AG_IsTIAPortalStarted$qqsv+0x6fa41:
035ed379 803b00          cmp     byte ptr [ebx],0           ds:002b:03624ecc=00
eax=03624ec8 ebx=03624ecc ecx=74276ea4 edx=00000000 esi=00000000 edi=03624eb4
eip=035ed37c esp=06f1ff58 ebp=06f1ff70 iopl=0         nv up ei pl zr na pe nc
cs=0023  ss=002b  ds=002b  es=002b  fs=0053  gs=002b             efl=00000246
WS7_S7AG!S7AG_IsTIAPortalStarted$qqsv+0x6fa44:
035ed37c 0f8445ffffff    je      WS7_S7AG!S7AG_IsTIAPortalStarted$qqsv+0x6f98f (035ed2c7) [br=1]
eax=03624ec8 ebx=03624ecc ecx=74276ea4 edx=00000000 esi=00000000 edi=03624eb4
eip=035ed2c7 esp=06f1ff58 ebp=06f1ff70 iopl=0         nv up ei pl zr na pe nc
cs=0023  ss=002b  ds=002b  es=002b  fs=0053  gs=002b             efl=00000246
WS7_S7AG!S7AG_IsTIAPortalStarted$qqsv+0x6f98f:
035ed2c7 8b45f8          mov     eax,dword ptr [ebp-8] ss:002b:06f1ff68=03624e3c
eax=03624e3c ebx=03624ecc ecx=74276ea4 edx=00000000 esi=00000000 edi=03624eb4
eip=035ed2ca esp=06f1ff58 ebp=06f1ff70 iopl=0         nv up ei pl zr na pe nc
cs=0023  ss=002b  ds=002b  es=002b  fs=0053  gs=002b             efl=00000246
WS7_S7AG!S7AG_IsTIAPortalStarted$qqsv+0x6f992:
035ed2ca c60001          mov     byte ptr [eax],1           ds:002b:03624e3c=01
eax=03624e3c ebx=03624ecc ecx=74276ea4 edx=00000000 esi=00000000 edi=03624eb4
eip=035ed2cd esp=06f1ff58 ebp=06f1ff70 iopl=0         nv up ei pl zr na pe nc
cs=0023  ss=002b  ds=002b  es=002b  fs=0053  gs=002b             efl=00000246
WS7_S7AG!S7AG_IsTIAPortalStarted$qqsv+0x6f995:
035ed2cd 803b00          cmp     byte ptr [ebx],0           ds:002b:03624ecc=00
eax=03624e3c ebx=03624ecc ecx=74276ea4 edx=00000000 esi=00000000 edi=03624eb4
eip=035ed2d0 esp=06f1ff58 ebp=06f1ff70 iopl=0         nv up ei pl zr na pe nc
cs=0023  ss=002b  ds=002b  es=002b  fs=0053  gs=002b             efl=00000246
WS7_S7AG!S7AG_IsTIAPortalStarted$qqsv+0x6f998:
035ed2d0 7405            je      WS7_S7AG!S7AG_IsTIAPortalStarted$qqsv+0x6f99f (035ed2d7) [br=1]
eax=03624e3c ebx=03624ecc ecx=74276ea4 edx=00000000 esi=00000000 edi=03624eb4
eip=035ed2d7 esp=06f1ff58 ebp=06f1ff70 iopl=0         nv up ei pl zr na pe nc
cs=0023  ss=002b  ds=002b  es=002b  fs=0053  gs=002b             efl=00000246
WS7_S7AG!S7AG_IsTIAPortalStarted$qqsv+0x6f99f:
035ed2d7 8bd6            mov     edx,esi
eax=03624e3c ebx=03624ecc ecx=74276ea4 edx=00000000 esi=00000000 edi=03624eb4
eip=035ed2d9 esp=06f1ff58 ebp=06f1ff70 iopl=0         nv up ei pl zr na pe nc
cs=0023  ss=002b  ds=002b  es=002b  fs=0053  gs=002b             efl=00000246
WS7_S7AG!S7AG_IsTIAPortalStarted$qqsv+0x6f9a1:
035ed2d9 8b0d084e6203    mov     ecx,dword ptr [WS7_S7AG!__CPPdebugHook+0x28cfc (03624e08)] ds:002b:03624e08=06460000
eax=03624e3c ebx=03624ecc ecx=06460000 edx=00000000 esi=00000000 edi=03624eb4
eip=035ed2df esp=06f1ff58 ebp=06f1ff70 iopl=0         nv up ei pl zr na pe nc
cs=0023  ss=002b  ds=002b  es=002b  fs=0053  gs=002b             efl=00000246
WS7_S7AG!S7AG_IsTIAPortalStarted$qqsv+0x6f9a7:
035ed2df c1e205          shl     edx,5
eax=03624e3c ebx=03624ecc ecx=06460000 edx=00000000 esi=00000000 edi=03624eb4
eip=035ed2e2 esp=06f1ff58 ebp=06f1ff70 iopl=0         nv up ei pl zr na pe nc
cs=0023  ss=002b  ds=002b  es=002b  fs=0053  gs=002b             efl=00000246
WS7_S7AG!S7AG_IsTIAPortalStarted$qqsv+0x6f9aa:
035ed2e2 03d6            add     edx,esi
eax=03624e3c ebx=03624ecc ecx=06460000 edx=00000000 esi=00000000 edi=03624eb4
eip=035ed2e4 esp=06f1ff58 ebp=06f1ff70 iopl=0         nv up ei pl zr na pe nc
cs=0023  ss=002b  ds=002b  es=002b  fs=0053  gs=002b             efl=00000246
WS7_S7AG!S7AG_IsTIAPortalStarted$qqsv+0x6f9ac:
035ed2e4 c645ff01        mov     byte ptr [ebp-1],1         ss:002b:06f1ff6f=01
eax=03624e3c ebx=03624ecc ecx=06460000 edx=00000000 esi=00000000 edi=03624eb4
eip=035ed2e8 esp=06f1ff58 ebp=06f1ff70 iopl=0         nv up ei pl zr na pe nc
cs=0023  ss=002b  ds=002b  es=002b  fs=0053  gs=002b             efl=00000246
WS7_S7AG!S7AG_IsTIAPortalStarted$qqsv+0x6f9b0:
035ed2e8 80bc9160765b0000 cmp     byte ptr ws7v6!DlgdownloadspFinalize+0x555c (005b7660)[ecx+edx*4],0 ds:002b:06a17660=00
eax=03624e3c ebx=03624ecc ecx=06460000 edx=00000000 esi=00000000 edi=03624eb4
eip=035ed2f0 esp=06f1ff58 ebp=06f1ff70 iopl=0         nv up ei pl zr na pe nc
cs=0023  ss=002b  ds=002b  es=002b  fs=0053  gs=002b             efl=00000246
WS7_S7AG!S7AG_IsTIAPortalStarted$qqsv+0x6f9b8:
035ed2f0 746d            je      WS7_S7AG!S7AG_IsTIAPortalStarted$qqsv+0x6fa27 (035ed35f) [br=1]
eax=03624e3c ebx=03624ecc ecx=06460000 edx=00000000 esi=00000000 edi=03624eb4
eip=035ed35f esp=06f1ff58 ebp=06f1ff70 iopl=0         nv up ei pl zr na pe nc
cs=0023  ss=002b  ds=002b  es=002b  fs=0053  gs=002b             efl=00000246
WS7_S7AG!S7AG_IsTIAPortalStarted$qqsv+0x6fa27:
035ed35f 6a01            push    1
eax=03624e3c ebx=03624ecc ecx=06460000 edx=00000000 esi=00000000 edi=03624eb4
eip=035ed361 esp=06f1ff54 ebp=06f1ff70 iopl=0         nv up ei pl zr na pe nc
cs=0023  ss=002b  ds=002b  es=002b  fs=0053  gs=002b             efl=00000246
WS7_S7AG!S7AG_IsTIAPortalStarted$qqsv+0x6fa29:
035ed361 e87edd0000      call    WS7_S7AG!S7AG_IsTIAPortalStarted$qqsv+0x7d7ac (035fb0e4)
eax=00000000 ebx=03624ecc ecx=74276ea4 edx=00000000 esi=00000000 edi=03624eb4
eip=035ed366 esp=06f1ff58 ebp=06f1ff70 iopl=0         nv up ei pl zr na pe nc
cs=0023  ss=002b  ds=002b  es=002b  fs=0053  gs=002b             efl=00000246
WS7_S7AG!S7AG_IsTIAPortalStarted$qqsv+0x6fa2e:
035ed366 807dff00        cmp     byte ptr [ebp-1],0         ss:002b:06f1ff6f=01
eax=00000000 ebx=03624ecc ecx=74276ea4 edx=00000000 esi=00000000 edi=03624eb4
eip=035ed36a esp=06f1ff58 ebp=06f1ff70 iopl=0         nv up ei pl nz na po nc
cs=0023  ss=002b  ds=002b  es=002b  fs=0053  gs=002b             efl=00000202
WS7_S7AG!S7AG_IsTIAPortalStarted$qqsv+0x6fa32:
035ed36a 7407            je      WS7_S7AG!S7AG_IsTIAPortalStarted$qqsv+0x6fa3b (035ed373) [br=0]
eax=00000000 ebx=03624ecc ecx=74276ea4 edx=00000000 esi=00000000 edi=03624eb4
eip=035ed36c esp=06f1ff58 ebp=06f1ff70 iopl=0         nv up ei pl nz na po nc
cs=0023  ss=002b  ds=002b  es=002b  fs=0053  gs=002b             efl=00000202
WS7_S7AG!S7AG_IsTIAPortalStarted$qqsv+0x6fa34:
035ed36c 6a0a            push    0Ah
eax=00000000 ebx=03624ecc ecx=74276ea4 edx=00000000 esi=00000000 edi=03624eb4
eip=035ed36e esp=06f1ff54 ebp=06f1ff70 iopl=0         nv up ei pl nz na po nc
cs=0023  ss=002b  ds=002b  es=002b  fs=0053  gs=002b             efl=00000202
WS7_S7AG!S7AG_IsTIAPortalStarted$qqsv+0x6fa36:
035ed36e e871dd0000      call    WS7_S7AG!S7AG_IsTIAPortalStarted$qqsv+0x7d7ac (035fb0e4)
eax=00000000 ebx=03624ecc ecx=74276ea4 edx=00000000 esi=00000000 edi=03624eb4
eip=035ed373 esp=06f1ff58 ebp=06f1ff70 iopl=0         nv up ei pl zr na pe nc
cs=0023  ss=002b  ds=002b  es=002b  fs=0053  gs=002b             efl=00000246
WS7_S7AG!S7AG_IsTIAPortalStarted$qqsv+0x6fa3b:
035ed373 8b45f4          mov     eax,dword ptr [ebp-0Ch] ss:002b:06f1ff64=03624ec8
eax=03624ec8 ebx=03624ecc ecx=74276ea4 edx=00000000 esi=00000000 edi=03624eb4
eip=035ed376 esp=06f1ff58 ebp=06f1ff70 iopl=0         nv up ei pl zr na pe nc
cs=0023  ss=002b  ds=002b  es=002b  fs=0053  gs=002b             efl=00000246
WS7_S7AG!S7AG_IsTIAPortalStarted$qqsv+0x6fa3e:
035ed376 c60000          mov     byte ptr [eax],0           ds:002b:03624ec8=00
eax=03624ec8 ebx=03624ecc ecx=74276ea4 edx=00000000 esi=00000000 edi=03624eb4
eip=035ed379 esp=06f1ff58 ebp=06f1ff70 iopl=0         nv up ei pl zr na pe nc
cs=0023  ss=002b  ds=002b  es=002b  fs=0053  gs=002b             efl=00000246
WS7_S7AG!S7AG_IsTIAPortalStarted$qqsv+0x6fa41:
035ed379 803b00          cmp     byte ptr [ebx],0           ds:002b:03624ecc=00
eax=03624ec8 ebx=03624ecc ecx=74276ea4 edx=00000000 esi=00000000 edi=03624eb4
eip=035ed37c esp=06f1ff58 ebp=06f1ff70 iopl=0         nv up ei pl zr na pe nc
cs=0023  ss=002b  ds=002b  es=002b  fs=0053  gs=002b             efl=00000246
WS7_S7AG!S7AG_IsTIAPortalStarted$qqsv+0x6fa44:
035ed37c 0f8445ffffff    je      WS7_S7AG!S7AG_IsTIAPortalStarted$qqsv+0x6f98f (035ed2c7) [br=1]
eax=03624ec8 ebx=03624ecc ecx=74276ea4 edx=00000000 esi=00000000 edi=03624eb4
eip=035ed2c7 esp=06f1ff58 ebp=06f1ff70 iopl=0         nv up ei pl zr na pe nc
cs=0023  ss=002b  ds=002b  es=002b  fs=0053  gs=002b             efl=00000246
WS7_S7AG!S7AG_IsTIAPortalStarted$qqsv+0x6f98f:
035ed2c7 8b45f8          mov     eax,dword ptr [ebp-8] ss:002b:06f1ff68=03624e3c
eax=03624e3c ebx=03624ecc ecx=74276ea4 edx=00000000 esi=00000000 edi=03624eb4
eip=035ed2ca esp=06f1ff58 ebp=06f1ff70 iopl=0         nv up ei pl zr na pe nc
cs=0023  ss=002b  ds=002b  es=002b  fs=0053  gs=002b             efl=00000246
WS7_S7AG!S7AG_IsTIAPortalStarted$qqsv+0x6f992:
035ed2ca c60001          mov     byte ptr [eax],1           ds:002b:03624e3c=01
eax=03624e3c ebx=03624ecc ecx=74276ea4 edx=00000000 esi=00000000 edi=03624eb4
eip=035ed2cd esp=06f1ff58 ebp=06f1ff70 iopl=0         nv up ei pl zr na pe nc
cs=0023  ss=002b  ds=002b  es=002b  fs=0053  gs=002b             efl=00000246
WS7_S7AG!S7AG_IsTIAPortalStarted$qqsv+0x6f995:
035ed2cd 803b00          cmp     byte ptr [ebx],0           ds:002b:03624ecc=00
eax=03624e3c ebx=03624ecc ecx=74276ea4 edx=00000000 esi=00000000 edi=03624eb4
eip=035ed2d0 esp=06f1ff58 ebp=06f1ff70 iopl=0         nv up ei pl zr na pe nc
cs=0023  ss=002b  ds=002b  es=002b  fs=0053  gs=002b             efl=00000246
WS7_S7AG!S7AG_IsTIAPortalStarted$qqsv+0x6f998:
035ed2d0 7405            je      WS7_S7AG!S7AG_IsTIAPortalStarted$qqsv+0x6f99f (035ed2d7) [br=1]
eax=03624e3c ebx=03624ecc ecx=74276ea4 edx=00000000 esi=00000000 edi=03624eb4
eip=035ed2d7 esp=06f1ff58 ebp=06f1ff70 iopl=0         nv up ei pl zr na pe nc
cs=0023  ss=002b  ds=002b  es=002b  fs=0053  gs=002b             efl=00000246
WS7_S7AG!S7AG_IsTIAPortalStarted$qqsv+0x6f99f:
035ed2d7 8bd6            mov     edx,esi
eax=03624e3c ebx=03624ecc ecx=74276ea4 edx=00000000 esi=00000000 edi=03624eb4
eip=035ed2d9 esp=06f1ff58 ebp=06f1ff70 iopl=0         nv up ei pl zr na pe nc
cs=0023  ss=002b  ds=002b  es=002b  fs=0053  gs=002b             efl=00000246
WS7_S7AG!S7AG_IsTIAPortalStarted$qqsv+0x6f9a1:
035ed2d9 8b0d084e6203    mov     ecx,dword ptr [WS7_S7AG!__CPPdebugHook+0x28cfc (03624e08)] ds:002b:03624e08=06460000
eax=03624e3c ebx=03624ecc ecx=06460000 edx=00000000 esi=00000000 edi=03624eb4
eip=035ed2df esp=06f1ff58 ebp=06f1ff70 iopl=0         nv up ei pl zr na pe nc
cs=0023  ss=002b  ds=002b  es=002b  fs=0053  gs=002b             efl=00000246
WS7_S7AG!S7AG_IsTIAPortalStarted$qqsv+0x6f9a7:
035ed2df c1e205          shl     edx,5
eax=03624e3c ebx=03624ecc ecx=06460000 edx=00000000 esi=00000000 edi=03624eb4
eip=035ed2e2 esp=06f1ff58 ebp=06f1ff70 iopl=0         nv up ei pl zr na pe nc
cs=0023  ss=002b  ds=002b  es=002b  fs=0053  gs=002b             efl=00000246
WS7_S7AG!S7AG_IsTIAPortalStarted$qqsv+0x6f9aa:
035ed2e2 03d6            add     edx,esi
eax=03624e3c ebx=03624ecc ecx=06460000 edx=00000000 esi=00000000 edi=03624eb4
eip=035ed2e4 esp=06f1ff58 ebp=06f1ff70 iopl=0         nv up ei pl zr na pe nc
cs=0023  ss=002b  ds=002b  es=002b  fs=0053  gs=002b             efl=00000246
WS7_S7AG!S7AG_IsTIAPortalStarted$qqsv+0x6f9ac:
035ed2e4 c645ff01        mov     byte ptr [ebp-1],1         ss:002b:06f1ff6f=01
eax=03624e3c ebx=03624ecc ecx=06460000 edx=00000000 esi=00000000 edi=03624eb4
eip=035ed2e8 esp=06f1ff58 ebp=06f1ff70 iopl=0         nv up ei pl zr na pe nc
cs=0023  ss=002b  ds=002b  es=002b  fs=0053  gs=002b             efl=00000246
WS7_S7AG!S7AG_IsTIAPortalStarted$qqsv+0x6f9b0:
035ed2e8 80bc9160765b0000 cmp     byte ptr ws7v6!DlgdownloadspFinalize+0x555c (005b7660)[ecx+edx*4],0 ds:002b:06a17660=00
eax=03624e3c ebx=03624ecc ecx=06460000 edx=00000000 esi=00000000 edi=03624eb4
eip=035ed2f0 esp=06f1ff58 ebp=06f1ff70 iopl=0         nv up ei pl zr na pe nc
cs=0023  ss=002b  ds=002b  es=002b  fs=0053  gs=002b             efl=00000246
WS7_S7AG!S7AG_IsTIAPortalStarted$qqsv+0x6f9b8:
035ed2f0 746d            je      WS7_S7AG!S7AG_IsTIAPortalStarted$qqsv+0x6fa27 (035ed35f) [br=1]
eax=03624e3c ebx=03624ecc ecx=06460000 edx=00000000 esi=00000000 edi=03624eb4
eip=035ed35f esp=06f1ff58 ebp=06f1ff70 iopl=0         nv up ei pl zr na pe nc
cs=0023  ss=002b  ds=002b  es=002b  fs=0053  gs=002b             efl=00000246
WS7_S7AG!S7AG_IsTIAPortalStarted$qqsv+0x6fa27:
035ed35f 6a01            push    1
eax=03624e3c ebx=03624ecc ecx=06460000 edx=00000000 esi=00000000 edi=03624eb4
eip=035ed361 esp=06f1ff54 ebp=06f1ff70 iopl=0         nv up ei pl zr na pe nc
cs=0023  ss=002b  ds=002b  es=002b  fs=0053  gs=002b             efl=00000246
WS7_S7AG!S7AG_IsTIAPortalStarted$qqsv+0x6fa29:
035ed361 e87edd0000      call    WS7_S7AG!S7AG_IsTIAPortalStarted$qqsv+0x7d7ac (035fb0e4)
eax=00000000 ebx=03624ecc ecx=74276ea4 edx=00000000 esi=00000000 edi=03624eb4
eip=035ed366 esp=06f1ff58 ebp=06f1ff70 iopl=0         nv up ei pl zr na pe nc
cs=0023  ss=002b  ds=002b  es=002b  fs=0053  gs=002b             efl=00000246
WS7_S7AG!S7AG_IsTIAPortalStarted$qqsv+0x6fa2e:
035ed366 807dff00        cmp     byte ptr [ebp-1],0         ss:002b:06f1ff6f=01
eax=00000000 ebx=03624ecc ecx=74276ea4 edx=00000000 esi=00000000 edi=03624eb4
eip=035ed36a esp=06f1ff58 ebp=06f1ff70 iopl=0         nv up ei pl nz na po nc
cs=0023  ss=002b  ds=002b  es=002b  fs=0053  gs=002b             efl=00000202
WS7_S7AG!S7AG_IsTIAPortalStarted$qqsv+0x6fa32:
035ed36a 7407            je      WS7_S7AG!S7AG_IsTIAPortalStarted$qqsv+0x6fa3b (035ed373) [br=0]
eax=00000000 ebx=03624ecc ecx=74276ea4 edx=00000000 esi=00000000 edi=03624eb4
eip=035ed36c esp=06f1ff58 ebp=06f1ff70 iopl=0         nv up ei pl nz na po nc
cs=0023  ss=002b  ds=002b  es=002b  fs=0053  gs=002b             efl=00000202
WS7_S7AG!S7AG_IsTIAPortalStarted$qqsv+0x6fa34:
035ed36c 6a0a            push    0Ah
eax=00000000 ebx=03624ecc ecx=74276ea4 edx=00000000 esi=00000000 edi=03624eb4
eip=035ed36e esp=06f1ff54 ebp=06f1ff70 iopl=0         nv up ei pl nz na po nc
cs=0023  ss=002b  ds=002b  es=002b  fs=0053  gs=002b             efl=00000202
WS7_S7AG!S7AG_IsTIAPortalStarted$qqsv+0x6fa36:
035ed36e e871dd0000      call    WS7_S7AG!S7AG_IsTIAPortalStarted$qqsv+0x7d7ac (035fb0e4)
eax=00000000 ebx=03624ecc ecx=74276ea4 edx=00000000 esi=00000000 edi=03624eb4
eip=035ed373 esp=06f1ff58 ebp=06f1ff70 iopl=0         nv up ei pl zr na pe nc
cs=0023  ss=002b  ds=002b  es=002b  fs=0053  gs=002b             efl=00000246
WS7_S7AG!S7AG_IsTIAPortalStarted$qqsv+0x6fa3b:
035ed373 8b45f4          mov     eax,dword ptr [ebp-0Ch] ss:002b:06f1ff64=03624ec8
eax=03624ec8 ebx=03624ecc ecx=74276ea4 edx=00000000 esi=00000000 edi=03624eb4
eip=035ed376 esp=06f1ff58 ebp=06f1ff70 iopl=0         nv up ei pl zr na pe nc
cs=0023  ss=002b  ds=002b  es=002b  fs=0053  gs=002b             efl=00000246
WS7_S7AG!S7AG_IsTIAPortalStarted$qqsv+0x6fa3e:
035ed376 c60000          mov     byte ptr [eax],0           ds:002b:03624ec8=00
eax=03624ec8 ebx=03624ecc ecx=74276ea4 edx=00000000 esi=00000000 edi=03624eb4
eip=035ed379 esp=06f1ff58 ebp=06f1ff70 iopl=0         nv up ei pl zr na pe nc
cs=0023  ss=002b  ds=002b  es=002b  fs=0053  gs=002b             efl=00000246
WS7_S7AG!S7AG_IsTIAPortalStarted$qqsv+0x6fa41:
035ed379 803b00          cmp     byte ptr [ebx],0           ds:002b:03624ecc=00
eax=03624ec8 ebx=03624ecc ecx=74276ea4 edx=00000000 esi=00000000 edi=03624eb4
eip=035ed37c esp=06f1ff58 ebp=06f1ff70 iopl=0         nv up ei pl zr na pe nc
cs=0023  ss=002b  ds=002b  es=002b  fs=0053  gs=002b             efl=00000246
WS7_S7AG!S7AG_IsTIAPortalStarted$qqsv+0x6fa44:
035ed37c 0f8445ffffff    je      WS7_S7AG!S7AG_IsTIAPortalStarted$qqsv+0x6f98f (035ed2c7) [br=1]
eax=03624ec8 ebx=03624ecc ecx=74276ea4 edx=00000000 esi=00000000 edi=03624eb4
eip=035ed2c7 esp=06f1ff58 ebp=06f1ff70 iopl=0         nv up ei pl zr na pe nc
cs=0023  ss=002b  ds=002b  es=002b  fs=0053  gs=002b             efl=00000246
WS7_S7AG!S7AG_IsTIAPortalStarted$qqsv+0x6f98f:
035ed2c7 8b45f8          mov     eax,dword ptr [ebp-8] ss:002b:06f1ff68=03624e3c
eax=03624e3c ebx=03624ecc ecx=74276ea4 edx=00000000 esi=00000000 edi=03624eb4
eip=035ed2ca esp=06f1ff58 ebp=06f1ff70 iopl=0         nv up ei pl zr na pe nc
cs=0023  ss=002b  ds=002b  es=002b  fs=0053  gs=002b             efl=00000246
WS7_S7AG!S7AG_IsTIAPortalStarted$qqsv+0x6f992:
035ed2ca c60001          mov     byte ptr [eax],1           ds:002b:03624e3c=01
eax=03624e3c ebx=03624ecc ecx=74276ea4 edx=00000000 esi=00000000 edi=03624eb4
eip=035ed2cd esp=06f1ff58 ebp=06f1ff70 iopl=0         nv up ei pl zr na pe nc
cs=0023  ss=002b  ds=002b  es=002b  fs=0053  gs=002b             efl=00000246
WS7_S7AG!S7AG_IsTIAPortalStarted$qqsv+0x6f995:
035ed2cd 803b00          cmp     byte ptr [ebx],0           ds:002b:03624ecc=00
eax=03624e3c ebx=03624ecc ecx=74276ea4 edx=00000000 esi=00000000 edi=03624eb4
eip=035ed2d0 esp=06f1ff58 ebp=06f1ff70 iopl=0         nv up ei pl zr na pe nc
cs=0023  ss=002b  ds=002b  es=002b  fs=0053  gs=002b             efl=00000246
WS7_S7AG!S7AG_IsTIAPortalStarted$qqsv+0x6f998:
035ed2d0 7405            je      WS7_S7AG!S7AG_IsTIAPortalStarted$qqsv+0x6f99f (035ed2d7) [br=1]
eax=03624e3c ebx=03624ecc ecx=74276ea4 edx=00000000 esi=00000000 edi=03624eb4
eip=035ed2d7 esp=06f1ff58 ebp=06f1ff70 iopl=0         nv up ei pl zr na pe nc
cs=0023  ss=002b  ds=002b  es=002b  fs=0053  gs=002b             efl=00000246
WS7_S7AG!S7AG_IsTIAPortalStarted$qqsv+0x6f99f:
035ed2d7 8bd6            mov     edx,esi
eax=03624e3c ebx=03624ecc ecx=74276ea4 edx=00000000 esi=00000000 edi=03624eb4
eip=035ed2d9 esp=06f1ff58 ebp=06f1ff70 iopl=0         nv up ei pl zr na pe nc
cs=0023  ss=002b  ds=002b  es=002b  fs=0053  gs=002b             efl=00000246
WS7_S7AG!S7AG_IsTIAPortalStarted$qqsv+0x6f9a1:
035ed2d9 8b0d084e6203    mov     ecx,dword ptr [WS7_S7AG!__CPPdebugHook+0x28cfc (03624e08)] ds:002b:03624e08=06460000
eax=03624e3c ebx=03624ecc ecx=06460000 edx=00000000 esi=00000000 edi=03624eb4
eip=035ed2df esp=06f1ff58 ebp=06f1ff70 iopl=0         nv up ei pl zr na pe nc
cs=0023  ss=002b  ds=002b  es=002b  fs=0053  gs=002b             efl=00000246
WS7_S7AG!S7AG_IsTIAPortalStarted$qqsv+0x6f9a7:
035ed2df c1e205          shl     edx,5
eax=03624e3c ebx=03624ecc ecx=06460000 edx=00000000 esi=00000000 edi=03624eb4
eip=035ed2e2 esp=06f1ff58 ebp=06f1ff70 iopl=0         nv up ei pl zr na pe nc
cs=0023  ss=002b  ds=002b  es=002b  fs=0053  gs=002b             efl=00000246
WS7_S7AG!S7AG_IsTIAPortalStarted$qqsv+0x6f9aa:
035ed2e2 03d6            add     edx,esi
eax=03624e3c ebx=03624ecc ecx=06460000 edx=00000000 esi=00000000 edi=03624eb4
eip=035ed2e4 esp=06f1ff58 ebp=06f1ff70 iopl=0         nv up ei pl zr na pe nc
cs=0023  ss=002b  ds=002b  es=002b  fs=0053  gs=002b             efl=00000246
WS7_S7AG!S7AG_IsTIAPortalStarted$qqsv+0x6f9ac:
035ed2e4 c645ff01        mov     byte ptr [ebp-1],1         ss:002b:06f1ff6f=01
eax=03624e3c ebx=03624ecc ecx=06460000 edx=00000000 esi=00000000 edi=03624eb4
eip=035ed2e8 esp=06f1ff58 ebp=06f1ff70 iopl=0         nv up ei pl zr na pe nc
cs=0023  ss=002b  ds=002b  es=002b  fs=0053  gs=002b             efl=00000246
WS7_S7AG!S7AG_IsTIAPortalStarted$qqsv+0x6f9b0:
035ed2e8 80bc9160765b0000 cmp     byte ptr ws7v6!DlgdownloadspFinalize+0x555c (005b7660)[ecx+edx*4],0 ds:002b:06a17660=00
eax=03624e3c ebx=03624ecc ecx=06460000 edx=00000000 esi=00000000 edi=03624eb4
eip=035ed2f0 esp=06f1ff58 ebp=06f1ff70 iopl=0         nv up ei pl zr na pe nc
cs=0023  ss=002b  ds=002b  es=002b  fs=0053  gs=002b             efl=00000246
WS7_S7AG!S7AG_IsTIAPortalStarted$qqsv+0x6f9b8:
035ed2f0 746d            je      WS7_S7AG!S7AG_IsTIAPortalStarted$qqsv+0x6fa27 (035ed35f) [br=1]
eax=03624e3c ebx=03624ecc ecx=06460000 edx=00000000 esi=00000000 edi=03624eb4
eip=035ed35f esp=06f1ff58 ebp=06f1ff70 iopl=0         nv up ei pl zr na pe nc
cs=0023  ss=002b  ds=002b  es=002b  fs=0053  gs=002b             efl=00000246
WS7_S7AG!S7AG_IsTIAPortalStarted$qqsv+0x6fa27:
035ed35f 6a01            push    1
eax=03624e3c ebx=03624ecc ecx=06460000 edx=00000000 esi=00000000 edi=03624eb4
eip=035ed361 esp=06f1ff54 ebp=06f1ff70 iopl=0         nv up ei pl zr na pe nc
cs=0023  ss=002b  ds=002b  es=002b  fs=0053  gs=002b             efl=00000246
WS7_S7AG!S7AG_IsTIAPortalStarted$qqsv+0x6fa29:
035ed361 e87edd0000      call    WS7_S7AG!S7AG_IsTIAPortalStarted$qqsv+0x7d7ac (035fb0e4)
eax=00000000 ebx=03624ecc ecx=74276ea4 edx=00000000 esi=00000000 edi=03624eb4
eip=035ed366 esp=06f1ff58 ebp=06f1ff70 iopl=0         nv up ei pl zr na pe nc
cs=0023  ss=002b  ds=002b  es=002b  fs=0053  gs=002b             efl=00000246
WS7_S7AG!S7AG_IsTIAPortalStarted$qqsv+0x6fa2e:
035ed366 807dff00        cmp     byte ptr [ebp-1],0         ss:002b:06f1ff6f=01
eax=00000000 ebx=03624ecc ecx=74276ea4 edx=00000000 esi=00000000 edi=03624eb4
eip=035ed36a esp=06f1ff58 ebp=06f1ff70 iopl=0         nv up ei pl nz na po nc
cs=0023  ss=002b  ds=002b  es=002b  fs=0053  gs=002b             efl=00000202
WS7_S7AG!S7AG_IsTIAPortalStarted$qqsv+0x6fa32:
035ed36a 7407            je      WS7_S7AG!S7AG_IsTIAPortalStarted$qqsv+0x6fa3b (035ed373) [br=0]
eax=00000000 ebx=03624ecc ecx=74276ea4 edx=00000000 esi=00000000 edi=03624eb4
eip=035ed36c esp=06f1ff58 ebp=06f1ff70 iopl=0         nv up ei pl nz na po nc
cs=0023  ss=002b  ds=002b  es=002b  fs=0053  gs=002b             efl=00000202
WS7_S7AG!S7AG_IsTIAPortalStarted$qqsv+0x6fa34:
035ed36c 6a0a            push    0Ah
eax=00000000 ebx=03624ecc ecx=74276ea4 edx=00000000 esi=00000000 edi=03624eb4
eip=035ed36e esp=06f1ff54 ebp=06f1ff70 iopl=0         nv up ei pl nz na po nc
cs=0023  ss=002b  ds=002b  es=002b  fs=0053  gs=002b             efl=00000202
WS7_S7AG!S7AG_IsTIAPortalStarted$qqsv+0x6fa36:
035ed36e e871dd0000      call    WS7_S7AG!S7AG_IsTIAPortalStarted$qqsv+0x7d7ac (035fb0e4)
eax=00000000 ebx=03624ecc ecx=74276ea4 edx=00000000 esi=00000000 edi=03624eb4
eip=035ed373 esp=06f1ff58 ebp=06f1ff70 iopl=0         nv up ei pl zr na pe nc
cs=0023  ss=002b  ds=002b  es=002b  fs=0053  gs=002b             efl=00000246
WS7_S7AG!S7AG_IsTIAPortalStarted$qqsv+0x6fa3b:
035ed373 8b45f4          mov     eax,dword ptr [ebp-0Ch] ss:002b:06f1ff64=03624ec8
eax=03624ec8 ebx=03624ecc ecx=74276ea4 edx=00000000 esi=00000000 edi=03624eb4
eip=035ed376 esp=06f1ff58 ebp=06f1ff70 iopl=0         nv up ei pl zr na pe nc
cs=0023  ss=002b  ds=002b  es=002b  fs=0053  gs=002b             efl=00000246
WS7_S7AG!S7AG_IsTIAPortalStarted$qqsv+0x6fa3e:
035ed376 c60000          mov     byte ptr [eax],0           ds:002b:03624ec8=00
eax=03624ec8 ebx=03624ecc ecx=74276ea4 edx=00000000 esi=00000000 edi=03624eb4
eip=035ed379 esp=06f1ff58 ebp=06f1ff70 iopl=0         nv up ei pl zr na pe nc
cs=0023  ss=002b  ds=002b  es=002b  fs=0053  gs=002b             efl=00000246
WS7_S7AG!S7AG_IsTIAPortalStarted$qqsv+0x6fa41:
035ed379 803b00          cmp     byte ptr [ebx],0           ds:002b:03624ecc=00
eax=03624ec8 ebx=03624ecc ecx=74276ea4 edx=00000000 esi=00000000 edi=03624eb4
eip=035ed37c esp=06f1ff58 ebp=06f1ff70 iopl=0         nv up ei pl zr na pe nc
cs=0023  ss=002b  ds=002b  es=002b  fs=0053  gs=002b             efl=00000246
WS7_S7AG!S7AG_IsTIAPortalStarted$qqsv+0x6fa44:
035ed37c 0f8445ffffff    je      WS7_S7AG!S7AG_IsTIAPortalStarted$qqsv+0x6f98f (035ed2c7) [br=1]
eax=03624ec8 ebx=03624ecc ecx=74276ea4 edx=00000000 esi=00000000 edi=03624eb4
eip=035ed2c7 esp=06f1ff58 ebp=06f1ff70 iopl=0         nv up ei pl zr na pe nc
cs=0023  ss=002b  ds=002b  es=002b  fs=0053  gs=002b             efl=00000246
WS7_S7AG!S7AG_IsTIAPortalStarted$qqsv+0x6f98f:
035ed2c7 8b45f8          mov     eax,dword ptr [ebp-8] ss:002b:06f1ff68=03624e3c
eax=03624e3c ebx=03624ecc ecx=74276ea4 edx=00000000 esi=00000000 edi=03624eb4
eip=035ed2ca esp=06f1ff58 ebp=06f1ff70 iopl=0         nv up ei pl zr na pe nc
cs=0023  ss=002b  ds=002b  es=002b  fs=0053  gs=002b             efl=00000246
WS7_S7AG!S7AG_IsTIAPortalStarted$qqsv+0x6f992:
035ed2ca c60001          mov     byte ptr [eax],1           ds:002b:03624e3c=01
eax=03624e3c ebx=03624ecc ecx=74276ea4 edx=00000000 esi=00000000 edi=03624eb4
eip=035ed2cd esp=06f1ff58 ebp=06f1ff70 iopl=0         nv up ei pl zr na pe nc
cs=0023  ss=002b  ds=002b  es=002b  fs=0053  gs=002b             efl=00000246
WS7_S7AG!S7AG_IsTIAPortalStarted$qqsv+0x6f995:
035ed2cd 803b00          cmp     byte ptr [ebx],0           ds:002b:03624ecc=00
eax=03624e3c ebx=03624ecc ecx=74276ea4 edx=00000000 esi=00000000 edi=03624eb4
eip=035ed2d0 esp=06f1ff58 ebp=06f1ff70 iopl=0         nv up ei pl zr na pe nc
cs=0023  ss=002b  ds=002b  es=002b  fs=0053  gs=002b             efl=00000246
WS7_S7AG!S7AG_IsTIAPortalStarted$qqsv+0x6f998:
035ed2d0 7405            je      WS7_S7AG!S7AG_IsTIAPortalStarted$qqsv+0x6f99f (035ed2d7) [br=1]
eax=03624e3c ebx=03624ecc ecx=74276ea4 edx=00000000 esi=00000000 edi=03624eb4
eip=035ed2d7 esp=06f1ff58 ebp=06f1ff70 iopl=0         nv up ei pl zr na pe nc
cs=0023  ss=002b  ds=002b  es=002b  fs=0053  gs=002b             efl=00000246
WS7_S7AG!S7AG_IsTIAPortalStarted$qqsv+0x6f99f:
035ed2d7 8bd6            mov     edx,esi
eax=03624e3c ebx=03624ecc ecx=74276ea4 edx=00000000 esi=00000000 edi=03624eb4
eip=035ed2d9 esp=06f1ff58 ebp=06f1ff70 iopl=0         nv up ei pl zr na pe nc
cs=0023  ss=002b  ds=002b  es=002b  fs=0053  gs=002b             efl=00000246
WS7_S7AG!S7AG_IsTIAPortalStarted$qqsv+0x6f9a1:
035ed2d9 8b0d084e6203    mov     ecx,dword ptr [WS7_S7AG!__CPPdebugHook+0x28cfc (03624e08)] ds:002b:03624e08=06460000
eax=03624e3c ebx=03624ecc ecx=06460000 edx=00000000 esi=00000000 edi=03624eb4
eip=035ed2df esp=06f1ff58 ebp=06f1ff70 iopl=0         nv up ei pl zr na pe nc
cs=0023  ss=002b  ds=002b  es=002b  fs=0053  gs=002b             efl=00000246
WS7_S7AG!S7AG_IsTIAPortalStarted$qqsv+0x6f9a7:
035ed2df c1e205          shl     edx,5
eax=03624e3c ebx=03624ecc ecx=06460000 edx=00000000 esi=00000000 edi=03624eb4
eip=035ed2e2 esp=06f1ff58 ebp=06f1ff70 iopl=0         nv up ei pl zr na pe nc
cs=0023  ss=002b  ds=002b  es=002b  fs=0053  gs=002b             efl=00000246
WS7_S7AG!S7AG_IsTIAPortalStarted$qqsv+0x6f9aa:
035ed2e2 03d6            add     edx,esi
eax=03624e3c ebx=03624ecc ecx=06460000 edx=00000000 esi=00000000 edi=03624eb4
eip=035ed2e4 esp=06f1ff58 ebp=06f1ff70 iopl=0         nv up ei pl zr na pe nc
cs=0023  ss=002b  ds=002b  es=002b  fs=0053  gs=002b             efl=00000246
WS7_S7AG!S7AG_IsTIAPortalStarted$qqsv+0x6f9ac:
035ed2e4 c645ff01        mov     byte ptr [ebp-1],1         ss:002b:06f1ff6f=01
eax=03624e3c ebx=03624ecc ecx=06460000 edx=00000000 esi=00000000 edi=03624eb4
eip=035ed2e8 esp=06f1ff58 ebp=06f1ff70 iopl=0         nv up ei pl zr na pe nc
cs=0023  ss=002b  ds=002b  es=002b  fs=0053  gs=002b             efl=00000246
WS7_S7AG!S7AG_IsTIAPortalStarted$qqsv+0x6f9b0:
035ed2e8 80bc9160765b0000 cmp     byte ptr ws7v6!DlgdownloadspFinalize+0x555c (005b7660)[ecx+edx*4],0 ds:002b:06a17660=00
eax=03624e3c ebx=03624ecc ecx=06460000 edx=00000000 esi=00000000 edi=03624eb4
eip=035ed2f0 esp=06f1ff58 ebp=06f1ff70 iopl=0         nv up ei pl zr na pe nc
cs=0023  ss=002b  ds=002b  es=002b  fs=0053  gs=002b             efl=00000246
WS7_S7AG!S7AG_IsTIAPortalStarted$qqsv+0x6f9b8:
035ed2f0 746d            je      WS7_S7AG!S7AG_IsTIAPortalStarted$qqsv+0x6fa27 (035ed35f) [br=1]
eax=03624e3c ebx=03624ecc ecx=06460000 edx=00000000 esi=00000000 edi=03624eb4
eip=035ed35f esp=06f1ff58 ebp=06f1ff70 iopl=0         nv up ei pl zr na pe nc
cs=0023  ss=002b  ds=002b  es=002b  fs=0053  gs=002b             efl=00000246
WS7_S7AG!S7AG_IsTIAPortalStarted$qqsv+0x6fa27:
035ed35f 6a01            push    1
eax=03624e3c ebx=03624ecc ecx=06460000 edx=00000000 esi=00000000 edi=03624eb4
eip=035ed361 esp=06f1ff54 ebp=06f1ff70 iopl=0         nv up ei pl zr na pe nc
cs=0023  ss=002b  ds=002b  es=002b  fs=0053  gs=002b             efl=00000246
WS7_S7AG!S7AG_IsTIAPortalStarted$qqsv+0x6fa29:
035ed361 e87edd0000      call    WS7_S7AG!S7AG_IsTIAPortalStarted$qqsv+0x7d7ac (035fb0e4)
eax=00000000 ebx=03624ecc ecx=74276ea4 edx=00000000 esi=00000000 edi=03624eb4
eip=035ed366 esp=06f1ff58 ebp=06f1ff70 iopl=0         nv up ei pl zr na pe nc
cs=0023  ss=002b  ds=002b  es=002b  fs=0053  gs=002b             efl=00000246
WS7_S7AG!S7AG_IsTIAPortalStarted$qqsv+0x6fa2e:
035ed366 807dff00        cmp     byte ptr [ebp-1],0         ss:002b:06f1ff6f=01
eax=00000000 ebx=03624ecc ecx=74276ea4 edx=00000000 esi=00000000 edi=03624eb4
eip=035ed36a esp=06f1ff58 ebp=06f1ff70 iopl=0         nv up ei pl nz na po nc
cs=0023  ss=002b  ds=002b  es=002b  fs=0053  gs=002b             efl=00000202
WS7_S7AG!S7AG_IsTIAPortalStarted$qqsv+0x6fa32:
035ed36a 7407            je      WS7_S7AG!S7AG_IsTIAPortalStarted$qqsv+0x6fa3b (035ed373) [br=0]
eax=00000000 ebx=03624ecc ecx=74276ea4 edx=00000000 esi=00000000 edi=03624eb4
eip=035ed36c esp=06f1ff58 ebp=06f1ff70 iopl=0         nv up ei pl nz na po nc
cs=0023  ss=002b  ds=002b  es=002b  fs=0053  gs=002b             efl=00000202
WS7_S7AG!S7AG_IsTIAPortalStarted$qqsv+0x6fa34:
035ed36c 6a0a            push    0Ah
eax=00000000 ebx=03624ecc ecx=74276ea4 edx=00000000 esi=00000000 edi=03624eb4
eip=035ed36e esp=06f1ff54 ebp=06f1ff70 iopl=0         nv up ei pl nz na po nc
cs=0023  ss=002b  ds=002b  es=002b  fs=0053  gs=002b             efl=00000202
WS7_S7AG!S7AG_IsTIAPortalStarted$qqsv+0x6fa36:
035ed36e e871dd0000      call    WS7_S7AG!S7AG_IsTIAPortalStarted$qqsv+0x7d7ac (035fb0e4)
eax=00000000 ebx=03624ecc ecx=74276ea4 edx=00000000 esi=00000000 edi=03624eb4
eip=035ed373 esp=06f1ff58 ebp=06f1ff70 iopl=0         nv up ei pl zr na pe nc
cs=0023  ss=002b  ds=002b  es=002b  fs=0053  gs=002b             efl=00000246
WS7_S7AG!S7AG_IsTIAPortalStarted$qqsv+0x6fa3b:
035ed373 8b45f4          mov     eax,dword ptr [ebp-0Ch] ss:002b:06f1ff64=03624ec8
eax=03624ec8 ebx=03624ecc ecx=74276ea4 edx=00000000 esi=00000000 edi=03624eb4
eip=035ed376 esp=06f1ff58 ebp=06f1ff70 iopl=0         nv up ei pl zr na pe nc
cs=0023  ss=002b  ds=002b  es=002b  fs=0053  gs=002b             efl=00000246
WS7_S7AG!S7AG_IsTIAPortalStarted$qqsv+0x6fa3e:
035ed376 c60000          mov     byte ptr [eax],0           ds:002b:03624ec8=00
eax=03624ec8 ebx=03624ecc ecx=74276ea4 edx=00000000 esi=00000000 edi=03624eb4
eip=035ed379 esp=06f1ff58 ebp=06f1ff70 iopl=0         nv up ei pl zr na pe nc
cs=0023  ss=002b  ds=002b  es=002b  fs=0053  gs=002b             efl=00000246
WS7_S7AG!S7AG_IsTIAPortalStarted$qqsv+0x6fa41:
035ed379 803b00          cmp     byte ptr [ebx],0           ds:002b:03624ecc=00
eax=03624ec8 ebx=03624ecc ecx=74276ea4 edx=00000000 esi=00000000 edi=03624eb4
eip=035ed37c esp=06f1ff58 ebp=06f1ff70 iopl=0         nv up ei pl zr na pe nc
cs=0023  ss=002b  ds=002b  es=002b  fs=0053  gs=002b             efl=00000246
WS7_S7AG!S7AG_IsTIAPortalStarted$qqsv+0x6fa44:
035ed37c 0f8445ffffff    je      WS7_S7AG!S7AG_IsTIAPortalStarted$qqsv+0x6f98f (035ed2c7) [br=1]
eax=03624ec8 ebx=03624ecc ecx=74276ea4 edx=00000000 esi=00000000 edi=03624eb4
eip=035ed2c7 esp=06f1ff58 ebp=06f1ff70 iopl=0         nv up ei pl zr na pe nc
cs=0023  ss=002b  ds=002b  es=002b  fs=0053  gs=002b             efl=00000246
WS7_S7AG!S7AG_IsTIAPortalStarted$qqsv+0x6f98f:
035ed2c7 8b45f8          mov     eax,dword ptr [ebp-8] ss:002b:06f1ff68=03624e3c
eax=03624e3c ebx=03624ecc ecx=74276ea4 edx=00000000 esi=00000000 edi=03624eb4
eip=035ed2ca esp=06f1ff58 ebp=06f1ff70 iopl=0         nv up ei pl zr na pe nc
cs=0023  ss=002b  ds=002b  es=002b  fs=0053  gs=002b             efl=00000246
WS7_S7AG!S7AG_IsTIAPortalStarted$qqsv+0x6f992:
035ed2ca c60001          mov     byte ptr [eax],1           ds:002b:03624e3c=01
eax=03624e3c ebx=03624ecc ecx=74276ea4 edx=00000000 esi=00000000 edi=03624eb4
eip=035ed2cd esp=06f1ff58 ebp=06f1ff70 iopl=0         nv up ei pl zr na pe nc
cs=0023  ss=002b  ds=002b  es=002b  fs=0053  gs=002b             efl=00000246
WS7_S7AG!S7AG_IsTIAPortalStarted$qqsv+0x6f995:
035ed2cd 803b00          cmp     byte ptr [ebx],0           ds:002b:03624ecc=00
eax=03624e3c ebx=03624ecc ecx=74276ea4 edx=00000000 esi=00000000 edi=03624eb4
eip=035ed2d0 esp=06f1ff58 ebp=06f1ff70 iopl=0         nv up ei pl zr na pe nc
cs=0023  ss=002b  ds=002b  es=002b  fs=0053  gs=002b             efl=00000246
WS7_S7AG!S7AG_IsTIAPortalStarted$qqsv+0x6f998:
035ed2d0 7405            je      WS7_S7AG!S7AG_IsTIAPortalStarted$qqsv+0x6f99f (035ed2d7) [br=1]
eax=03624e3c ebx=03624ecc ecx=74276ea4 edx=00000000 esi=00000000 edi=03624eb4
eip=035ed2d7 esp=06f1ff58 ebp=06f1ff70 iopl=0         nv up ei pl zr na pe nc
cs=0023  ss=002b  ds=002b  es=002b  fs=0053  gs=002b             efl=00000246
WS7_S7AG!S7AG_IsTIAPortalStarted$qqsv+0x6f99f:
035ed2d7 8bd6            mov     edx,esi
eax=03624e3c ebx=03624ecc ecx=74276ea4 edx=00000000 esi=00000000 edi=03624eb4
eip=035ed2d9 esp=06f1ff58 ebp=06f1ff70 iopl=0         nv up ei pl zr na pe nc
cs=0023  ss=002b  ds=002b  es=002b  fs=0053  gs=002b             efl=00000246
WS7_S7AG!S7AG_IsTIAPortalStarted$qqsv+0x6f9a1:
035ed2d9 8b0d084e6203    mov     ecx,dword ptr [WS7_S7AG!__CPPdebugHook+0x28cfc (03624e08)] ds:002b:03624e08=06460000
eax=03624e3c ebx=03624ecc ecx=06460000 edx=00000000 esi=00000000 edi=03624eb4
eip=035ed2df esp=06f1ff58 ebp=06f1ff70 iopl=0         nv up ei pl zr na pe nc
cs=0023  ss=002b  ds=002b  es=002b  fs=0053  gs=002b             efl=00000246
WS7_S7AG!S7AG_IsTIAPortalStarted$qqsv+0x6f9a7:
035ed2df c1e205          shl     edx,5
eax=03624e3c ebx=03624ecc ecx=06460000 edx=00000000 esi=00000000 edi=03624eb4
eip=035ed2e2 esp=06f1ff58 ebp=06f1ff70 iopl=0         nv up ei pl zr na pe nc
cs=0023  ss=002b  ds=002b  es=002b  fs=0053  gs=002b             efl=00000246
WS7_S7AG!S7AG_IsTIAPortalStarted$qqsv+0x6f9aa:
035ed2e2 03d6            add     edx,esi
eax=03624e3c ebx=03624ecc ecx=06460000 edx=00000000 esi=00000000 edi=03624eb4
eip=035ed2e4 esp=06f1ff58 ebp=06f1ff70 iopl=0         nv up ei pl zr na pe nc
cs=0023  ss=002b  ds=002b  es=002b  fs=0053  gs=002b             efl=00000246
WS7_S7AG!S7AG_IsTIAPortalStarted$qqsv+0x6f9ac:
035ed2e4 c645ff01        mov     byte ptr [ebp-1],1         ss:002b:06f1ff6f=01
eax=03624e3c ebx=03624ecc ecx=06460000 edx=00000000 esi=00000000 edi=03624eb4
eip=035ed2e8 esp=06f1ff58 ebp=06f1ff70 iopl=0         nv up ei pl zr na pe nc
cs=0023  ss=002b  ds=002b  es=002b  fs=0053  gs=002b             efl=00000246
WS7_S7AG!S7AG_IsTIAPortalStarted$qqsv+0x6f9b0:
035ed2e8 80bc9160765b0000 cmp     byte ptr ws7v6!DlgdownloadspFinalize+0x555c (005b7660)[ecx+edx*4],0 ds:002b:06a17660=00
eax=03624e3c ebx=03624ecc ecx=06460000 edx=00000000 esi=00000000 edi=03624eb4
eip=035ed2f0 esp=06f1ff58 ebp=06f1ff70 iopl=0         nv up ei pl zr na pe nc
cs=0023  ss=002b  ds=002b  es=002b  fs=0053  gs=002b             efl=00000246
WS7_S7AG!S7AG_IsTIAPortalStarted$qqsv+0x6f9b8:
035ed2f0 746d            je      WS7_S7AG!S7AG_IsTIAPortalStarted$qqsv+0x6fa27 (035ed35f) [br=1]
eax=03624e3c ebx=03624ecc ecx=06460000 edx=00000000 esi=00000000 edi=03624eb4
eip=035ed35f esp=06f1ff58 ebp=06f1ff70 iopl=0         nv up ei pl zr na pe nc
cs=0023  ss=002b  ds=002b  es=002b  fs=0053  gs=002b             efl=00000246
WS7_S7AG!S7AG_IsTIAPortalStarted$qqsv+0x6fa27:
035ed35f 6a01            push    1
eax=03624e3c ebx=03624ecc ecx=06460000 edx=00000000 esi=00000000 edi=03624eb4
eip=035ed361 esp=06f1ff54 ebp=06f1ff70 iopl=0         nv up ei pl zr na pe nc
cs=0023  ss=002b  ds=002b  es=002b  fs=0053  gs=002b             efl=00000246
WS7_S7AG!S7AG_IsTIAPortalStarted$qqsv+0x6fa29:
035ed361 e87edd0000      call    WS7_S7AG!S7AG_IsTIAPortalStarted$qqsv+0x7d7ac (035fb0e4)
eax=00000000 ebx=03624ecc ecx=74276ea4 edx=00000000 esi=00000000 edi=03624eb4
eip=035ed366 esp=06f1ff58 ebp=06f1ff70 iopl=0         nv up ei pl zr na pe nc
cs=0023  ss=002b  ds=002b  es=002b  fs=0053  gs=002b             efl=00000246
WS7_S7AG!S7AG_IsTIAPortalStarted$qqsv+0x6fa2e:
035ed366 807dff00        cmp     byte ptr [ebp-1],0         ss:002b:06f1ff6f=01
eax=00000000 ebx=03624ecc ecx=74276ea4 edx=00000000 esi=00000000 edi=03624eb4
eip=035ed36a esp=06f1ff58 ebp=06f1ff70 iopl=0         nv up ei pl nz na po nc
cs=0023  ss=002b  ds=002b  es=002b  fs=0053  gs=002b             efl=00000202
WS7_S7AG!S7AG_IsTIAPortalStarted$qqsv+0x6fa32:
035ed36a 7407            je      WS7_S7AG!S7AG_IsTIAPortalStarted$qqsv+0x6fa3b (035ed373) [br=0]
eax=00000000 ebx=03624ecc ecx=74276ea4 edx=00000000 esi=00000000 edi=03624eb4
eip=035ed36c esp=06f1ff58 ebp=06f1ff70 iopl=0         nv up ei pl nz na po nc
cs=0023  ss=002b  ds=002b  es=002b  fs=0053  gs=002b             efl=00000202
WS7_S7AG!S7AG_IsTIAPortalStarted$qqsv+0x6fa34:
035ed36c 6a0a            push    0Ah
eax=00000000 ebx=03624ecc ecx=74276ea4 edx=00000000 esi=00000000 edi=03624eb4
eip=035ed36e esp=06f1ff54 ebp=06f1ff70 iopl=0         nv up ei pl nz na po nc
cs=0023  ss=002b  ds=002b  es=002b  fs=0053  gs=002b             efl=00000202
WS7_S7AG!S7AG_IsTIAPortalStarted$qqsv+0x6fa36:
035ed36e e871dd0000      call    WS7_S7AG!S7AG_IsTIAPortalStarted$qqsv+0x7d7ac (035fb0e4)
eax=00000000 ebx=03624ecc ecx=74276ea4 edx=00000000 esi=00000000 edi=03624eb4
eip=035ed373 esp=06f1ff58 ebp=06f1ff70 iopl=0         nv up ei pl zr na pe nc
cs=0023  ss=002b  ds=002b  es=002b  fs=0053  gs=002b             efl=00000246
WS7_S7AG!S7AG_IsTIAPortalStarted$qqsv+0x6fa3b:
035ed373 8b45f4          mov     eax,dword ptr [ebp-0Ch] ss:002b:06f1ff64=03624ec8
eax=03624ec8 ebx=03624ecc ecx=74276ea4 edx=00000000 esi=00000000 edi=03624eb4
eip=035ed376 esp=06f1ff58 ebp=06f1ff70 iopl=0         nv up ei pl zr na pe nc
cs=0023  ss=002b  ds=002b  es=002b  fs=0053  gs=002b             efl=00000246
WS7_S7AG!S7AG_IsTIAPortalStarted$qqsv+0x6fa3e:
035ed376 c60000          mov     byte ptr [eax],0           ds:002b:03624ec8=00
eax=03624ec8 ebx=03624ecc ecx=74276ea4 edx=00000000 esi=00000000 edi=03624eb4
eip=035ed379 esp=06f1ff58 ebp=06f1ff70 iopl=0         nv up ei pl zr na pe nc
cs=0023  ss=002b  ds=002b  es=002b  fs=0053  gs=002b             efl=00000246
WS7_S7AG!S7AG_IsTIAPortalStarted$qqsv+0x6fa41:
035ed379 803b00          cmp     byte ptr [ebx],0           ds:002b:03624ecc=00
eax=03624ec8 ebx=03624ecc ecx=74276ea4 edx=00000000 esi=00000000 edi=03624eb4
eip=035ed37c esp=06f1ff58 ebp=06f1ff70 iopl=0         nv up ei pl zr na pe nc
cs=0023  ss=002b  ds=002b  es=002b  fs=0053  gs=002b             efl=00000246
WS7_S7AG!S7AG_IsTIAPortalStarted$qqsv+0x6fa44:
035ed37c 0f8445ffffff    je      WS7_S7AG!S7AG_IsTIAPortalStarted$qqsv+0x6f98f (035ed2c7) [br=1]
eax=03624ec8 ebx=03624ecc ecx=74276ea4 edx=00000000 esi=00000000 edi=03624eb4
eip=035ed2c7 esp=06f1ff58 ebp=06f1ff70 iopl=0         nv up ei pl zr na pe nc
cs=0023  ss=002b  ds=002b  es=002b  fs=0053  gs=002b             efl=00000246
WS7_S7AG!S7AG_IsTIAPortalStarted$qqsv+0x6f98f:
035ed2c7 8b45f8          mov     eax,dword ptr [ebp-8] ss:002b:06f1ff68=03624e3c
eax=03624e3c ebx=03624ecc ecx=74276ea4 edx=00000000 esi=00000000 edi=03624eb4
eip=035ed2ca esp=06f1ff58 ebp=06f1ff70 iopl=0         nv up ei pl zr na pe nc
cs=0023  ss=002b  ds=002b  es=002b  fs=0053  gs=002b             efl=00000246
WS7_S7AG!S7AG_IsTIAPortalStarted$qqsv+0x6f992:
035ed2ca c60001          mov     byte ptr [eax],1           ds:002b:03624e3c=01
eax=03624e3c ebx=03624ecc ecx=74276ea4 edx=00000000 esi=00000000 edi=03624eb4
eip=035ed2cd esp=06f1ff58 ebp=06f1ff70 iopl=0         nv up ei pl zr na pe nc
cs=0023  ss=002b  ds=002b  es=002b  fs=0053  gs=002b             efl=00000246
WS7_S7AG!S7AG_IsTIAPortalStarted$qqsv+0x6f995:
035ed2cd 803b00          cmp     byte ptr [ebx],0           ds:002b:03624ecc=00
eax=03624e3c ebx=03624ecc ecx=74276ea4 edx=00000000 esi=00000000 edi=03624eb4
eip=035ed2d0 esp=06f1ff58 ebp=06f1ff70 iopl=0         nv up ei pl zr na pe nc
cs=0023  ss=002b  ds=002b  es=002b  fs=0053  gs=002b             efl=00000246
WS7_S7AG!S7AG_IsTIAPortalStarted$qqsv+0x6f998:
035ed2d0 7405            je      WS7_S7AG!S7AG_IsTIAPortalStarted$qqsv+0x6f99f (035ed2d7) [br=1]
eax=03624e3c ebx=03624ecc ecx=74276ea4 edx=00000000 esi=00000000 edi=03624eb4
eip=035ed2d7 esp=06f1ff58 ebp=06f1ff70 iopl=0         nv up ei pl zr na pe nc
cs=0023  ss=002b  ds=002b  es=002b  fs=0053  gs=002b             efl=00000246
WS7_S7AG!S7AG_IsTIAPortalStarted$qqsv+0x6f99f:
035ed2d7 8bd6            mov     edx,esi
eax=03624e3c ebx=03624ecc ecx=74276ea4 edx=00000000 esi=00000000 edi=03624eb4
eip=035ed2d9 esp=06f1ff58 ebp=06f1ff70 iopl=0         nv up ei pl zr na pe nc
cs=0023  ss=002b  ds=002b  es=002b  fs=0053  gs=002b             efl=00000246
WS7_S7AG!S7AG_IsTIAPortalStarted$qqsv+0x6f9a1:
035ed2d9 8b0d084e6203    mov     ecx,dword ptr [WS7_S7AG!__CPPdebugHook+0x28cfc (03624e08)] ds:002b:03624e08=06460000
eax=03624e3c ebx=03624ecc ecx=06460000 edx=00000000 esi=00000000 edi=03624eb4
eip=035ed2df esp=06f1ff58 ebp=06f1ff70 iopl=0         nv up ei pl zr na pe nc
cs=0023  ss=002b  ds=002b  es=002b  fs=0053  gs=002b             efl=00000246
WS7_S7AG!S7AG_IsTIAPortalStarted$qqsv+0x6f9a7:
035ed2df c1e205          shl     edx,5
eax=03624e3c ebx=03624ecc ecx=06460000 edx=00000000 esi=00000000 edi=03624eb4
eip=035ed2e2 esp=06f1ff58 ebp=06f1ff70 iopl=0         nv up ei pl zr na pe nc
cs=0023  ss=002b  ds=002b  es=002b  fs=0053  gs=002b             efl=00000246
WS7_S7AG!S7AG_IsTIAPortalStarted$qqsv+0x6f9aa:
035ed2e2 03d6            add     edx,esi
eax=03624e3c ebx=03624ecc ecx=06460000 edx=00000000 esi=00000000 edi=03624eb4
eip=035ed2e4 esp=06f1ff58 ebp=06f1ff70 iopl=0         nv up ei pl zr na pe nc
cs=0023  ss=002b  ds=002b  es=002b  fs=0053  gs=002b             efl=00000246
WS7_S7AG!S7AG_IsTIAPortalStarted$qqsv+0x6f9ac:
035ed2e4 c645ff01        mov     byte ptr [ebp-1],1         ss:002b:06f1ff6f=01
eax=03624e3c ebx=03624ecc ecx=06460000 edx=00000000 esi=00000000 edi=03624eb4
eip=035ed2e8 esp=06f1ff58 ebp=06f1ff70 iopl=0         nv up ei pl zr na pe nc
cs=0023  ss=002b  ds=002b  es=002b  fs=0053  gs=002b             efl=00000246
WS7_S7AG!S7AG_IsTIAPortalStarted$qqsv+0x6f9b0:
035ed2e8 80bc9160765b0000 cmp     byte ptr ws7v6!DlgdownloadspFinalize+0x555c (005b7660)[ecx+edx*4],0 ds:002b:06a17660=00
eax=03624e3c ebx=03624ecc ecx=06460000 edx=00000000 esi=00000000 edi=03624eb4
eip=035ed2f0 esp=06f1ff58 ebp=06f1ff70 iopl=0         nv up ei pl zr na pe nc
cs=0023  ss=002b  ds=002b  es=002b  fs=0053  gs=002b             efl=00000246
WS7_S7AG!S7AG_IsTIAPortalStarted$qqsv+0x6f9b8:
035ed2f0 746d            je      WS7_S7AG!S7AG_IsTIAPortalStarted$qqsv+0x6fa27 (035ed35f) [br=1]
eax=03624e3c ebx=03624ecc ecx=06460000 edx=00000000 esi=00000000 edi=03624eb4
eip=035ed35f esp=06f1ff58 ebp=06f1ff70 iopl=0         nv up ei pl zr na pe nc
cs=0023  ss=002b  ds=002b  es=002b  fs=0053  gs=002b             efl=00000246
WS7_S7AG!S7AG_IsTIAPortalStarted$qqsv+0x6fa27:
035ed35f 6a01            push    1
eax=03624e3c ebx=03624ecc ecx=06460000 edx=00000000 esi=00000000 edi=03624eb4
eip=035ed361 esp=06f1ff54 ebp=06f1ff70 iopl=0         nv up ei pl zr na pe nc
cs=0023  ss=002b  ds=002b  es=002b  fs=0053  gs=002b             efl=00000246
WS7_S7AG!S7AG_IsTIAPortalStarted$qqsv+0x6fa29:
035ed361 e87edd0000      call    WS7_S7AG!S7AG_IsTIAPortalStarted$qqsv+0x7d7ac (035fb0e4)
eax=00000000 ebx=03624ecc ecx=74276ea4 edx=00000000 esi=00000000 edi=03624eb4
eip=035ed366 esp=06f1ff58 ebp=06f1ff70 iopl=0         nv up ei pl zr na pe nc
cs=0023  ss=002b  ds=002b  es=002b  fs=0053  gs=002b             efl=00000246
WS7_S7AG!S7AG_IsTIAPortalStarted$qqsv+0x6fa2e:
035ed366 807dff00        cmp     byte ptr [ebp-1],0         ss:002b:06f1ff6f=01
eax=00000000 ebx=03624ecc ecx=74276ea4 edx=00000000 esi=00000000 edi=03624eb4
eip=035ed36a esp=06f1ff58 ebp=06f1ff70 iopl=0         nv up ei pl nz na po nc
cs=0023  ss=002b  ds=002b  es=002b  fs=0053  gs=002b             efl=00000202
WS7_S7AG!S7AG_IsTIAPortalStarted$qqsv+0x6fa32:
035ed36a 7407            je      WS7_S7AG!S7AG_IsTIAPortalStarted$qqsv+0x6fa3b (035ed373) [br=0]
eax=00000000 ebx=03624ecc ecx=74276ea4 edx=00000000 esi=00000000 edi=03624eb4
eip=035ed36c esp=06f1ff58 ebp=06f1ff70 iopl=0         nv up ei pl nz na po nc
cs=0023  ss=002b  ds=002b  es=002b  fs=0053  gs=002b             efl=00000202
WS7_S7AG!S7AG_IsTIAPortalStarted$qqsv+0x6fa34:
035ed36c 6a0a            push    0Ah
eax=00000000 ebx=03624ecc ecx=74276ea4 edx=00000000 esi=00000000 edi=03624eb4
eip=035ed36e esp=06f1ff54 ebp=06f1ff70 iopl=0         nv up ei pl nz na po nc
cs=0023  ss=002b  ds=002b  es=002b  fs=0053  gs=002b             efl=00000202
WS7_S7AG!S7AG_IsTIAPortalStarted$qqsv+0x6fa36:
035ed36e e871dd0000      call    WS7_S7AG!S7AG_IsTIAPortalStarted$qqsv+0x7d7ac (035fb0e4)
eax=00000000 ebx=03624ecc ecx=74276ea4 edx=00000000 esi=00000000 edi=03624eb4
eip=035ed373 esp=06f1ff58 ebp=06f1ff70 iopl=0         nv up ei pl zr na pe nc
cs=0023  ss=002b  ds=002b  es=002b  fs=0053  gs=002b             efl=00000246
WS7_S7AG!S7AG_IsTIAPortalStarted$qqsv+0x6fa3b:
035ed373 8b45f4          mov     eax,dword ptr [ebp-0Ch] ss:002b:06f1ff64=03624ec8
eax=03624ec8 ebx=03624ecc ecx=74276ea4 edx=00000000 esi=00000000 edi=03624eb4
eip=035ed376 esp=06f1ff58 ebp=06f1ff70 iopl=0         nv up ei pl zr na pe nc
cs=0023  ss=002b  ds=002b  es=002b  fs=0053  gs=002b             efl=00000246
WS7_S7AG!S7AG_IsTIAPortalStarted$qqsv+0x6fa3e:
035ed376 c60000          mov     byte ptr [eax],0           ds:002b:03624ec8=00
eax=03624ec8 ebx=03624ecc ecx=74276ea4 edx=00000000 esi=00000000 edi=03624eb4
eip=035ed379 esp=06f1ff58 ebp=06f1ff70 iopl=0         nv up ei pl zr na pe nc
cs=0023  ss=002b  ds=002b  es=002b  fs=0053  gs=002b             efl=00000246
WS7_S7AG!S7AG_IsTIAPortalStarted$qqsv+0x6fa41:
035ed379 803b00          cmp     byte ptr [ebx],0           ds:002b:03624ecc=00
eax=03624ec8 ebx=03624ecc ecx=74276ea4 edx=00000000 esi=00000000 edi=03624eb4
eip=035ed37c esp=06f1ff58 ebp=06f1ff70 iopl=0         nv up ei pl zr na pe nc
cs=0023  ss=002b  ds=002b  es=002b  fs=0053  gs=002b             efl=00000246
WS7_S7AG!S7AG_IsTIAPortalStarted$qqsv+0x6fa44:
035ed37c 0f8445ffffff    je      WS7_S7AG!S7AG_IsTIAPortalStarted$qqsv+0x6f98f (035ed2c7) [br=1]
eax=03624ec8 ebx=03624ecc ecx=74276ea4 edx=00000000 esi=00000000 edi=03624eb4
eip=035ed2c7 esp=06f1ff58 ebp=06f1ff70 iopl=0         nv up ei pl zr na pe nc
cs=0023  ss=002b  ds=002b  es=002b  fs=0053  gs=002b             efl=00000246
WS7_S7AG!S7AG_IsTIAPortalStarted$qqsv+0x6f98f:
035ed2c7 8b45f8          mov     eax,dword ptr [ebp-8] ss:002b:06f1ff68=03624e3c
eax=03624e3c ebx=03624ecc ecx=74276ea4 edx=00000000 esi=00000000 edi=03624eb4
eip=035ed2ca esp=06f1ff58 ebp=06f1ff70 iopl=0         nv up ei pl zr na pe nc
cs=0023  ss=002b  ds=002b  es=002b  fs=0053  gs=002b             efl=00000246
WS7_S7AG!S7AG_IsTIAPortalStarted$qqsv+0x6f992:
035ed2ca c60001          mov     byte ptr [eax],1           ds:002b:03624e3c=01
eax=03624e3c ebx=03624ecc ecx=74276ea4 edx=00000000 esi=00000000 edi=03624eb4
eip=035ed2cd esp=06f1ff58 ebp=06f1ff70 iopl=0         nv up ei pl zr na pe nc
cs=0023  ss=002b  ds=002b  es=002b  fs=0053  gs=002b             efl=00000246
WS7_S7AG!S7AG_IsTIAPortalStarted$qqsv+0x6f995:
035ed2cd 803b00          cmp     byte ptr [ebx],0           ds:002b:03624ecc=00
eax=03624e3c ebx=03624ecc ecx=74276ea4 edx=00000000 esi=00000000 edi=03624eb4
eip=035ed2d0 esp=06f1ff58 ebp=06f1ff70 iopl=0         nv up ei pl zr na pe nc
cs=0023  ss=002b  ds=002b  es=002b  fs=0053  gs=002b             efl=00000246
WS7_S7AG!S7AG_IsTIAPortalStarted$qqsv+0x6f998:
035ed2d0 7405            je      WS7_S7AG!S7AG_IsTIAPortalStarted$qqsv+0x6f99f (035ed2d7) [br=1]
eax=03624e3c ebx=03624ecc ecx=74276ea4 edx=00000000 esi=00000000 edi=03624eb4
eip=035ed2d7 esp=06f1ff58 ebp=06f1ff70 iopl=0         nv up ei pl zr na pe nc
cs=0023  ss=002b  ds=002b  es=002b  fs=0053  gs=002b             efl=00000246
WS7_S7AG!S7AG_IsTIAPortalStarted$qqsv+0x6f99f:
035ed2d7 8bd6            mov     edx,esi
eax=03624e3c ebx=03624ecc ecx=74276ea4 edx=00000000 esi=00000000 edi=03624eb4
eip=035ed2d9 esp=06f1ff58 ebp=06f1ff70 iopl=0         nv up ei pl zr na pe nc
cs=0023  ss=002b  ds=002b  es=002b  fs=0053  gs=002b             efl=00000246
WS7_S7AG!S7AG_IsTIAPortalStarted$qqsv+0x6f9a1:
035ed2d9 8b0d084e6203    mov     ecx,dword ptr [WS7_S7AG!__CPPdebugHook+0x28cfc (03624e08)] ds:002b:03624e08=06460000
eax=03624e3c ebx=03624ecc ecx=06460000 edx=00000000 esi=00000000 edi=03624eb4
eip=035ed2df esp=06f1ff58 ebp=06f1ff70 iopl=0         nv up ei pl zr na pe nc
cs=0023  ss=002b  ds=002b  es=002b  fs=0053  gs=002b             efl=00000246
WS7_S7AG!S7AG_IsTIAPortalStarted$qqsv+0x6f9a7:
035ed2df c1e205          shl     edx,5
eax=03624e3c ebx=03624ecc ecx=06460000 edx=00000000 esi=00000000 edi=03624eb4
eip=035ed2e2 esp=06f1ff58 ebp=06f1ff70 iopl=0         nv up ei pl zr na pe nc
cs=0023  ss=002b  ds=002b  es=002b  fs=0053  gs=002b             efl=00000246
WS7_S7AG!S7AG_IsTIAPortalStarted$qqsv+0x6f9aa:
035ed2e2 03d6            add     edx,esi
eax=03624e3c ebx=03624ecc ecx=06460000 edx=00000000 esi=00000000 edi=03624eb4
eip=035ed2e4 esp=06f1ff58 ebp=06f1ff70 iopl=0         nv up ei pl zr na pe nc
cs=0023  ss=002b  ds=002b  es=002b  fs=0053  gs=002b             efl=00000246
WS7_S7AG!S7AG_IsTIAPortalStarted$qqsv+0x6f9ac:
035ed2e4 c645ff01        mov     byte ptr [ebp-1],1         ss:002b:06f1ff6f=01
eax=03624e3c ebx=03624ecc ecx=06460000 edx=00000000 esi=00000000 edi=03624eb4
eip=035ed2e8 esp=06f1ff58 ebp=06f1ff70 iopl=0         nv up ei pl zr na pe nc
cs=0023  ss=002b  ds=002b  es=002b  fs=0053  gs=002b             efl=00000246
WS7_S7AG!S7AG_IsTIAPortalStarted$qqsv+0x6f9b0:
035ed2e8 80bc9160765b0000 cmp     byte ptr ws7v6!DlgdownloadspFinalize+0x555c (005b7660)[ecx+edx*4],0 ds:002b:06a17660=00
eax=03624e3c ebx=03624ecc ecx=06460000 edx=00000000 esi=00000000 edi=03624eb4
eip=035ed2f0 esp=06f1ff58 ebp=06f1ff70 iopl=0         nv up ei pl zr na pe nc
cs=0023  ss=002b  ds=002b  es=002b  fs=0053  gs=002b             efl=00000246
WS7_S7AG!S7AG_IsTIAPortalStarted$qqsv+0x6f9b8:
035ed2f0 746d            je      WS7_S7AG!S7AG_IsTIAPortalStarted$qqsv+0x6fa27 (035ed35f) [br=1]
eax=03624e3c ebx=03624ecc ecx=06460000 edx=00000000 esi=00000000 edi=03624eb4
eip=035ed35f esp=06f1ff58 ebp=06f1ff70 iopl=0         nv up ei pl zr na pe nc
cs=0023  ss=002b  ds=002b  es=002b  fs=0053  gs=002b             efl=00000246
WS7_S7AG!S7AG_IsTIAPortalStarted$qqsv+0x6fa27:
035ed35f 6a01            push    1
eax=03624e3c ebx=03624ecc ecx=06460000 edx=00000000 esi=00000000 edi=03624eb4
eip=035ed361 esp=06f1ff54 ebp=06f1ff70 iopl=0         nv up ei pl zr na pe nc
cs=0023  ss=002b  ds=002b  es=002b  fs=0053  gs=002b             efl=00000246
WS7_S7AG!S7AG_IsTIAPortalStarted$qqsv+0x6fa29:
035ed361 e87edd0000      call    WS7_S7AG!S7AG_IsTIAPortalStarted$qqsv+0x7d7ac (035fb0e4)
eax=00000000 ebx=03624ecc ecx=74276ea4 edx=00000000 esi=00000000 edi=03624eb4
eip=035ed366 esp=06f1ff58 ebp=06f1ff70 iopl=0         nv up ei pl zr na pe nc
cs=0023  ss=002b  ds=002b  es=002b  fs=0053  gs=002b             efl=00000246
WS7_S7AG!S7AG_IsTIAPortalStarted$qqsv+0x6fa2e:
035ed366 807dff00        cmp     byte ptr [ebp-1],0         ss:002b:06f1ff6f=01
eax=00000000 ebx=03624ecc ecx=74276ea4 edx=00000000 esi=00000000 edi=03624eb4
eip=035ed36a esp=06f1ff58 ebp=06f1ff70 iopl=0         nv up ei pl nz na po nc
cs=0023  ss=002b  ds=002b  es=002b  fs=0053  gs=002b             efl=00000202
WS7_S7AG!S7AG_IsTIAPortalStarted$qqsv+0x6fa32:
035ed36a 7407            je      WS7_S7AG!S7AG_IsTIAPortalStarted$qqsv+0x6fa3b (035ed373) [br=0]
eax=00000000 ebx=03624ecc ecx=74276ea4 edx=00000000 esi=00000000 edi=03624eb4
eip=035ed36c esp=06f1ff58 ebp=06f1ff70 iopl=0         nv up ei pl nz na po nc
cs=0023  ss=002b  ds=002b  es=002b  fs=0053  gs=002b             efl=00000202
WS7_S7AG!S7AG_IsTIAPortalStarted$qqsv+0x6fa34:
035ed36c 6a0a            push    0Ah
eax=00000000 ebx=03624ecc ecx=74276ea4 edx=00000000 esi=00000000 edi=03624eb4
eip=035ed36e esp=06f1ff54 ebp=06f1ff70 iopl=0         nv up ei pl nz na po nc
cs=0023  ss=002b  ds=002b  es=002b  fs=0053  gs=002b             efl=00000202
WS7_S7AG!S7AG_IsTIAPortalStarted$qqsv+0x6fa36:
035ed36e e871dd0000      call    WS7_S7AG!S7AG_IsTIAPortalStarted$qqsv+0x7d7ac (035fb0e4)
eax=00000000 ebx=03624ecc ecx=74276ea4 edx=00000000 esi=00000000 edi=03624eb4
eip=035ed373 esp=06f1ff58 ebp=06f1ff70 iopl=0         nv up ei pl zr na pe nc
cs=0023  ss=002b  ds=002b  es=002b  fs=0053  gs=002b             efl=00000246
WS7_S7AG!S7AG_IsTIAPortalStarted$qqsv+0x6fa3b:
035ed373 8b45f4          mov     eax,dword ptr [ebp-0Ch] ss:002b:06f1ff64=03624ec8
eax=03624ec8 ebx=03624ecc ecx=74276ea4 edx=00000000 esi=00000000 edi=03624eb4
eip=035ed376 esp=06f1ff58 ebp=06f1ff70 iopl=0         nv up ei pl zr na pe nc
cs=0023  ss=002b  ds=002b  es=002b  fs=0053  gs=002b             efl=00000246
WS7_S7AG!S7AG_IsTIAPortalStarted$qqsv+0x6fa3e:
035ed376 c60000          mov     byte ptr [eax],0           ds:002b:03624ec8=00
eax=03624ec8 ebx=03624ecc ecx=74276ea4 edx=00000000 esi=00000000 edi=03624eb4
eip=035ed379 esp=06f1ff58 ebp=06f1ff70 iopl=0         nv up ei pl zr na pe nc
cs=0023  ss=002b  ds=002b  es=002b  fs=0053  gs=002b             efl=00000246
WS7_S7AG!S7AG_IsTIAPortalStarted$qqsv+0x6fa41:
035ed379 803b00          cmp     byte ptr [ebx],0           ds:002b:03624ecc=00
eax=03624ec8 ebx=03624ecc ecx=74276ea4 edx=00000000 esi=00000000 edi=03624eb4
eip=035ed37c esp=06f1ff58 ebp=06f1ff70 iopl=0         nv up ei pl zr na pe nc
cs=0023  ss=002b  ds=002b  es=002b  fs=0053  gs=002b             efl=00000246
WS7_S7AG!S7AG_IsTIAPortalStarted$qqsv+0x6fa44:
035ed37c 0f8445ffffff    je      WS7_S7AG!S7AG_IsTIAPortalStarted$qqsv+0x6f98f (035ed2c7) [br=1]
eax=03624ec8 ebx=03624ecc ecx=74276ea4 edx=00000000 esi=00000000 edi=03624eb4
eip=035ed2c7 esp=06f1ff58 ebp=06f1ff70 iopl=0         nv up ei pl zr na pe nc
cs=0023  ss=002b  ds=002b  es=002b  fs=0053  gs=002b             efl=00000246
WS7_S7AG!S7AG_IsTIAPortalStarted$qqsv+0x6f98f:
035ed2c7 8b45f8          mov     eax,dword ptr [ebp-8] ss:002b:06f1ff68=03624e3c
eax=03624e3c ebx=03624ecc ecx=74276ea4 edx=00000000 esi=00000000 edi=03624eb4
eip=035ed2ca esp=06f1ff58 ebp=06f1ff70 iopl=0         nv up ei pl zr na pe nc
cs=0023  ss=002b  ds=002b  es=002b  fs=0053  gs=002b             efl=00000246
WS7_S7AG!S7AG_IsTIAPortalStarted$qqsv+0x6f992:
035ed2ca c60001          mov     byte ptr [eax],1           ds:002b:03624e3c=01
eax=03624e3c ebx=03624ecc ecx=74276ea4 edx=00000000 esi=00000000 edi=03624eb4
eip=035ed2cd esp=06f1ff58 ebp=06f1ff70 iopl=0         nv up ei pl zr na pe nc
cs=0023  ss=002b  ds=002b  es=002b  fs=0053  gs=002b             efl=00000246
WS7_S7AG!S7AG_IsTIAPortalStarted$qqsv+0x6f995:
035ed2cd 803b00          cmp     byte ptr [ebx],0           ds:002b:03624ecc=00
eax=03624e3c ebx=03624ecc ecx=74276ea4 edx=00000000 esi=00000000 edi=03624eb4
eip=035ed2d0 esp=06f1ff58 ebp=06f1ff70 iopl=0         nv up ei pl zr na pe nc
cs=0023  ss=002b  ds=002b  es=002b  fs=0053  gs=002b             efl=00000246
WS7_S7AG!S7AG_IsTIAPortalStarted$qqsv+0x6f998:
035ed2d0 7405            je      WS7_S7AG!S7AG_IsTIAPortalStarted$qqsv+0x6f99f (035ed2d7) [br=1]
eax=03624e3c ebx=03624ecc ecx=74276ea4 edx=00000000 esi=00000000 edi=03624eb4
eip=035ed2d7 esp=06f1ff58 ebp=06f1ff70 iopl=0         nv up ei pl zr na pe nc
cs=0023  ss=002b  ds=002b  es=002b  fs=0053  gs=002b             efl=00000246
WS7_S7AG!S7AG_IsTIAPortalStarted$qqsv+0x6f99f:
035ed2d7 8bd6            mov     edx,esi
eax=03624e3c ebx=03624ecc ecx=74276ea4 edx=00000000 esi=00000000 edi=03624eb4
eip=035ed2d9 esp=06f1ff58 ebp=06f1ff70 iopl=0         nv up ei pl zr na pe nc
cs=0023  ss=002b  ds=002b  es=002b  fs=0053  gs=002b             efl=00000246
WS7_S7AG!S7AG_IsTIAPortalStarted$qqsv+0x6f9a1:
035ed2d9 8b0d084e6203    mov     ecx,dword ptr [WS7_S7AG!__CPPdebugHook+0x28cfc (03624e08)] ds:002b:03624e08=06460000
eax=03624e3c ebx=03624ecc ecx=06460000 edx=00000000 esi=00000000 edi=03624eb4
eip=035ed2df esp=06f1ff58 ebp=06f1ff70 iopl=0         nv up ei pl zr na pe nc
cs=0023  ss=002b  ds=002b  es=002b  fs=0053  gs=002b             efl=00000246
WS7_S7AG!S7AG_IsTIAPortalStarted$qqsv+0x6f9a7:
035ed2df c1e205          shl     edx,5
eax=03624e3c ebx=03624ecc ecx=06460000 edx=00000000 esi=00000000 edi=03624eb4
eip=035ed2e2 esp=06f1ff58 ebp=06f1ff70 iopl=0         nv up ei pl zr na pe nc
cs=0023  ss=002b  ds=002b  es=002b  fs=0053  gs=002b             efl=00000246
WS7_S7AG!S7AG_IsTIAPortalStarted$qqsv+0x6f9aa:
035ed2e2 03d6            add     edx,esi
eax=03624e3c ebx=03624ecc ecx=06460000 edx=00000000 esi=00000000 edi=03624eb4
eip=035ed2e4 esp=06f1ff58 ebp=06f1ff70 iopl=0         nv up ei pl zr na pe nc
cs=0023  ss=002b  ds=002b  es=002b  fs=0053  gs=002b             efl=00000246
WS7_S7AG!S7AG_IsTIAPortalStarted$qqsv+0x6f9ac:
035ed2e4 c645ff01        mov     byte ptr [ebp-1],1         ss:002b:06f1ff6f=01
eax=03624e3c ebx=03624ecc ecx=06460000 edx=00000000 esi=00000000 edi=03624eb4
eip=035ed2e8 esp=06f1ff58 ebp=06f1ff70 iopl=0         nv up ei pl zr na pe nc
cs=0023  ss=002b  ds=002b  es=002b  fs=0053  gs=002b             efl=00000246
WS7_S7AG!S7AG_IsTIAPortalStarted$qqsv+0x6f9b0:
035ed2e8 80bc9160765b0000 cmp     byte ptr ws7v6!DlgdownloadspFinalize+0x555c (005b7660)[ecx+edx*4],0 ds:002b:06a17660=00
eax=03624e3c ebx=03624ecc ecx=06460000 edx=00000000 esi=00000000 edi=03624eb4
eip=035ed2f0 esp=06f1ff58 ebp=06f1ff70 iopl=0         nv up ei pl zr na pe nc
cs=0023  ss=002b  ds=002b  es=002b  fs=0053  gs=002b             efl=00000246
WS7_S7AG!S7AG_IsTIAPortalStarted$qqsv+0x6f9b8:
035ed2f0 746d            je      WS7_S7AG!S7AG_IsTIAPortalStarted$qqsv+0x6fa27 (035ed35f) [br=1]
eax=03624e3c ebx=03624ecc ecx=06460000 edx=00000000 esi=00000000 edi=03624eb4
eip=035ed35f esp=06f1ff58 ebp=06f1ff70 iopl=0         nv up ei pl zr na pe nc
cs=0023  ss=002b  ds=002b  es=002b  fs=0053  gs=002b             efl=00000246
WS7_S7AG!S7AG_IsTIAPortalStarted$qqsv+0x6fa27:
035ed35f 6a01            push    1
eax=03624e3c ebx=03624ecc ecx=06460000 edx=00000000 esi=00000000 edi=03624eb4
eip=035ed361 esp=06f1ff54 ebp=06f1ff70 iopl=0         nv up ei pl zr na pe nc
cs=0023  ss=002b  ds=002b  es=002b  fs=0053  gs=002b             efl=00000246
WS7_S7AG!S7AG_IsTIAPortalStarted$qqsv+0x6fa29:
035ed361 e87edd0000      call    WS7_S7AG!S7AG_IsTIAPortalStarted$qqsv+0x7d7ac (035fb0e4)
eax=00000000 ebx=03624ecc ecx=74276ea4 edx=00000000 esi=00000000 edi=03624eb4
eip=035ed366 esp=06f1ff58 ebp=06f1ff70 iopl=0         nv up ei pl zr na pe nc
cs=0023  ss=002b  ds=002b  es=002b  fs=0053  gs=002b             efl=00000246
WS7_S7AG!S7AG_IsTIAPortalStarted$qqsv+0x6fa2e:
035ed366 807dff00        cmp     byte ptr [ebp-1],0         ss:002b:06f1ff6f=01
eax=00000000 ebx=03624ecc ecx=74276ea4 edx=00000000 esi=00000000 edi=03624eb4
eip=035ed36a esp=06f1ff58 ebp=06f1ff70 iopl=0         nv up ei pl nz na po nc
cs=0023  ss=002b  ds=002b  es=002b  fs=0053  gs=002b             efl=00000202
WS7_S7AG!S7AG_IsTIAPortalStarted$qqsv+0x6fa32:
035ed36a 7407            je      WS7_S7AG!S7AG_IsTIAPortalStarted$qqsv+0x6fa3b (035ed373) [br=0]
eax=00000000 ebx=03624ecc ecx=74276ea4 edx=00000000 esi=00000000 edi=03624eb4
eip=035ed36c esp=06f1ff58 ebp=06f1ff70 iopl=0         nv up ei pl nz na po nc
cs=0023  ss=002b  ds=002b  es=002b  fs=0053  gs=002b             efl=00000202
WS7_S7AG!S7AG_IsTIAPortalStarted$qqsv+0x6fa34:
035ed36c 6a0a            push    0Ah
eax=00000000 ebx=03624ecc ecx=74276ea4 edx=00000000 esi=00000000 edi=03624eb4
eip=035ed36e esp=06f1ff54 ebp=06f1ff70 iopl=0         nv up ei pl nz na po nc
cs=0023  ss=002b  ds=002b  es=002b  fs=0053  gs=002b             efl=00000202
WS7_S7AG!S7AG_IsTIAPortalStarted$qqsv+0x6fa36:
035ed36e e871dd0000      call    WS7_S7AG!S7AG_IsTIAPortalStarted$qqsv+0x7d7ac (035fb0e4)
eax=00000000 ebx=03624ecc ecx=74276ea4 edx=00000000 esi=00000000 edi=03624eb4
eip=035ed373 esp=06f1ff58 ebp=06f1ff70 iopl=0         nv up ei pl zr na pe nc
cs=0023  ss=002b  ds=002b  es=002b  fs=0053  gs=002b             efl=00000246
WS7_S7AG!S7AG_IsTIAPortalStarted$qqsv+0x6fa3b:
035ed373 8b45f4          mov     eax,dword ptr [ebp-0Ch] ss:002b:06f1ff64=03624ec8
eax=03624ec8 ebx=03624ecc ecx=74276ea4 edx=00000000 esi=00000000 edi=03624eb4
eip=035ed376 esp=06f1ff58 ebp=06f1ff70 iopl=0         nv up ei pl zr na pe nc
cs=0023  ss=002b  ds=002b  es=002b  fs=0053  gs=002b             efl=00000246
WS7_S7AG!S7AG_IsTIAPortalStarted$qqsv+0x6fa3e:
035ed376 c60000          mov     byte ptr [eax],0           ds:002b:03624ec8=00
eax=03624ec8 ebx=03624ecc ecx=74276ea4 edx=00000000 esi=00000000 edi=03624eb4
eip=035ed379 esp=06f1ff58 ebp=06f1ff70 iopl=0         nv up ei pl zr na pe nc
cs=0023  ss=002b  ds=002b  es=002b  fs=0053  gs=002b             efl=00000246
WS7_S7AG!S7AG_IsTIAPortalStarted$qqsv+0x6fa41:
035ed379 803b00          cmp     byte ptr [ebx],0           ds:002b:03624ecc=00
eax=03624ec8 ebx=03624ecc ecx=74276ea4 edx=00000000 esi=00000000 edi=03624eb4
eip=035ed37c esp=06f1ff58 ebp=06f1ff70 iopl=0         nv up ei pl zr na pe nc
cs=0023  ss=002b  ds=002b  es=002b  fs=0053  gs=002b             efl=00000246
WS7_S7AG!S7AG_IsTIAPortalStarted$qqsv+0x6fa44:
035ed37c 0f8445ffffff    je      WS7_S7AG!S7AG_IsTIAPortalStarted$qqsv+0x6f98f (035ed2c7) [br=1]
eax=03624ec8 ebx=03624ecc ecx=74276ea4 edx=00000000 esi=00000000 edi=03624eb4
eip=035ed2c7 esp=06f1ff58 ebp=06f1ff70 iopl=0         nv up ei pl zr na pe nc
cs=0023  ss=002b  ds=002b  es=002b  fs=0053  gs=002b             efl=00000246
WS7_S7AG!S7AG_IsTIAPortalStarted$qqsv+0x6f98f:
035ed2c7 8b45f8          mov     eax,dword ptr [ebp-8] ss:002b:06f1ff68=03624e3c
eax=03624e3c ebx=03624ecc ecx=74276ea4 edx=00000000 esi=00000000 edi=03624eb4
eip=035ed2ca esp=06f1ff58 ebp=06f1ff70 iopl=0         nv up ei pl zr na pe nc
cs=0023  ss=002b  ds=002b  es=002b  fs=0053  gs=002b             efl=00000246
WS7_S7AG!S7AG_IsTIAPortalStarted$qqsv+0x6f992:
035ed2ca c60001          mov     byte ptr [eax],1           ds:002b:03624e3c=01
eax=03624e3c ebx=03624ecc ecx=74276ea4 edx=00000000 esi=00000000 edi=03624eb4
eip=035ed2cd esp=06f1ff58 ebp=06f1ff70 iopl=0         nv up ei pl zr na pe nc
cs=0023  ss=002b  ds=002b  es=002b  fs=0053  gs=002b             efl=00000246
WS7_S7AG!S7AG_IsTIAPortalStarted$qqsv+0x6f995:
035ed2cd 803b00          cmp     byte ptr [ebx],0           ds:002b:03624ecc=00
eax=03624e3c ebx=03624ecc ecx=74276ea4 edx=00000000 esi=00000000 edi=03624eb4
eip=035ed2d0 esp=06f1ff58 ebp=06f1ff70 iopl=0         nv up ei pl zr na pe nc
cs=0023  ss=002b  ds=002b  es=002b  fs=0053  gs=002b             efl=00000246
WS7_S7AG!S7AG_IsTIAPortalStarted$qqsv+0x6f998:
035ed2d0 7405            je      WS7_S7AG!S7AG_IsTIAPortalStarted$qqsv+0x6f99f (035ed2d7) [br=1]
eax=03624e3c ebx=03624ecc ecx=74276ea4 edx=00000000 esi=00000000 edi=03624eb4
eip=035ed2d7 esp=06f1ff58 ebp=06f1ff70 iopl=0         nv up ei pl zr na pe nc
cs=0023  ss=002b  ds=002b  es=002b  fs=0053  gs=002b             efl=00000246
WS7_S7AG!S7AG_IsTIAPortalStarted$qqsv+0x6f99f:
035ed2d7 8bd6            mov     edx,esi
eax=03624e3c ebx=03624ecc ecx=74276ea4 edx=00000000 esi=00000000 edi=03624eb4
eip=035ed2d9 esp=06f1ff58 ebp=06f1ff70 iopl=0         nv up ei pl zr na pe nc
cs=0023  ss=002b  ds=002b  es=002b  fs=0053  gs=002b             efl=00000246
WS7_S7AG!S7AG_IsTIAPortalStarted$qqsv+0x6f9a1:
035ed2d9 8b0d084e6203    mov     ecx,dword ptr [WS7_S7AG!__CPPdebugHook+0x28cfc (03624e08)] ds:002b:03624e08=06460000
eax=03624e3c ebx=03624ecc ecx=06460000 edx=00000000 esi=00000000 edi=03624eb4
eip=035ed2df esp=06f1ff58 ebp=06f1ff70 iopl=0         nv up ei pl zr na pe nc
cs=0023  ss=002b  ds=002b  es=002b  fs=0053  gs=002b             efl=00000246
WS7_S7AG!S7AG_IsTIAPortalStarted$qqsv+0x6f9a7:
035ed2df c1e205          shl     edx,5
eax=03624e3c ebx=03624ecc ecx=06460000 edx=00000000 esi=00000000 edi=03624eb4
eip=035ed2e2 esp=06f1ff58 ebp=06f1ff70 iopl=0         nv up ei pl zr na pe nc
cs=0023  ss=002b  ds=002b  es=002b  fs=0053  gs=002b             efl=00000246
WS7_S7AG!S7AG_IsTIAPortalStarted$qqsv+0x6f9aa:
035ed2e2 03d6            add     edx,esi
eax=03624e3c ebx=03624ecc ecx=06460000 edx=00000000 esi=00000000 edi=03624eb4
eip=035ed2e4 esp=06f1ff58 ebp=06f1ff70 iopl=0         nv up ei pl zr na pe nc
cs=0023  ss=002b  ds=002b  es=002b  fs=0053  gs=002b             efl=00000246
WS7_S7AG!S7AG_IsTIAPortalStarted$qqsv+0x6f9ac:
035ed2e4 c645ff01        mov     byte ptr [ebp-1],1         ss:002b:06f1ff6f=01
eax=03624e3c ebx=03624ecc ecx=06460000 edx=00000000 esi=00000000 edi=03624eb4
eip=035ed2e8 esp=06f1ff58 ebp=06f1ff70 iopl=0         nv up ei pl zr na pe nc
cs=0023  ss=002b  ds=002b  es=002b  fs=0053  gs=002b             efl=00000246
WS7_S7AG!S7AG_IsTIAPortalStarted$qqsv+0x6f9b0:
035ed2e8 80bc9160765b0000 cmp     byte ptr ws7v6!DlgdownloadspFinalize+0x555c (005b7660)[ecx+edx*4],0 ds:002b:06a17660=00
eax=03624e3c ebx=03624ecc ecx=06460000 edx=00000000 esi=00000000 edi=03624eb4
eip=035ed2f0 esp=06f1ff58 ebp=06f1ff70 iopl=0         nv up ei pl zr na pe nc
cs=0023  ss=002b  ds=002b  es=002b  fs=0053  gs=002b             efl=00000246
WS7_S7AG!S7AG_IsTIAPortalStarted$qqsv+0x6f9b8:
035ed2f0 746d            je      WS7_S7AG!S7AG_IsTIAPortalStarted$qqsv+0x6fa27 (035ed35f) [br=1]
eax=03624e3c ebx=03624ecc ecx=06460000 edx=00000000 esi=00000000 edi=03624eb4
eip=035ed35f esp=06f1ff58 ebp=06f1ff70 iopl=0         nv up ei pl zr na pe nc
cs=0023  ss=002b  ds=002b  es=002b  fs=0053  gs=002b             efl=00000246
WS7_S7AG!S7AG_IsTIAPortalStarted$qqsv+0x6fa27:
035ed35f 6a01            push    1
eax=03624e3c ebx=03624ecc ecx=06460000 edx=00000000 esi=00000000 edi=03624eb4
eip=035ed361 esp=06f1ff54 ebp=06f1ff70 iopl=0         nv up ei pl zr na pe nc
cs=0023  ss=002b  ds=002b  es=002b  fs=0053  gs=002b             efl=00000246
WS7_S7AG!S7AG_IsTIAPortalStarted$qqsv+0x6fa29:
035ed361 e87edd0000      call    WS7_S7AG!S7AG_IsTIAPortalStarted$qqsv+0x7d7ac (035fb0e4)
eax=00000000 ebx=03624ecc ecx=74276ea4 edx=00000000 esi=00000000 edi=03624eb4
eip=035ed366 esp=06f1ff58 ebp=06f1ff70 iopl=0         nv up ei pl zr na pe nc
cs=0023  ss=002b  ds=002b  es=002b  fs=0053  gs=002b             efl=00000246
WS7_S7AG!S7AG_IsTIAPortalStarted$qqsv+0x6fa2e:
035ed366 807dff00        cmp     byte ptr [ebp-1],0         ss:002b:06f1ff6f=01
eax=00000000 ebx=03624ecc ecx=74276ea4 edx=00000000 esi=00000000 edi=03624eb4
eip=035ed36a esp=06f1ff58 ebp=06f1ff70 iopl=0         nv up ei pl nz na po nc
cs=0023  ss=002b  ds=002b  es=002b  fs=0053  gs=002b             efl=00000202
WS7_S7AG!S7AG_IsTIAPortalStarted$qqsv+0x6fa32:
035ed36a 7407            je      WS7_S7AG!S7AG_IsTIAPortalStarted$qqsv+0x6fa3b (035ed373) [br=0]
eax=00000000 ebx=03624ecc ecx=74276ea4 edx=00000000 esi=00000000 edi=03624eb4
eip=035ed36c esp=06f1ff58 ebp=06f1ff70 iopl=0         nv up ei pl nz na po nc
cs=0023  ss=002b  ds=002b  es=002b  fs=0053  gs=002b             efl=00000202
WS7_S7AG!S7AG_IsTIAPortalStarted$qqsv+0x6fa34:
035ed36c 6a0a            push    0Ah
eax=00000000 ebx=03624ecc ecx=74276ea4 edx=00000000 esi=00000000 edi=03624eb4
eip=035ed36e esp=06f1ff54 ebp=06f1ff70 iopl=0         nv up ei pl nz na po nc
cs=0023  ss=002b  ds=002b  es=002b  fs=0053  gs=002b             efl=00000202
WS7_S7AG!S7AG_IsTIAPortalStarted$qqsv+0x6fa36:
035ed36e e871dd0000      call    WS7_S7AG!S7AG_IsTIAPortalStarted$qqsv+0x7d7ac (035fb0e4)
eax=00000000 ebx=03624ecc ecx=74276ea4 edx=00000000 esi=00000000 edi=03624eb4
eip=035ed373 esp=06f1ff58 ebp=06f1ff70 iopl=0         nv up ei pl zr na pe nc
cs=0023  ss=002b  ds=002b  es=002b  fs=0053  gs=002b             efl=00000246
WS7_S7AG!S7AG_IsTIAPortalStarted$qqsv+0x6fa3b:
035ed373 8b45f4          mov     eax,dword ptr [ebp-0Ch] ss:002b:06f1ff64=03624ec8
eax=03624ec8 ebx=03624ecc ecx=74276ea4 edx=00000000 esi=00000000 edi=03624eb4
eip=035ed376 esp=06f1ff58 ebp=06f1ff70 iopl=0         nv up ei pl zr na pe nc
cs=0023  ss=002b  ds=002b  es=002b  fs=0053  gs=002b             efl=00000246
WS7_S7AG!S7AG_IsTIAPortalStarted$qqsv+0x6fa3e:
035ed376 c60000          mov     byte ptr [eax],0           ds:002b:03624ec8=00
eax=03624ec8 ebx=03624ecc ecx=74276ea4 edx=00000000 esi=00000000 edi=03624eb4
eip=035ed379 esp=06f1ff58 ebp=06f1ff70 iopl=0         nv up ei pl zr na pe nc
cs=0023  ss=002b  ds=002b  es=002b  fs=0053  gs=002b             efl=00000246
WS7_S7AG!S7AG_IsTIAPortalStarted$qqsv+0x6fa41:
035ed379 803b00          cmp     byte ptr [ebx],0           ds:002b:03624ecc=00
eax=03624ec8 ebx=03624ecc ecx=74276ea4 edx=00000000 esi=00000000 edi=03624eb4
eip=035ed37c esp=06f1ff58 ebp=06f1ff70 iopl=0         nv up ei pl zr na pe nc
cs=0023  ss=002b  ds=002b  es=002b  fs=0053  gs=002b             efl=00000246
WS7_S7AG!S7AG_IsTIAPortalStarted$qqsv+0x6fa44:
035ed37c 0f8445ffffff    je      WS7_S7AG!S7AG_IsTIAPortalStarted$qqsv+0x6f98f (035ed2c7) [br=1]
eax=03624ec8 ebx=03624ecc ecx=74276ea4 edx=00000000 esi=00000000 edi=03624eb4
eip=035ed2c7 esp=06f1ff58 ebp=06f1ff70 iopl=0         nv up ei pl zr na pe nc
cs=0023  ss=002b  ds=002b  es=002b  fs=0053  gs=002b             efl=00000246
WS7_S7AG!S7AG_IsTIAPortalStarted$qqsv+0x6f98f:
035ed2c7 8b45f8          mov     eax,dword ptr [ebp-8] ss:002b:06f1ff68=03624e3c
eax=03624e3c ebx=03624ecc ecx=74276ea4 edx=00000000 esi=00000000 edi=03624eb4
eip=035ed2ca esp=06f1ff58 ebp=06f1ff70 iopl=0         nv up ei pl zr na pe nc
cs=0023  ss=002b  ds=002b  es=002b  fs=0053  gs=002b             efl=00000246
WS7_S7AG!S7AG_IsTIAPortalStarted$qqsv+0x6f992:
035ed2ca c60001          mov     byte ptr [eax],1           ds:002b:03624e3c=01
eax=03624e3c ebx=03624ecc ecx=74276ea4 edx=00000000 esi=00000000 edi=03624eb4
eip=035ed2cd esp=06f1ff58 ebp=06f1ff70 iopl=0         nv up ei pl zr na pe nc
cs=0023  ss=002b  ds=002b  es=002b  fs=0053  gs=002b             efl=00000246
WS7_S7AG!S7AG_IsTIAPortalStarted$qqsv+0x6f995:
035ed2cd 803b00          cmp     byte ptr [ebx],0           ds:002b:03624ecc=00
eax=03624e3c ebx=03624ecc ecx=74276ea4 edx=00000000 esi=00000000 edi=03624eb4
eip=035ed2d0 esp=06f1ff58 ebp=06f1ff70 iopl=0         nv up ei pl zr na pe nc
cs=0023  ss=002b  ds=002b  es=002b  fs=0053  gs=002b             efl=00000246
WS7_S7AG!S7AG_IsTIAPortalStarted$qqsv+0x6f998:
035ed2d0 7405            je      WS7_S7AG!S7AG_IsTIAPortalStarted$qqsv+0x6f99f (035ed2d7) [br=1]
eax=03624e3c ebx=03624ecc ecx=74276ea4 edx=00000000 esi=00000000 edi=03624eb4
eip=035ed2d7 esp=06f1ff58 ebp=06f1ff70 iopl=0         nv up ei pl zr na pe nc
cs=0023  ss=002b  ds=002b  es=002b  fs=0053  gs=002b             efl=00000246
WS7_S7AG!S7AG_IsTIAPortalStarted$qqsv+0x6f99f:
035ed2d7 8bd6            mov     edx,esi
eax=03624e3c ebx=03624ecc ecx=74276ea4 edx=00000000 esi=00000000 edi=03624eb4
eip=035ed2d9 esp=06f1ff58 ebp=06f1ff70 iopl=0         nv up ei pl zr na pe nc
cs=0023  ss=002b  ds=002b  es=002b  fs=0053  gs=002b             efl=00000246
WS7_S7AG!S7AG_IsTIAPortalStarted$qqsv+0x6f9a1:
035ed2d9 8b0d084e6203    mov     ecx,dword ptr [WS7_S7AG!__CPPdebugHook+0x28cfc (03624e08)] ds:002b:03624e08=06460000
eax=03624e3c ebx=03624ecc ecx=06460000 edx=00000000 esi=00000000 edi=03624eb4
eip=035ed2df esp=06f1ff58 ebp=06f1ff70 iopl=0         nv up ei pl zr na pe nc
cs=0023  ss=002b  ds=002b  es=002b  fs=0053  gs=002b             efl=00000246
WS7_S7AG!S7AG_IsTIAPortalStarted$qqsv+0x6f9a7:
035ed2df c1e205          shl     edx,5
eax=03624e3c ebx=03624ecc ecx=06460000 edx=00000000 esi=00000000 edi=03624eb4
eip=035ed2e2 esp=06f1ff58 ebp=06f1ff70 iopl=0         nv up ei pl zr na pe nc
cs=0023  ss=002b  ds=002b  es=002b  fs=0053  gs=002b             efl=00000246
WS7_S7AG!S7AG_IsTIAPortalStarted$qqsv+0x6f9aa:
035ed2e2 03d6            add     edx,esi
eax=03624e3c ebx=03624ecc ecx=06460000 edx=00000000 esi=00000000 edi=03624eb4
eip=035ed2e4 esp=06f1ff58 ebp=06f1ff70 iopl=0         nv up ei pl zr na pe nc
cs=0023  ss=002b  ds=002b  es=002b  fs=0053  gs=002b             efl=00000246
WS7_S7AG!S7AG_IsTIAPortalStarted$qqsv+0x6f9ac:
035ed2e4 c645ff01        mov     byte ptr [ebp-1],1         ss:002b:06f1ff6f=01
eax=03624e3c ebx=03624ecc ecx=06460000 edx=00000000 esi=00000000 edi=03624eb4
eip=035ed2e8 esp=06f1ff58 ebp=06f1ff70 iopl=0         nv up ei pl zr na pe nc
cs=0023  ss=002b  ds=002b  es=002b  fs=0053  gs=002b             efl=00000246
WS7_S7AG!S7AG_IsTIAPortalStarted$qqsv+0x6f9b0:
035ed2e8 80bc9160765b0000 cmp     byte ptr ws7v6!DlgdownloadspFinalize+0x555c (005b7660)[ecx+edx*4],0 ds:002b:06a17660=00
eax=03624e3c ebx=03624ecc ecx=06460000 edx=00000000 esi=00000000 edi=03624eb4
eip=035ed2f0 esp=06f1ff58 ebp=06f1ff70 iopl=0         nv up ei pl zr na pe nc
cs=0023  ss=002b  ds=002b  es=002b  fs=0053  gs=002b             efl=00000246
WS7_S7AG!S7AG_IsTIAPortalStarted$qqsv+0x6f9b8:
035ed2f0 746d            je      WS7_S7AG!S7AG_IsTIAPortalStarted$qqsv+0x6fa27 (035ed35f) [br=1]
eax=03624e3c ebx=03624ecc ecx=06460000 edx=00000000 esi=00000000 edi=03624eb4
eip=035ed35f esp=06f1ff58 ebp=06f1ff70 iopl=0         nv up ei pl zr na pe nc
cs=0023  ss=002b  ds=002b  es=002b  fs=0053  gs=002b             efl=00000246
WS7_S7AG!S7AG_IsTIAPortalStarted$qqsv+0x6fa27:
035ed35f 6a01            push    1
eax=03624e3c ebx=03624ecc ecx=06460000 edx=00000000 esi=00000000 edi=03624eb4
eip=035ed361 esp=06f1ff54 ebp=06f1ff70 iopl=0         nv up ei pl zr na pe nc
cs=0023  ss=002b  ds=002b  es=002b  fs=0053  gs=002b             efl=00000246
WS7_S7AG!S7AG_IsTIAPortalStarted$qqsv+0x6fa29:
035ed361 e87edd0000      call    WS7_S7AG!S7AG_IsTIAPortalStarted$qqsv+0x7d7ac (035fb0e4)
eax=00000000 ebx=03624ecc ecx=74276ea4 edx=00000000 esi=00000000 edi=03624eb4
eip=035ed366 esp=06f1ff58 ebp=06f1ff70 iopl=0         nv up ei pl zr na pe nc
cs=0023  ss=002b  ds=002b  es=002b  fs=0053  gs=002b             efl=00000246
WS7_S7AG!S7AG_IsTIAPortalStarted$qqsv+0x6fa2e:
035ed366 807dff00        cmp     byte ptr [ebp-1],0         ss:002b:06f1ff6f=01
eax=00000000 ebx=03624ecc ecx=74276ea4 edx=00000000 esi=00000000 edi=03624eb4
eip=035ed36a esp=06f1ff58 ebp=06f1ff70 iopl=0         nv up ei pl nz na po nc
cs=0023  ss=002b  ds=002b  es=002b  fs=0053  gs=002b             efl=00000202
WS7_S7AG!S7AG_IsTIAPortalStarted$qqsv+0x6fa32:
035ed36a 7407            je      WS7_S7AG!S7AG_IsTIAPortalStarted$qqsv+0x6fa3b (035ed373) [br=0]
eax=00000000 ebx=03624ecc ecx=74276ea4 edx=00000000 esi=00000000 edi=03624eb4
eip=035ed36c esp=06f1ff58 ebp=06f1ff70 iopl=0         nv up ei pl nz na po nc
cs=0023  ss=002b  ds=002b  es=002b  fs=0053  gs=002b             efl=00000202
WS7_S7AG!S7AG_IsTIAPortalStarted$qqsv+0x6fa34:
035ed36c 6a0a            push    0Ah
eax=00000000 ebx=03624ecc ecx=74276ea4 edx=00000000 esi=00000000 edi=03624eb4
eip=035ed36e esp=06f1ff54 ebp=06f1ff70 iopl=0         nv up ei pl nz na po nc
cs=0023  ss=002b  ds=002b  es=002b  fs=0053  gs=002b             efl=00000202
WS7_S7AG!S7AG_IsTIAPortalStarted$qqsv+0x6fa36:
035ed36e e871dd0000      call    WS7_S7AG!S7AG_IsTIAPortalStarted$qqsv+0x7d7ac (035fb0e4)
eax=00000000 ebx=03624ecc ecx=74276ea4 edx=00000000 esi=00000000 edi=03624eb4
eip=035ed373 esp=06f1ff58 ebp=06f1ff70 iopl=0         nv up ei pl zr na pe nc
cs=0023  ss=002b  ds=002b  es=002b  fs=0053  gs=002b             efl=00000246
WS7_S7AG!S7AG_IsTIAPortalStarted$qqsv+0x6fa3b:
035ed373 8b45f4          mov     eax,dword ptr [ebp-0Ch] ss:002b:06f1ff64=03624ec8
eax=03624ec8 ebx=03624ecc ecx=74276ea4 edx=00000000 esi=00000000 edi=03624eb4
eip=035ed376 esp=06f1ff58 ebp=06f1ff70 iopl=0         nv up ei pl zr na pe nc
cs=0023  ss=002b  ds=002b  es=002b  fs=0053  gs=002b             efl=00000246
WS7_S7AG!S7AG_IsTIAPortalStarted$qqsv+0x6fa3e:
035ed376 c60000          mov     byte ptr [eax],0           ds:002b:03624ec8=00
eax=03624ec8 ebx=03624ecc ecx=74276ea4 edx=00000000 esi=00000000 edi=03624eb4
eip=035ed379 esp=06f1ff58 ebp=06f1ff70 iopl=0         nv up ei pl zr na pe nc
cs=0023  ss=002b  ds=002b  es=002b  fs=0053  gs=002b             efl=00000246
WS7_S7AG!S7AG_IsTIAPortalStarted$qqsv+0x6fa41:
035ed379 803b00          cmp     byte ptr [ebx],0           ds:002b:03624ecc=00
eax=03624ec8 ebx=03624ecc ecx=74276ea4 edx=00000000 esi=00000000 edi=03624eb4
eip=035ed37c esp=06f1ff58 ebp=06f1ff70 iopl=0         nv up ei pl zr na pe nc
cs=0023  ss=002b  ds=002b  es=002b  fs=0053  gs=002b             efl=00000246
WS7_S7AG!S7AG_IsTIAPortalStarted$qqsv+0x6fa44:
035ed37c 0f8445ffffff    je      WS7_S7AG!S7AG_IsTIAPortalStarted$qqsv+0x6f98f (035ed2c7) [br=1]
eax=03624ec8 ebx=03624ecc ecx=74276ea4 edx=00000000 esi=00000000 edi=03624eb4
eip=035ed2c7 esp=06f1ff58 ebp=06f1ff70 iopl=0         nv up ei pl zr na pe nc
cs=0023  ss=002b  ds=002b  es=002b  fs=0053  gs=002b             efl=00000246
WS7_S7AG!S7AG_IsTIAPortalStarted$qqsv+0x6f98f:
035ed2c7 8b45f8          mov     eax,dword ptr [ebp-8] ss:002b:06f1ff68=03624e3c
eax=03624e3c ebx=03624ecc ecx=74276ea4 edx=00000000 esi=00000000 edi=03624eb4
eip=035ed2ca esp=06f1ff58 ebp=06f1ff70 iopl=0         nv up ei pl zr na pe nc
cs=0023  ss=002b  ds=002b  es=002b  fs=0053  gs=002b             efl=00000246
WS7_S7AG!S7AG_IsTIAPortalStarted$qqsv+0x6f992:
035ed2ca c60001          mov     byte ptr [eax],1           ds:002b:03624e3c=01
eax=03624e3c ebx=03624ecc ecx=74276ea4 edx=00000000 esi=00000000 edi=03624eb4
eip=035ed2cd esp=06f1ff58 ebp=06f1ff70 iopl=0         nv up ei pl zr na pe nc
cs=0023  ss=002b  ds=002b  es=002b  fs=0053  gs=002b             efl=00000246
WS7_S7AG!S7AG_IsTIAPortalStarted$qqsv+0x6f995:
035ed2cd 803b00          cmp     byte ptr [ebx],0           ds:002b:03624ecc=00
eax=03624e3c ebx=03624ecc ecx=74276ea4 edx=00000000 esi=00000000 edi=03624eb4
eip=035ed2d0 esp=06f1ff58 ebp=06f1ff70 iopl=0         nv up ei pl zr na pe nc
cs=0023  ss=002b  ds=002b  es=002b  fs=0053  gs=002b             efl=00000246
WS7_S7AG!S7AG_IsTIAPortalStarted$qqsv+0x6f998:
035ed2d0 7405            je      WS7_S7AG!S7AG_IsTIAPortalStarted$qqsv+0x6f99f (035ed2d7) [br=1]
Time Travel Position: 702F:20
eax=03624e3c ebx=03624ecc ecx=74276ea4 edx=00000000 esi=00000000 edi=03624eb4
eip=035ed2d7 esp=06f1ff58 ebp=06f1ff70 iopl=0         nv up ei pl zr na pe nc
cs=0023  ss=002b  ds=002b  es=002b  fs=0053  gs=002b             efl=00000246
WS7_S7AG!S7AG_IsTIAPortalStarted$qqsv+0x6f99f:
035ed2d7 8bd6            mov     edx,esi
0:001> ~
~
   0  Id: 45b8.21e4 Suspend: 4096 Teb: 00273000 Unfrozen
.  1  Id: 45b8.55c Suspend: 4096 Teb: 00282000 Unfrozen
   2  Id: 45b8.14e8 Suspend: 4096 Teb: 00288000 Unfrozen
   3  Id: 45b8.5170 Suspend: 4096 Teb: 00285000 Unfrozen
   4  Id: 45b8.2c58 Suspend: 4096 Teb: 0028b000 Unfrozen
   5  Id: 45b8.1324 Suspend: 4096 Teb: 00279000 Unfrozen
   6  Id: 45b8.3c0c Suspend: 4096 Teb: 0027f000 Unfrozen
   7  Id: 45b8.465c Suspend: 4096 Teb: 0027c000 Unfrozen
0:001> !tt 100
!tt 100
Setting position to the end of the trace
Setting position: 6DE2FA:0
gt 0
ModLoad: 76ec0000 76f40000   C:\WINDOWS\System32\clbcatq.dll
ModLoad: 73c70000 73d0f000   C:\WINDOWS\SYSTEM32\apphelp.dll
ModLoad: 6b320000 6b33b000   C:\WINDOWS\SYSTEM32\edputil.dll
ModLoad: 6f5e0000 6f80a000   C:\WINDOWS\SYSTEM32\iertutil.dll
ModLoad: 6f810000 6f82c000   C:\WINDOWS\SYSTEM32\srvcli.dll
ModLoad: 74280000 7428b000   C:\WINDOWS\SYSTEM32\netutils.dll
ModLoad: 6f8b0000 6fa5a000   C:\WINDOWS\SYSTEM32\urlmon.dll
ModLoad: 6efc0000 6efc8000   C:\WINDOWS\SYSTEM32\FLTLIB.DLL
ModLoad: 65820000 6583b000   C:\WINDOWS\SYSTEM32\CLDAPI.dll
ModLoad: 527a0000 52877000   C:\Windows\System32\wintypes.dll
ModLoad: 73f90000 73fb9000   C:\WINDOWS\SYSTEM32\ntmarta.dll
ModLoad: 51f40000 51fc9000   C:\WINDOWS\System32\CoreMessaging.dll
ModLoad: 51fd0000 5222e000   C:\WINDOWS\System32\CoreUIComponents.dll
ModLoad: 52230000 522b1000   C:\WINDOWS\System32\TextInputFramework.dll
ModLoad: 70b10000 70b63000   C:\WINDOWS\system32\Oleacc.dll
ModLoad: 60570000 60595000   C:\WINDOWS\SYSTEM32\DWMAPI.DLL
ModLoad: 60510000 60529000   C:\WINDOWS\SYSTEM32\dxcore.dll
(45b8.21e4): Break instruction exception - code 80000003 (first/second chance not available)
Time Travel Position: 6DE2FA:0
eax=0007002c ebx=00000000 ecx=4cd070cc edx=76fd9f60 esi=00000000 edi=7706da60
eip=76f46000 esp=0164fe38 ebp=0164ff10 iopl=0         nv up ei ng nz ac pe cy
cs=0023  ss=002b  ds=002b  es=002b  fs=0053  gs=002b             efl=00000297
76f46000 ea0960f4763300  jmp     0033:76F46009
0:000> ~
~
.  0  Id: 45b8.21e4 Suspend: 4096 Teb: 00273000 Unfrozen
   1  Id: 45b8.55c Suspend: 4096 Teb: 00282000 Unfrozen
   2  Id: 45b8.14e8 Suspend: 4096 Teb: 00288000 Unfrozen
   3  Id: 45b8.5170 Suspend: 4096 Teb: 00285000 Unfrozen
   4  Id: 45b8.2c58 Suspend: 4096 Teb: 0028b000 Unfrozen
   5  Id: 45b8.39cc Suspend: 4096 Teb: 002b8000 Unfrozen
   6  Id: 45b8.1b84 Suspend: 4096 Teb: 002d0000 Unfrozen
   7  Id: 45b8.4c50 Suspend: 4096 Teb: 002d3000 Unfrozen
0:000> |
|
.  0	id: 45b8	attach	name: C:\Program Files (x86)\MHJ-Software\WinSPS-S7-V6\ws7v6.exe
0:000> !ttdext.tt 6DE2FA:0
!ttdext.tt 6DE2FA:0
Setting position: 6DE2FA:0
gt 0
(45b8.21e4): Break instruction exception - code 80000003 (first/second chance not available)
Time Travel Position: 6DE2FA:0
eax=0007002c ebx=00000000 ecx=4cd070cc edx=76fd9f60 esi=00000000 edi=7706da60
eip=76f46000 esp=0164fe38 ebp=0164ff10 iopl=0         nv up ei ng nz ac pe cy
cs=0023  ss=002b  ds=002b  es=002b  fs=0053  gs=002b             efl=00000297
76f46000 ea0960f4763300  jmp     0033:76F46009
0:000> !tt 0
!tt 0
Setting position to the beginning of the trace
Setting position: 47:0
gt 0
(45b8.21e4): Break instruction exception - code 80000003 (first/second chance not available)
Time Travel Position: 47:0
eax=00401ee8 ebx=00270000 ecx=00000000 edx=00000000 esi=00000000 edi=00000000
eip=76f82ec0 esp=0164fd14 ebp=00000000 iopl=0         nv up ei pl nz na po nc
cs=0023  ss=002b  ds=002b  es=002b  fs=0053  gs=002b             efl=00000202
ntdll!LdrInitializeThunk:
76f82ec0 8bff            mov     edi,edi
0:000> pr 2000
pr 2000
ntdll!LdrInitializeThunk+0x2:
76f82ec2 55              push    ebp
ntdll!LdrInitializeThunk+0x3:
76f82ec3 8bec            mov     ebp,esp
ntdll!LdrInitializeThunk+0x5:
76f82ec5 8b550c          mov     edx,dword ptr [ebp+0Ch] ss:002b:0164fd1c={ntdll (76f50000)}
ntdll!LdrInitializeThunk+0x8:
76f82ec8 8b4d08          mov     ecx,dword ptr [ebp+8] ss:002b:0164fd18=0164fd24
ntdll!LdrInitializeThunk+0xb:
76f82ecb 56              push    esi
ntdll!LdrInitializeThunk+0xc:
76f82ecc e81e000000      call    ntdll!LdrInitializeThunk+0x2f (76f82eef)
ntdll!LdrInitializeThunk+0x11:
76f82ed1 8b3598e80677    mov     esi,dword ptr [ntdll!RtlpFreezeTimeBias+0xf8 (7706e898)] ds:002b:7706e898=00000000
ntdll!LdrInitializeThunk+0x17:
76f82ed7 85f6            test    esi,esi
ntdll!LdrInitializeThunk+0x19:
76f82ed9 0f85a9e70500    jne     ntdll!RtlCaptureStackContext+0x7338 (76fe1688) [br=0]
ntdll!LdrInitializeThunk+0x1f:
76f82edf 6a01            push    1
ntdll!LdrInitializeThunk+0x21:
76f82ee1 ff7508          push    dword ptr [ebp+8]    ss:002b:0164fd18=0164fd24
ntdll!LdrInitializeThunk+0x24:
76f82ee4 e887020400      call    ntdll!ZwContinue (76fc3170)
ModLoad: 6fa60000 6fab2000   C:\WINDOWS\SYSTEM32\mswsock.dll
ModLoad: 76ec0000 76f40000   C:\WINDOWS\System32\clbcatq.dll
ModLoad: 73c70000 73d0f000   C:\WINDOWS\SYSTEM32\apphelp.dll
ModLoad: 6b320000 6b33b000   C:\WINDOWS\SYSTEM32\edputil.dll
ModLoad: 6f5e0000 6f80a000   C:\WINDOWS\SYSTEM32\iertutil.dll
ModLoad: 6f810000 6f82c000   C:\WINDOWS\SYSTEM32\srvcli.dll
ModLoad: 74280000 7428b000   C:\WINDOWS\SYSTEM32\netutils.dll
ModLoad: 6f8b0000 6fa5a000   C:\WINDOWS\SYSTEM32\urlmon.dll
ModLoad: 6efc0000 6efc8000   C:\WINDOWS\SYSTEM32\FLTLIB.DLL
ModLoad: 65820000 6583b000   C:\WINDOWS\SYSTEM32\CLDAPI.dll
ModLoad: 527a0000 52877000   C:\Windows\System32\wintypes.dll
ModLoad: 73f90000 73fb9000   C:\WINDOWS\SYSTEM32\ntmarta.dll
ModLoad: 51f40000 51fc9000   C:\WINDOWS\System32\CoreMessaging.dll
ModLoad: 51fd0000 5222e000   C:\WINDOWS\System32\CoreUIComponents.dll
ModLoad: 52230000 522b1000   C:\WINDOWS\System32\TextInputFramework.dll
ModLoad: 70b10000 70b63000   C:\WINDOWS\system32\Oleacc.dll
ModLoad: 60570000 60595000   C:\WINDOWS\SYSTEM32\DWMAPI.DLL
ModLoad: 60510000 60529000   C:\WINDOWS\SYSTEM32\dxcore.dll
TTD: End of trace reached.
(45b8.21e4): Break instruction exception - code 80000003 (first/second chance not available)
Time Travel Position: 6DE2FA:0
76f46000 ea0960f4763300  jmp     0033:76F46009
0:000> ~
~
.  0  Id: 45b8.21e4 Suspend: 4096 Teb: 00273000 Unfrozen
   1  Id: 45b8.55c Suspend: 4096 Teb: 00282000 Unfrozen
   2  Id: 45b8.14e8 Suspend: 4096 Teb: 00288000 Unfrozen
   3  Id: 45b8.5170 Suspend: 4096 Teb: 00285000 Unfrozen
   4  Id: 45b8.2c58 Suspend: 4096 Teb: 0028b000 Unfrozen
   5  Id: 45b8.39cc Suspend: 4096 Teb: 002b8000 Unfrozen
   6  Id: 45b8.1b84 Suspend: 4096 Teb: 002d0000 Unfrozen
   7  Id: 45b8.4c50 Suspend: 4096 Teb: 002d3000 Unfrozen
0:000> !tt 0
!tt 0
Setting position to the beginning of the trace
Setting position: 47:0
gt 0
(45b8.21e4): Break instruction exception - code 80000003 (first/second chance not available)
Time Travel Position: 47:0
ntdll!LdrInitializeThunk:
76f82ec0 8bff            mov     edi,edi
0:000> pr 2000
pr 2000
eax=00401ee8 ebx=00270000 ecx=00000000 edx=00000000 esi=00000000 edi=00000000
eip=76f82ec2 esp=0164fd14 ebp=00000000 iopl=0         nv up ei pl nz na po nc
cs=0023  ss=002b  ds=002b  es=002b  fs=0053  gs=002b             efl=00000202
ntdll!LdrInitializeThunk+0x2:
76f82ec2 55              push    ebp
eax=00401ee8 ebx=00270000 ecx=00000000 edx=00000000 esi=00000000 edi=00000000
eip=76f82ec3 esp=0164fd10 ebp=00000000 iopl=0         nv up ei pl nz na po nc
cs=0023  ss=002b  ds=002b  es=002b  fs=0053  gs=002b             efl=00000202
ntdll!LdrInitializeThunk+0x3:
76f82ec3 8bec            mov     ebp,esp
eax=00401ee8 ebx=00270000 ecx=00000000 edx=00000000 esi=00000000 edi=00000000
eip=76f82ec5 esp=0164fd10 ebp=0164fd10 iopl=0         nv up ei pl nz na po nc
cs=0023  ss=002b  ds=002b  es=002b  fs=0053  gs=002b             efl=00000202
ntdll!LdrInitializeThunk+0x5:
76f82ec5 8b550c          mov     edx,dword ptr [ebp+0Ch] ss:002b:0164fd1c={ntdll (76f50000)}
eax=00401ee8 ebx=00270000 ecx=00000000 edx=76f50000 esi=00000000 edi=00000000
eip=76f82ec8 esp=0164fd10 ebp=0164fd10 iopl=0         nv up ei pl nz na po nc
cs=0023  ss=002b  ds=002b  es=002b  fs=0053  gs=002b             efl=00000202
ntdll!LdrInitializeThunk+0x8:
76f82ec8 8b4d08          mov     ecx,dword ptr [ebp+8] ss:002b:0164fd18=0164fd24
eax=00401ee8 ebx=00270000 ecx=0164fd24 edx=76f50000 esi=00000000 edi=00000000
eip=76f82ecb esp=0164fd10 ebp=0164fd10 iopl=0         nv up ei pl nz na po nc
cs=0023  ss=002b  ds=002b  es=002b  fs=0053  gs=002b             efl=00000202
ntdll!LdrInitializeThunk+0xb:
76f82ecb 56              push    esi
eax=00401ee8 ebx=00270000 ecx=0164fd24 edx=76f50000 esi=00000000 edi=00000000
eip=76f82ecc esp=0164fd0c ebp=0164fd10 iopl=0         nv up ei pl nz na po nc
cs=0023  ss=002b  ds=002b  es=002b  fs=0053  gs=002b             efl=00000202
ntdll!LdrInitializeThunk+0xc:
76f82ecc e81e000000      call    ntdll!LdrInitializeThunk+0x2f (76f82eef)
eax=00000000 ebx=00270000 ecx=4cd07388 edx=00000000 esi=00000000 edi=00000000
eip=76f82ed1 esp=0164fd0c ebp=0164fd10 iopl=0         nv up ei pl nz ac po nc
cs=0023  ss=002b  ds=002b  es=002b  fs=0053  gs=002b             efl=00000212
ntdll!LdrInitializeThunk+0x11:
76f82ed1 8b3598e80677    mov     esi,dword ptr [ntdll!RtlpFreezeTimeBias+0xf8 (7706e898)] ds:002b:7706e898=00000000
eax=00000000 ebx=00270000 ecx=4cd07388 edx=00000000 esi=00000000 edi=00000000
eip=76f82ed7 esp=0164fd0c ebp=0164fd10 iopl=0         nv up ei pl nz ac po nc
cs=0023  ss=002b  ds=002b  es=002b  fs=0053  gs=002b             efl=00000212
ntdll!LdrInitializeThunk+0x17:
76f82ed7 85f6            test    esi,esi
eax=00000000 ebx=00270000 ecx=4cd07388 edx=00000000 esi=00000000 edi=00000000
eip=76f82ed9 esp=0164fd0c ebp=0164fd10 iopl=0         nv up ei pl zr na pe nc
cs=0023  ss=002b  ds=002b  es=002b  fs=0053  gs=002b             efl=00000246
ntdll!LdrInitializeThunk+0x19:
76f82ed9 0f85a9e70500    jne     ntdll!RtlCaptureStackContext+0x7338 (76fe1688) [br=0]
eax=00000000 ebx=00270000 ecx=4cd07388 edx=00000000 esi=00000000 edi=00000000
eip=76f82edf esp=0164fd0c ebp=0164fd10 iopl=0         nv up ei pl zr na pe nc
cs=0023  ss=002b  ds=002b  es=002b  fs=0053  gs=002b             efl=00000246
ntdll!LdrInitializeThunk+0x1f:
76f82edf 6a01            push    1
eax=00000000 ebx=00270000 ecx=4cd07388 edx=00000000 esi=00000000 edi=00000000
eip=76f82ee1 esp=0164fd08 ebp=0164fd10 iopl=0         nv up ei pl zr na pe nc
cs=0023  ss=002b  ds=002b  es=002b  fs=0053  gs=002b             efl=00000246
ntdll!LdrInitializeThunk+0x21:
76f82ee1 ff7508          push    dword ptr [ebp+8]    ss:002b:0164fd18=0164fd24
eax=00000000 ebx=00270000 ecx=4cd07388 edx=00000000 esi=00000000 edi=00000000
eip=76f82ee4 esp=0164fd04 ebp=0164fd10 iopl=0         nv up ei pl zr na pe nc
cs=0023  ss=002b  ds=002b  es=002b  fs=0053  gs=002b             efl=00000246
ntdll!LdrInitializeThunk+0x24:
76f82ee4 e887020400      call    ntdll!ZwContinue (76fc3170)
ModLoad: 6fa60000 6fab2000   C:\WINDOWS\SYSTEM32\mswsock.dll
ModLoad: 76ec0000 76f40000   C:\WINDOWS\System32\clbcatq.dll
ModLoad: 73c70000 73d0f000   C:\WINDOWS\SYSTEM32\apphelp.dll
ModLoad: 6b320000 6b33b000   C:\WINDOWS\SYSTEM32\edputil.dll
ModLoad: 6f5e0000 6f80a000   C:\WINDOWS\SYSTEM32\iertutil.dll
ModLoad: 6f810000 6f82c000   C:\WINDOWS\SYSTEM32\srvcli.dll
ModLoad: 74280000 7428b000   C:\WINDOWS\SYSTEM32\netutils.dll
ModLoad: 6f8b0000 6fa5a000   C:\WINDOWS\SYSTEM32\urlmon.dll
ModLoad: 6efc0000 6efc8000   C:\WINDOWS\SYSTEM32\FLTLIB.DLL
ModLoad: 65820000 6583b000   C:\WINDOWS\SYSTEM32\CLDAPI.dll
ModLoad: 527a0000 52877000   C:\Windows\System32\wintypes.dll
ModLoad: 73f90000 73fb9000   C:\WINDOWS\SYSTEM32\ntmarta.dll
ModLoad: 51f40000 51fc9000   C:\WINDOWS\System32\CoreMessaging.dll
ModLoad: 51fd0000 5222e000   C:\WINDOWS\System32\CoreUIComponents.dll
ModLoad: 52230000 522b1000   C:\WINDOWS\System32\TextInputFramework.dll
ModLoad: 70b10000 70b63000   C:\WINDOWS\system32\Oleacc.dll
ModLoad: 60570000 60595000   C:\WINDOWS\SYSTEM32\DWMAPI.DLL
ModLoad: 60510000 60529000   C:\WINDOWS\SYSTEM32\dxcore.dll
TTD: End of trace reached.
(45b8.21e4): Break instruction exception - code 80000003 (first/second chance not available)
Time Travel Position: 6DE2FA:0
eax=0007002c ebx=00000000 ecx=4cd070cc edx=76fd9f60 esi=00000000 edi=7706da60
eip=76f46000 esp=0164fe38 ebp=0164ff10 iopl=0         nv up ei ng nz ac pe cy
cs=0023  ss=002b  ds=002b  es=002b  fs=0053  gs=002b             efl=00000297
76f46000 ea0960f4763300  jmp     0033:76F46009
0:000> !tt 0
!tt 0
Setting position to the beginning of the trace
Setting position: 47:0
gt 0
(45b8.21e4): Break instruction exception - code 80000003 (first/second chance not available)
Time Travel Position: 47:0
eax=00401ee8 ebx=00270000 ecx=00000000 edx=00000000 esi=00000000 edi=00000000
eip=76f82ec0 esp=0164fd14 ebp=00000000 iopl=0         nv up ei pl nz na po nc
cs=0023  ss=002b  ds=002b  es=002b  fs=0053  gs=002b             efl=00000202
ntdll!LdrInitializeThunk:
76f82ec0 8bff            mov     edi,edi
0:000> pr 100
pr 100
ntdll!LdrInitializeThunk+0x2:
76f82ec2 55              push    ebp
ntdll!LdrInitializeThunk+0x3:
76f82ec3 8bec            mov     ebp,esp
ntdll!LdrInitializeThunk+0x5:
76f82ec5 8b550c          mov     edx,dword ptr [ebp+0Ch] ss:002b:0164fd1c={ntdll (76f50000)}
ntdll!LdrInitializeThunk+0x8:
76f82ec8 8b4d08          mov     ecx,dword ptr [ebp+8] ss:002b:0164fd18=0164fd24
ntdll!LdrInitializeThunk+0xb:
76f82ecb 56              push    esi
ntdll!LdrInitializeThunk+0xc:
76f82ecc e81e000000      call    ntdll!LdrInitializeThunk+0x2f (76f82eef)
ntdll!LdrInitializeThunk+0x11:
76f82ed1 8b3598e80677    mov     esi,dword ptr [ntdll!RtlpFreezeTimeBias+0xf8 (7706e898)] ds:002b:7706e898=00000000
ntdll!LdrInitializeThunk+0x17:
76f82ed7 85f6            test    esi,esi
ntdll!LdrInitializeThunk+0x19:
76f82ed9 0f85a9e70500    jne     ntdll!RtlCaptureStackContext+0x7338 (76fe1688) [br=0]
ntdll!LdrInitializeThunk+0x1f:
76f82edf 6a01            push    1
ntdll!LdrInitializeThunk+0x21:
76f82ee1 ff7508          push    dword ptr [ebp+8]    ss:002b:0164fd18=0164fd24
ntdll!LdrInitializeThunk+0x24:
76f82ee4 e887020400      call    ntdll!ZwContinue (76fc3170)
ModLoad: 6fa60000 6fab2000   C:\WINDOWS\SYSTEM32\mswsock.dll
ModLoad: 76ec0000 76f40000   C:\WINDOWS\System32\clbcatq.dll
ModLoad: 73c70000 73d0f000   C:\WINDOWS\SYSTEM32\apphelp.dll
ModLoad: 6b320000 6b33b000   C:\WINDOWS\SYSTEM32\edputil.dll
ModLoad: 6f5e0000 6f80a000   C:\WINDOWS\SYSTEM32\iertutil.dll
ModLoad: 6f810000 6f82c000   C:\WINDOWS\SYSTEM32\srvcli.dll
ModLoad: 74280000 7428b000   C:\WINDOWS\SYSTEM32\netutils.dll
ModLoad: 6f8b0000 6fa5a000   C:\WINDOWS\SYSTEM32\urlmon.dll
ModLoad: 6efc0000 6efc8000   C:\WINDOWS\SYSTEM32\FLTLIB.DLL
ModLoad: 65820000 6583b000   C:\WINDOWS\SYSTEM32\CLDAPI.dll
ModLoad: 527a0000 52877000   C:\Windows\System32\wintypes.dll
ModLoad: 73f90000 73fb9000   C:\WINDOWS\SYSTEM32\ntmarta.dll
ModLoad: 51f40000 51fc9000   C:\WINDOWS\System32\CoreMessaging.dll
ModLoad: 51fd0000 5222e000   C:\WINDOWS\System32\CoreUIComponents.dll
ModLoad: 52230000 522b1000   C:\WINDOWS\System32\TextInputFramework.dll
ModLoad: 70b10000 70b63000   C:\WINDOWS\system32\Oleacc.dll
ModLoad: 60570000 60595000   C:\WINDOWS\SYSTEM32\DWMAPI.DLL
ModLoad: 60510000 60529000   C:\WINDOWS\SYSTEM32\dxcore.dll
TTD: End of trace reached.
(45b8.21e4): Break instruction exception - code 80000003 (first/second chance not available)
Time Travel Position: 6DE2FA:0
76f46000 ea0960f4763300  jmp     0033:76F46009
0:000> !tt 0
!tt 0
Setting position to the beginning of the trace
Setting position: 47:0
gt 0
(45b8.21e4): Break instruction exception - code 80000003 (first/second chance not available)
Time Travel Position: 47:0
ntdll!LdrInitializeThunk:
76f82ec0 8bff            mov     edi,edi
0:000> !tt 0
!tt 0
Setting position to the beginning of the trace
Setting position: 47:0
gt 0
(45b8.21e4): Break instruction exception - code 80000003 (first/second chance not available)
Time Travel Position: 47:0
ntdll!LdrInitializeThunk:
76f82ec0 8bff            mov     edi,edi
0:000> pr 20
pr 20
eax=00401ee8 ebx=00270000 ecx=00000000 edx=00000000 esi=00000000 edi=00000000
eip=76f82ec2 esp=0164fd14 ebp=00000000 iopl=0         nv up ei pl nz na po nc
cs=0023  ss=002b  ds=002b  es=002b  fs=0053  gs=002b             efl=00000202
ntdll!LdrInitializeThunk+0x2:
76f82ec2 55              push    ebp
eax=00401ee8 ebx=00270000 ecx=00000000 edx=00000000 esi=00000000 edi=00000000
eip=76f82ec3 esp=0164fd10 ebp=00000000 iopl=0         nv up ei pl nz na po nc
cs=0023  ss=002b  ds=002b  es=002b  fs=0053  gs=002b             efl=00000202
ntdll!LdrInitializeThunk+0x3:
76f82ec3 8bec            mov     ebp,esp
eax=00401ee8 ebx=00270000 ecx=00000000 edx=00000000 esi=00000000 edi=00000000
eip=76f82ec5 esp=0164fd10 ebp=0164fd10 iopl=0         nv up ei pl nz na po nc
cs=0023  ss=002b  ds=002b  es=002b  fs=0053  gs=002b             efl=00000202
ntdll!LdrInitializeThunk+0x5:
76f82ec5 8b550c          mov     edx,dword ptr [ebp+0Ch] ss:002b:0164fd1c={ntdll (76f50000)}
eax=00401ee8 ebx=00270000 ecx=00000000 edx=76f50000 esi=00000000 edi=00000000
eip=76f82ec8 esp=0164fd10 ebp=0164fd10 iopl=0         nv up ei pl nz na po nc
cs=0023  ss=002b  ds=002b  es=002b  fs=0053  gs=002b             efl=00000202
ntdll!LdrInitializeThunk+0x8:
76f82ec8 8b4d08          mov     ecx,dword ptr [ebp+8] ss:002b:0164fd18=0164fd24
eax=00401ee8 ebx=00270000 ecx=0164fd24 edx=76f50000 esi=00000000 edi=00000000
eip=76f82ecb esp=0164fd10 ebp=0164fd10 iopl=0         nv up ei pl nz na po nc
cs=0023  ss=002b  ds=002b  es=002b  fs=0053  gs=002b             efl=00000202
ntdll!LdrInitializeThunk+0xb:
76f82ecb 56              push    esi
eax=00401ee8 ebx=00270000 ecx=0164fd24 edx=76f50000 esi=00000000 edi=00000000
eip=76f82ecc esp=0164fd0c ebp=0164fd10 iopl=0         nv up ei pl nz na po nc
cs=0023  ss=002b  ds=002b  es=002b  fs=0053  gs=002b             efl=00000202
ntdll!LdrInitializeThunk+0xc:
76f82ecc e81e000000      call    ntdll!LdrInitializeThunk+0x2f (76f82eef)
eax=00000000 ebx=00270000 ecx=4cd07388 edx=00000000 esi=00000000 edi=00000000
eip=76f82ed1 esp=0164fd0c ebp=0164fd10 iopl=0         nv up ei pl nz ac po nc
cs=0023  ss=002b  ds=002b  es=002b  fs=0053  gs=002b             efl=00000212
ntdll!LdrInitializeThunk+0x11:
76f82ed1 8b3598e80677    mov     esi,dword ptr [ntdll!RtlpFreezeTimeBias+0xf8 (7706e898)] ds:002b:7706e898=00000000
eax=00000000 ebx=00270000 ecx=4cd07388 edx=00000000 esi=00000000 edi=00000000
eip=76f82ed7 esp=0164fd0c ebp=0164fd10 iopl=0         nv up ei pl nz ac po nc
cs=0023  ss=002b  ds=002b  es=002b  fs=0053  gs=002b             efl=00000212
ntdll!LdrInitializeThunk+0x17:
76f82ed7 85f6            test    esi,esi
eax=00000000 ebx=00270000 ecx=4cd07388 edx=00000000 esi=00000000 edi=00000000
eip=76f82ed9 esp=0164fd0c ebp=0164fd10 iopl=0         nv up ei pl zr na pe nc
cs=0023  ss=002b  ds=002b  es=002b  fs=0053  gs=002b             efl=00000246
ntdll!LdrInitializeThunk+0x19:
76f82ed9 0f85a9e70500    jne     ntdll!RtlCaptureStackContext+0x7338 (76fe1688) [br=0]
eax=00000000 ebx=00270000 ecx=4cd07388 edx=00000000 esi=00000000 edi=00000000
eip=76f82edf esp=0164fd0c ebp=0164fd10 iopl=0         nv up ei pl zr na pe nc
cs=0023  ss=002b  ds=002b  es=002b  fs=0053  gs=002b             efl=00000246
ntdll!LdrInitializeThunk+0x1f:
76f82edf 6a01            push    1
eax=00000000 ebx=00270000 ecx=4cd07388 edx=00000000 esi=00000000 edi=00000000
eip=76f82ee1 esp=0164fd08 ebp=0164fd10 iopl=0         nv up ei pl zr na pe nc
cs=0023  ss=002b  ds=002b  es=002b  fs=0053  gs=002b             efl=00000246
ntdll!LdrInitializeThunk+0x21:
76f82ee1 ff7508          push    dword ptr [ebp+8]    ss:002b:0164fd18=0164fd24
eax=00000000 ebx=00270000 ecx=4cd07388 edx=00000000 esi=00000000 edi=00000000
eip=76f82ee4 esp=0164fd04 ebp=0164fd10 iopl=0         nv up ei pl zr na pe nc
cs=0023  ss=002b  ds=002b  es=002b  fs=0053  gs=002b             efl=00000246
ntdll!LdrInitializeThunk+0x24:
76f82ee4 e887020400      call    ntdll!ZwContinue (76fc3170)
ModLoad: 6fa60000 6fab2000   C:\WINDOWS\SYSTEM32\mswsock.dll
ModLoad: 76ec0000 76f40000   C:\WINDOWS\System32\clbcatq.dll
ModLoad: 73c70000 73d0f000   C:\WINDOWS\SYSTEM32\apphelp.dll
ModLoad: 6b320000 6b33b000   C:\WINDOWS\SYSTEM32\edputil.dll
ModLoad: 6f5e0000 6f80a000   C:\WINDOWS\SYSTEM32\iertutil.dll
ModLoad: 6f810000 6f82c000   C:\WINDOWS\SYSTEM32\srvcli.dll
ModLoad: 74280000 7428b000   C:\WINDOWS\SYSTEM32\netutils.dll
ModLoad: 6f8b0000 6fa5a000   C:\WINDOWS\SYSTEM32\urlmon.dll
ModLoad: 6efc0000 6efc8000   C:\WINDOWS\SYSTEM32\FLTLIB.DLL
ModLoad: 65820000 6583b000   C:\WINDOWS\SYSTEM32\CLDAPI.dll
ModLoad: 527a0000 52877000   C:\Windows\System32\wintypes.dll
ModLoad: 73f90000 73fb9000   C:\WINDOWS\SYSTEM32\ntmarta.dll
ModLoad: 51f40000 51fc9000   C:\WINDOWS\System32\CoreMessaging.dll
ModLoad: 51fd0000 5222e000   C:\WINDOWS\System32\CoreUIComponents.dll
ModLoad: 52230000 522b1000   C:\WINDOWS\System32\TextInputFramework.dll
ModLoad: 70b10000 70b63000   C:\WINDOWS\system32\Oleacc.dll
ModLoad: 60570000 60595000   C:\WINDOWS\SYSTEM32\DWMAPI.DLL
ModLoad: 60510000 60529000   C:\WINDOWS\SYSTEM32\dxcore.dll
TTD: End of trace reached.
(45b8.21e4): Break instruction exception - code 80000003 (first/second chance not available)
Time Travel Position: 6DE2FA:0
eax=0007002c ebx=00000000 ecx=4cd070cc edx=76fd9f60 esi=00000000 edi=7706da60
eip=76f46000 esp=0164fe38 ebp=0164ff10 iopl=0         nv up ei ng nz ac pe cy
cs=0023  ss=002b  ds=002b  es=002b  fs=0053  gs=002b             efl=00000297
76f46000 ea0960f4763300  jmp     0033:76F46009
0:000> !tt 0
!tt 0
Setting position to the beginning of the trace
Setting position: 47:0
gt 0
(45b8.21e4): Break instruction exception - code 80000003 (first/second chance not available)
Time Travel Position: 47:0
eax=00401ee8 ebx=00270000 ecx=00000000 edx=00000000 esi=00000000 edi=00000000
eip=76f82ec0 esp=0164fd14 ebp=00000000 iopl=0         nv up ei pl nz na po nc
cs=0023  ss=002b  ds=002b  es=002b  fs=0053  gs=002b             efl=00000202
ntdll!LdrInitializeThunk:
76f82ec0 8bff            mov     edi,edi
0:000> pr 5
pr 5
ntdll!LdrInitializeThunk+0x2:
76f82ec2 55              push    ebp
ntdll!LdrInitializeThunk+0x3:
76f82ec3 8bec            mov     ebp,esp
ntdll!LdrInitializeThunk+0x5:
76f82ec5 8b550c          mov     edx,dword ptr [ebp+0Ch] ss:002b:0164fd1c={ntdll (76f50000)}
ntdll!LdrInitializeThunk+0x8:
76f82ec8 8b4d08          mov     ecx,dword ptr [ebp+8] ss:002b:0164fd18=0164fd24
Time Travel Position: 47:5
ntdll!LdrInitializeThunk+0xb:
76f82ecb 56              push    esi
0:000> pr 5
pr 5
eax=00401ee8 ebx=00270000 ecx=0164fd24 edx=76f50000 esi=00000000 edi=00000000
eip=76f82ecc esp=0164fd0c ebp=0164fd10 iopl=0         nv up ei pl nz na po nc
cs=0023  ss=002b  ds=002b  es=002b  fs=0053  gs=002b             efl=00000202
ntdll!LdrInitializeThunk+0xc:
76f82ecc e81e000000      call    ntdll!LdrInitializeThunk+0x2f (76f82eef)
eax=00000000 ebx=00270000 ecx=4cd07388 edx=00000000 esi=00000000 edi=00000000
eip=76f82ed1 esp=0164fd0c ebp=0164fd10 iopl=0         nv up ei pl nz ac po nc
cs=0023  ss=002b  ds=002b  es=002b  fs=0053  gs=002b             efl=00000212
ntdll!LdrInitializeThunk+0x11:
76f82ed1 8b3598e80677    mov     esi,dword ptr [ntdll!RtlpFreezeTimeBias+0xf8 (7706e898)] ds:002b:7706e898=00000000
eax=00000000 ebx=00270000 ecx=4cd07388 edx=00000000 esi=00000000 edi=00000000
eip=76f82ed7 esp=0164fd0c ebp=0164fd10 iopl=0         nv up ei pl nz ac po nc
cs=0023  ss=002b  ds=002b  es=002b  fs=0053  gs=002b             efl=00000212
ntdll!LdrInitializeThunk+0x17:
76f82ed7 85f6            test    esi,esi
eax=00000000 ebx=00270000 ecx=4cd07388 edx=00000000 esi=00000000 edi=00000000
eip=76f82ed9 esp=0164fd0c ebp=0164fd10 iopl=0         nv up ei pl zr na pe nc
cs=0023  ss=002b  ds=002b  es=002b  fs=0053  gs=002b             efl=00000246
ntdll!LdrInitializeThunk+0x19:
76f82ed9 0f85a9e70500    jne     ntdll!RtlCaptureStackContext+0x7338 (76fe1688) [br=0]
Time Travel Position: D5:C
eax=00000000 ebx=00270000 ecx=4cd07388 edx=00000000 esi=00000000 edi=00000000
eip=76f82edf esp=0164fd0c ebp=0164fd10 iopl=0         nv up ei pl zr na pe nc
cs=0023  ss=002b  ds=002b  es=002b  fs=0053  gs=002b             efl=00000246
ntdll!LdrInitializeThunk+0x1f:
76f82edf 6a01            push    1
0:000> pr 5
pr 5
ntdll!LdrInitializeThunk+0x21:
76f82ee1 ff7508          push    dword ptr [ebp+8]    ss:002b:0164fd18=0164fd24
ntdll!LdrInitializeThunk+0x24:
76f82ee4 e887020400      call    ntdll!ZwContinue (76fc3170)
ModLoad: 6fa60000 6fab2000   C:\WINDOWS\SYSTEM32\mswsock.dll
ModLoad: 76ec0000 76f40000   C:\WINDOWS\System32\clbcatq.dll
ModLoad: 73c70000 73d0f000   C:\WINDOWS\SYSTEM32\apphelp.dll
ModLoad: 6b320000 6b33b000   C:\WINDOWS\SYSTEM32\edputil.dll
ModLoad: 6f5e0000 6f80a000   C:\WINDOWS\SYSTEM32\iertutil.dll
ModLoad: 6f810000 6f82c000   C:\WINDOWS\SYSTEM32\srvcli.dll
ModLoad: 74280000 7428b000   C:\WINDOWS\SYSTEM32\netutils.dll
ModLoad: 6f8b0000 6fa5a000   C:\WINDOWS\SYSTEM32\urlmon.dll
ModLoad: 6efc0000 6efc8000   C:\WINDOWS\SYSTEM32\FLTLIB.DLL
ModLoad: 65820000 6583b000   C:\WINDOWS\SYSTEM32\CLDAPI.dll
ModLoad: 527a0000 52877000   C:\Windows\System32\wintypes.dll
ModLoad: 73f90000 73fb9000   C:\WINDOWS\SYSTEM32\ntmarta.dll
ModLoad: 51f40000 51fc9000   C:\WINDOWS\System32\CoreMessaging.dll
ModLoad: 51fd0000 5222e000   C:\WINDOWS\System32\CoreUIComponents.dll
ModLoad: 52230000 522b1000   C:\WINDOWS\System32\TextInputFramework.dll
ModLoad: 70b10000 70b63000   C:\WINDOWS\system32\Oleacc.dll
ModLoad: 60570000 60595000   C:\WINDOWS\SYSTEM32\DWMAPI.DLL
ModLoad: 60510000 60529000   C:\WINDOWS\SYSTEM32\dxcore.dll
TTD: End of trace reached.
(45b8.21e4): Break instruction exception - code 80000003 (first/second chance not available)
Time Travel Position: 6DE2FA:0
76f46000 ea0960f4763300  jmp     0033:76F46009
0:000> |
|
.  0	id: 45b8	attach	name: C:\Program Files (x86)\MHJ-Software\WinSPS-S7-V6\ws7v6.exe
0:000> |1s
|1s
        ^ Illegal process error in '|1s'
0:000> !tt 0
!tt 0
Setting position to the beginning of the trace
Setting position: 47:0
gt 0
(45b8.21e4): Break instruction exception - code 80000003 (first/second chance not available)
Time Travel Position: 47:0
ntdll!LdrInitializeThunk:
76f82ec0 8bff            mov     edi,edi
JavaScript script unloaded from 'C:\Program Files\WindowsApps\Microsoft.WinDbg_1.2111.9001.0_neutral__8wekyb3d8bbwe\x86\TTD\Analyzers\HeapAnalysis.js'
JavaScript script unloaded from 'C:\Program Files\WindowsApps\Microsoft.WinDbg_1.2111.9001.0_neutral__8wekyb3d8bbwe\x86\TTD\Analyzers\TtdAnalyze.js'
NatVis script unloaded from 'C:\Program Files\WindowsApps\Microsoft.WinDbg_1.2111.9001.0_neutral__8wekyb3d8bbwe\x86\Visualizers\atlmfc.natvis'
NatVis script unloaded from 'C:\Program Files\WindowsApps\Microsoft.WinDbg_1.2111.9001.0_neutral__8wekyb3d8bbwe\x86\Visualizers\ObjectiveC.natvis'
NatVis script unloaded from 'C:\Program Files\WindowsApps\Microsoft.WinDbg_1.2111.9001.0_neutral__8wekyb3d8bbwe\x86\Visualizers\concurrency.natvis'
NatVis script unloaded from 'C:\Program Files\WindowsApps\Microsoft.WinDbg_1.2111.9001.0_neutral__8wekyb3d8bbwe\x86\Visualizers\cpp_rest.natvis'
NatVis script unloaded from 'C:\Program Files\WindowsApps\Microsoft.WinDbg_1.2111.9001.0_neutral__8wekyb3d8bbwe\x86\Visualizers\stl.natvis'
NatVis script unloaded from 'C:\Program Files\WindowsApps\Microsoft.WinDbg_1.2111.9001.0_neutral__8wekyb3d8bbwe\x86\Visualizers\Windows.Data.Json.natvis'
NatVis script unloaded from 'C:\Program Files\WindowsApps\Microsoft.WinDbg_1.2111.9001.0_neutral__8wekyb3d8bbwe\x86\Visualizers\Windows.Devices.Geolocation.natvis'
NatVis script unloaded from 'C:\Program Files\WindowsApps\Microsoft.WinDbg_1.2111.9001.0_neutral__8wekyb3d8bbwe\x86\Visualizers\Windows.Devices.Sensors.natvis'
NatVis script unloaded from 'C:\Program Files\WindowsApps\Microsoft.WinDbg_1.2111.9001.0_neutral__8wekyb3d8bbwe\x86\Visualizers\Windows.Media.natvis'
NatVis script unloaded from 'C:\Program Files\WindowsApps\Microsoft.WinDbg_1.2111.9001.0_neutral__8wekyb3d8bbwe\x86\Visualizers\windows.natvis'
NatVis script unloaded from 'C:\Program Files\WindowsApps\Microsoft.WinDbg_1.2111.9001.0_neutral__8wekyb3d8bbwe\x86\Visualizers\winrt.natvis'
