 # ChildEBP RetAddr      Args to Child              
WARNING: Stack unwind information not available. Following frames may be wrong.
00 0164aaf0 006fbb82     0164ab24 006fba3c 0164ac34 ws7v6!SymbeditorFinalize+0x2a16
01 0164ab1c 00645ab6     00000113 00000001 00000000 ws7v6!Exceptionloginitialization$qqrv+0xd897e
02 0164ab34 76192edb     000209da 00000113 00000001 ws7v6!Exceptionloginitialization$qqrv+0x228b2
eax=00000000 ebx=7fde0010 ecx=00000002 edx=00c9f7bc esi=006fbb70 edi=00000113
eip=0051e486 esp=0164aac8 ebp=0164aaf0 iopl=0         nv up ei pl nz na po nc
cs=0023  ss=002b  ds=002b  es=002b  fs=0053  gs=002b             efl=00000202
ws7v6!SymbeditorFinalize+0x2a16:
0051e486 81e101000080    and     ecx,80000001h
SetContext failed, 0x80070005
MachineInfo::SetContext failed - Thread: 071E5808  Handle: 97c  Id: 2184 - Error == 0x80070005
 # ChildEBP RetAddr      Args to Child              
WARNING: Stack unwind information not available. Following frames may be wrong.
00 0164aaf0 006fbb82     0164ab24 006fba3c 0164ac34 ws7v6!SymbeditorFinalize+0x29f1
01 0164ab1c 00645ab6     00000113 00000001 00000000 ws7v6!Exceptionloginitialization$qqrv+0xd897e
02 0164ab34 76192edb     000209da 00000113 00000001 ws7v6!Exceptionloginitialization$qqrv+0x228b2
eax=0164ab00 ebx=7fde0010 ecx=051c0793 edx=08532da0 esi=006fbb70 edi=00000113
eip=0051e461 esp=0164aac8 ebp=0164aaf0 iopl=0         nv up ei pl nz na pe cy
cs=0023  ss=002b  ds=002b  es=002b  fs=0053  gs=002b             efl=00000207
ws7v6!SymbeditorFinalize+0x29f1:
0051e461 e802c1fcff      call    ws7v6!DlgprjuFinalize+0xf86c (004ea568)
 # ChildEBP RetAddr      Args to Child              
WARNING: Stack unwind information not available. Following frames may be wrong.
00 0164aaf0 006fbb82     0164ab24 006fba3c 0164ac34 ws7v6!SymbeditorFinalize+0x2a16
01 0164ab1c 00645ab6     00000113 00000001 00000000 ws7v6!Exceptionloginitialization$qqrv+0xd897e
02 0164ab34 76192edb     000209da 00000113 00000001 ws7v6!Exceptionloginitialization$qqrv+0x228b2
eax=00000000 ebx=7fde0010 ecx=00000003 edx=00c9f7bc esi=006fbb70 edi=00000113
eip=0051e486 esp=0164aac8 ebp=0164aaf0 iopl=0         nv up ei pl nz na po nc
cs=0023  ss=002b  ds=002b  es=002b  fs=0053  gs=002b             efl=00000202
ws7v6!SymbeditorFinalize+0x2a16:
0051e486 81e101000080    and     ecx,80000001h
 # ChildEBP RetAddr      Args to Child              
WARNING: Stack unwind information not available. Following frames may be wrong.
00 0164bd78 006fbb82     0164bdac 006fba3c 0164bebc ws7v6!SymbeditorFinalize+0x29f1
01 0164bda4 00645ab6     00000113 00000001 00000000 ws7v6!Exceptionloginitialization$qqrv+0xd897e
02 0164bdbc 76192edb     000209da 00000113 00000001 ws7v6!Exceptionloginitialization$qqrv+0x228b2
eax=0164bd88 ebx=7fde0010 ecx=051c0793 edx=08532da0 esi=006fbb70 edi=00000113
eip=0051e461 esp=0164bd50 ebp=0164bd78 iopl=0         nv up ei pl nz na po cy
cs=0023  ss=002b  ds=002b  es=002b  fs=0053  gs=002b             efl=00000203
ws7v6!SymbeditorFinalize+0x29f1:
0051e461 e802c1fcff      call    ws7v6!DlgprjuFinalize+0xf86c (004ea568)
 # ChildEBP RetAddr      Args to Child              
WARNING: Stack unwind information not available. Following frames may be wrong.
00 0164bd78 006fbb82     0164bdac 006fba3c 0164bebc ws7v6!SymbeditorFinalize+0x2a16
01 0164bda4 00645ab6     00000113 00000001 00000000 ws7v6!Exceptionloginitialization$qqrv+0xd897e
02 0164bdbc 76192edb     000209da 00000113 00000001 ws7v6!Exceptionloginitialization$qqrv+0x228b2
eax=00000000 ebx=7fde0010 ecx=00000004 edx=00c9f7bc esi=006fbb70 edi=00000113
eip=0051e486 esp=0164bd50 ebp=0164bd78 iopl=0         nv up ei pl nz na po nc
cs=0023  ss=002b  ds=002b  es=002b  fs=0053  gs=002b             efl=00000202
ws7v6!SymbeditorFinalize+0x2a16:
0051e486 81e101000080    and     ecx,80000001h
 # ChildEBP RetAddr      Args to Child              
WARNING: Stack unwind information not available. Following frames may be wrong.
00 0164bd78 006fbb82     0164bdac 006fba3c 0164bebc ws7v6!SymbeditorFinalize+0x29f1
01 0164bda4 00645ab6     00000113 00000001 00000000 ws7v6!Exceptionloginitialization$qqrv+0xd897e
02 0164bdbc 76192edb     000209da 00000113 00000001 ws7v6!Exceptionloginitialization$qqrv+0x228b2
eax=0164bd88 ebx=7fde0010 ecx=051c0793 edx=08532da0 esi=006fbb70 edi=00000113
eip=0051e461 esp=0164bd50 ebp=0164bd78 iopl=0         nv up ei pl nz na pe cy
cs=0023  ss=002b  ds=002b  es=002b  fs=0053  gs=002b             efl=00000207
ws7v6!SymbeditorFinalize+0x29f1:
0051e461 e802c1fcff      call    ws7v6!DlgprjuFinalize+0xf86c (004ea568)
 # ChildEBP RetAddr      Args to Child              
WARNING: Stack unwind information not available. Following frames may be wrong.
00 0164bd78 006fbb82     0164bdac 006fba3c 0164bebc ws7v6!SymbeditorFinalize+0x2a16
01 0164bda4 00645ab6     00000113 00000001 00000000 ws7v6!Exceptionloginitialization$qqrv+0xd897e
02 0164bdbc 76192edb     000209da 00000113 00000001 ws7v6!Exceptionloginitialization$qqrv+0x228b2
eax=00000000 ebx=7fde0010 ecx=00000005 edx=00c9f7bc esi=006fbb70 edi=00000113
eip=0051e486 esp=0164bd50 ebp=0164bd78 iopl=0         nv up ei pl nz na po nc
cs=0023  ss=002b  ds=002b  es=002b  fs=0053  gs=002b             efl=00000202
ws7v6!SymbeditorFinalize+0x2a16:
0051e486 81e101000080    and     ecx,80000001h
 # ChildEBP RetAddr      Args to Child              
WARNING: Stack unwind information not available. Following frames may be wrong.
00 0164bd78 006fbb82     0164bdac 006fba3c 0164bebc ws7v6!SymbeditorFinalize+0x29f1
01 0164bda4 00645ab6     00000113 00000001 00000000 ws7v6!Exceptionloginitialization$qqrv+0xd897e
02 0164bdbc 76192edb     000209da 00000113 00000001 ws7v6!Exceptionloginitialization$qqrv+0x228b2
eax=0164bd88 ebx=7fde0010 ecx=051c0793 edx=08532da0 esi=006fbb70 edi=00000113
eip=0051e461 esp=0164bd50 ebp=0164bd78 iopl=0         nv up ei pl nz na pe cy
cs=0023  ss=002b  ds=002b  es=002b  fs=0053  gs=002b             efl=00000207
ws7v6!SymbeditorFinalize+0x29f1:
0051e461 e802c1fcff      call    ws7v6!DlgprjuFinalize+0xf86c (004ea568)
 # ChildEBP RetAddr      Args to Child              
WARNING: Stack unwind information not available. Following frames may be wrong.
00 0164bd78 006fbb82     0164bdac 006fba3c 0164bebc ws7v6!SymbeditorFinalize+0x2a16
01 0164bda4 00645ab6     00000113 00000001 00000000 ws7v6!Exceptionloginitialization$qqrv+0xd897e
02 0164bdbc 76192edb     000209da 00000113 00000001 ws7v6!Exceptionloginitialization$qqrv+0x228b2
eax=00000000 ebx=7fde0010 ecx=00000006 edx=00c9f7bc esi=006fbb70 edi=00000113
eip=0051e486 esp=0164bd50 ebp=0164bd78 iopl=0         nv up ei pl nz na po nc
cs=0023  ss=002b  ds=002b  es=002b  fs=0053  gs=002b             efl=00000202
ws7v6!SymbeditorFinalize+0x2a16:
0051e486 81e101000080    and     ecx,80000001h
 # ChildEBP RetAddr      Args to Child              
WARNING: Stack unwind information not available. Following frames may be wrong.
00 0164bd78 006fbb82     0164bdac 006fba3c 0164bebc ws7v6!SymbeditorFinalize+0x29f1
01 0164bda4 00645ab6     00000113 00000001 00000000 ws7v6!Exceptionloginitialization$qqrv+0xd897e
02 0164bdbc 76192edb     000209da 00000113 00000001 ws7v6!Exceptionloginitialization$qqrv+0x228b2
eax=0164bd88 ebx=7fde0010 ecx=051c0793 edx=08532da0 esi=006fbb70 edi=00000113
eip=0051e461 esp=0164bd50 ebp=0164bd78 iopl=0         nv up ei pl nz na po cy
cs=0023  ss=002b  ds=002b  es=002b  fs=0053  gs=002b             efl=00000203
ws7v6!SymbeditorFinalize+0x29f1:
0051e461 e802c1fcff      call    ws7v6!DlgprjuFinalize+0xf86c (004ea568)
 # ChildEBP RetAddr      Args to Child              
WARNING: Stack unwind information not available. Following frames may be wrong.
00 0164bd78 006fbb82     0164bdac 006fba3c 0164bebc ws7v6!SymbeditorFinalize+0x2a16
01 0164bda4 00645ab6     00000113 00000001 00000000 ws7v6!Exceptionloginitialization$qqrv+0xd897e
02 0164bdbc 76192edb     000209da 00000113 00000001 ws7v6!Exceptionloginitialization$qqrv+0x228b2
eax=00000000 ebx=7fde0010 ecx=00000007 edx=00c9f7bc esi=006fbb70 edi=00000113
eip=0051e486 esp=0164bd50 ebp=0164bd78 iopl=0         nv up ei pl nz na po nc
cs=0023  ss=002b  ds=002b  es=002b  fs=0053  gs=002b             efl=00000202
ws7v6!SymbeditorFinalize+0x2a16:
0051e486 81e101000080    and     ecx,80000001h
 # ChildEBP RetAddr      Args to Child              
WARNING: Stack unwind information not available. Following frames may be wrong.
00 0164bec8 006fbb82     0164befc 006fba3c 0164c00c ws7v6!SymbeditorFinalize+0x29f1
01 0164bef4 00645ab6     00000113 00000001 00000000 ws7v6!Exceptionloginitialization$qqrv+0xd897e
02 0164bf0c 76192edb     000209da 00000113 00000001 ws7v6!Exceptionloginitialization$qqrv+0x228b2
eax=0164bed8 ebx=7fde0010 ecx=051c0793 edx=08532da0 esi=006fbb70 edi=00000113
eip=0051e461 esp=0164bea0 ebp=0164bec8 iopl=0         nv up ei pl nz na po cy
cs=0023  ss=002b  ds=002b  es=002b  fs=0053  gs=002b             efl=00000203
ws7v6!SymbeditorFinalize+0x29f1:
0051e461 e802c1fcff      call    ws7v6!DlgprjuFinalize+0xf86c (004ea568)
 # ChildEBP RetAddr      Args to Child              
WARNING: Stack unwind information not available. Following frames may be wrong.
00 0164bec8 006fbb82     0164befc 006fba3c 0164c00c ws7v6!SymbeditorFinalize+0x2a16
01 0164bef4 00645ab6     00000113 00000001 00000000 ws7v6!Exceptionloginitialization$qqrv+0xd897e
02 0164bf0c 76192edb     000209da 00000113 00000001 ws7v6!Exceptionloginitialization$qqrv+0x228b2
eax=00000000 ebx=7fde0010 ecx=00000008 edx=00c9f7bc esi=006fbb70 edi=00000113
eip=0051e486 esp=0164bea0 ebp=0164bec8 iopl=0         nv up ei pl nz na po nc
cs=0023  ss=002b  ds=002b  es=002b  fs=0053  gs=002b             efl=00000202
ws7v6!SymbeditorFinalize+0x2a16:
0051e486 81e101000080    and     ecx,80000001h
 # ChildEBP RetAddr      Args to Child              
WARNING: Stack unwind information not available. Following frames may be wrong.
00 0164e9b4 006fbb82     0164e9e8 006fba3c 0164eaf8 ws7v6!SymbeditorFinalize+0x29f1
01 0164e9e0 00645ab6     00000113 00000001 00000000 ws7v6!Exceptionloginitialization$qqrv+0xd897e
02 0164e9f8 76192edb     000209da 00000113 00000001 ws7v6!Exceptionloginitialization$qqrv+0x228b2
eax=0164e9c4 ebx=7fde0010 ecx=051c0793 edx=08532da0 esi=006fbb70 edi=00000113
eip=0051e461 esp=0164e98c ebp=0164e9b4 iopl=0         nv up ei pl nz na pe cy
cs=0023  ss=002b  ds=002b  es=002b  fs=0053  gs=002b             efl=00000207
ws7v6!SymbeditorFinalize+0x29f1:
0051e461 e802c1fcff      call    ws7v6!DlgprjuFinalize+0xf86c (004ea568)
 # ChildEBP RetAddr      Args to Child              
WARNING: Stack unwind information not available. Following frames may be wrong.
00 0164e9b4 006fbb82     0164e9e8 006fba3c 0164eaf8 ws7v6!SymbeditorFinalize+0x2a16
01 0164e9e0 00645ab6     00000113 00000001 00000000 ws7v6!Exceptionloginitialization$qqrv+0xd897e
02 0164e9f8 76192edb     000209da 00000113 00000001 ws7v6!Exceptionloginitialization$qqrv+0x228b2
eax=00000000 ebx=7fde0010 ecx=00000009 edx=00c9f7bc esi=006fbb70 edi=00000113
eip=0051e486 esp=0164e98c ebp=0164e9b4 iopl=0         nv up ei pl nz na po nc
cs=0023  ss=002b  ds=002b  es=002b  fs=0053  gs=002b             efl=00000202
ws7v6!SymbeditorFinalize+0x2a16:
0051e486 81e101000080    and     ecx,80000001h
 # ChildEBP RetAddr      Args to Child              
WARNING: Stack unwind information not available. Following frames may be wrong.
00 0164e9b4 006fbb82     0164e9e8 006fba3c 0164eaf8 ws7v6!SymbeditorFinalize+0x29f1
01 0164e9e0 00645ab6     00000113 00000001 00000000 ws7v6!Exceptionloginitialization$qqrv+0xd897e
02 0164e9f8 76192edb     000209da 00000113 00000001 ws7v6!Exceptionloginitialization$qqrv+0x228b2
eax=0164e9c4 ebx=7fde0010 ecx=051c0793 edx=08532da0 esi=006fbb70 edi=00000113
eip=0051e461 esp=0164e98c ebp=0164e9b4 iopl=0         nv up ei pl nz na pe cy
cs=0023  ss=002b  ds=002b  es=002b  fs=0053  gs=002b             efl=00000207
ws7v6!SymbeditorFinalize+0x29f1:
0051e461 e802c1fcff      call    ws7v6!DlgprjuFinalize+0xf86c (004ea568)
 # ChildEBP RetAddr      Args to Child              
WARNING: Stack unwind information not available. Following frames may be wrong.
00 0164e9b4 006fbb82     0164e9e8 006fba3c 0164eaf8 ws7v6!SymbeditorFinalize+0x2a16
01 0164e9e0 00645ab6     00000113 00000001 00000000 ws7v6!Exceptionloginitialization$qqrv+0xd897e
02 0164e9f8 76192edb     000209da 00000113 00000001 ws7v6!Exceptionloginitialization$qqrv+0x228b2
eax=00000000 ebx=7fde0010 ecx=0000000a edx=00c9f7bc esi=006fbb70 edi=00000113
eip=0051e486 esp=0164e98c ebp=0164e9b4 iopl=0         nv up ei pl nz na po nc
cs=0023  ss=002b  ds=002b  es=002b  fs=0053  gs=002b             efl=00000202
ws7v6!SymbeditorFinalize+0x2a16:
0051e486 81e101000080    and     ecx,80000001h
 # ChildEBP RetAddr      Args to Child              
WARNING: Stack unwind information not available. Following frames may be wrong.
00 0164e9b4 006fbb82     0164e9e8 006fba3c 0164eaf8 ws7v6!SymbeditorFinalize+0x29f1
01 0164e9e0 00645ab6     00000113 00000001 00000000 ws7v6!Exceptionloginitialization$qqrv+0xd897e
02 0164e9f8 76192edb     000209da 00000113 00000001 ws7v6!Exceptionloginitialization$qqrv+0x228b2
eax=0164e9c4 ebx=7fde0010 ecx=051c0793 edx=08532da0 esi=006fbb70 edi=00000113
eip=0051e461 esp=0164e98c ebp=0164e9b4 iopl=0         nv up ei pl nz na po cy
cs=0023  ss=002b  ds=002b  es=002b  fs=0053  gs=002b             efl=00000203
ws7v6!SymbeditorFinalize+0x29f1:
0051e461 e802c1fcff      call    ws7v6!DlgprjuFinalize+0xf86c (004ea568)
 # ChildEBP RetAddr      Args to Child              
WARNING: Stack unwind information not available. Following frames may be wrong.
00 0164e9b4 006fbb82     0164e9e8 006fba3c 0164eaf8 ws7v6!SymbeditorFinalize+0x2a16
01 0164e9e0 00645ab6     00000113 00000001 00000000 ws7v6!Exceptionloginitialization$qqrv+0xd897e
02 0164e9f8 76192edb     000209da 00000113 00000001 ws7v6!Exceptionloginitialization$qqrv+0x228b2
eax=00000000 ebx=7fde0010 ecx=0000000b edx=00c9f7bc esi=006fbb70 edi=00000113
eip=0051e486 esp=0164e98c ebp=0164e9b4 iopl=0         nv up ei pl nz na po nc
cs=0023  ss=002b  ds=002b  es=002b  fs=0053  gs=002b             efl=00000202
ws7v6!SymbeditorFinalize+0x2a16:
0051e486 81e101000080    and     ecx,80000001h
 # ChildEBP RetAddr      Args to Child              
WARNING: Stack unwind information not available. Following frames may be wrong.
00 0164e9b4 006fbb82     0164e9e8 006fba3c 0164eaf8 ws7v6!SymbeditorFinalize+0x29f1
01 0164e9e0 00645ab6     00000113 00000001 00000000 ws7v6!Exceptionloginitialization$qqrv+0xd897e
02 0164e9f8 76192edb     000209da 00000113 00000001 ws7v6!Exceptionloginitialization$qqrv+0x228b2
eax=0164e9c4 ebx=7fde0010 ecx=051c0793 edx=08532da0 esi=006fbb70 edi=00000113
eip=0051e461 esp=0164e98c ebp=0164e9b4 iopl=0         nv up ei pl nz na pe cy
cs=0023  ss=002b  ds=002b  es=002b  fs=0053  gs=002b             efl=00000207
ws7v6!SymbeditorFinalize+0x29f1:
0051e461 e802c1fcff      call    ws7v6!DlgprjuFinalize+0xf86c (004ea568)
 # ChildEBP RetAddr      Args to Child              
WARNING: Stack unwind information not available. Following frames may be wrong.
00 0164e9b4 006fbb82     0164e9e8 006fba3c 0164eaf8 ws7v6!SymbeditorFinalize+0x2a16
01 0164e9e0 00645ab6     00000113 00000001 00000000 ws7v6!Exceptionloginitialization$qqrv+0xd897e
02 0164e9f8 76192edb     000209da 00000113 00000001 ws7v6!Exceptionloginitialization$qqrv+0x228b2
eax=00000000 ebx=7fde0010 ecx=0000000c edx=00c9f7bc esi=006fbb70 edi=00000113
eip=0051e486 esp=0164e98c ebp=0164e9b4 iopl=0         nv up ei pl nz na po nc
cs=0023  ss=002b  ds=002b  es=002b  fs=0053  gs=002b             efl=00000202
ws7v6!SymbeditorFinalize+0x2a16:
0051e486 81e101000080    and     ecx,80000001h
 # ChildEBP RetAddr      Args to Child              
WARNING: Stack unwind information not available. Following frames may be wrong.
00 0164e9b4 006fbb82     0164e9e8 006fba3c 0164eaf8 ws7v6!SymbeditorFinalize+0x29f1
01 0164e9e0 00645ab6     00000113 00000001 00000000 ws7v6!Exceptionloginitialization$qqrv+0xd897e
02 0164e9f8 76192edb     000209da 00000113 00000001 ws7v6!Exceptionloginitialization$qqrv+0x228b2
eax=0164e9c4 ebx=7fde0010 ecx=051c0793 edx=08532da0 esi=006fbb70 edi=00000113
eip=0051e461 esp=0164e98c ebp=0164e9b4 iopl=0         nv up ei pl nz na po cy
cs=0023  ss=002b  ds=002b  es=002b  fs=0053  gs=002b             efl=00000203
ws7v6!SymbeditorFinalize+0x29f1:
0051e461 e802c1fcff      call    ws7v6!DlgprjuFinalize+0xf86c (004ea568)
 # ChildEBP RetAddr      Args to Child              
WARNING: Stack unwind information not available. Following frames may be wrong.
00 0164e9b4 006fbb82     0164e9e8 006fba3c 0164eaf8 ws7v6!SymbeditorFinalize+0x2a16
01 0164e9e0 00645ab6     00000113 00000001 00000000 ws7v6!Exceptionloginitialization$qqrv+0xd897e
02 0164e9f8 76192edb     000209da 00000113 00000001 ws7v6!Exceptionloginitialization$qqrv+0x228b2
eax=00000000 ebx=7fde0010 ecx=0000000d edx=00c9f7bc esi=006fbb70 edi=00000113
eip=0051e486 esp=0164e98c ebp=0164e9b4 iopl=0         nv up ei pl nz na po nc
cs=0023  ss=002b  ds=002b  es=002b  fs=0053  gs=002b             efl=00000202
ws7v6!SymbeditorFinalize+0x2a16:
0051e486 81e101000080    and     ecx,80000001h
 # ChildEBP RetAddr      Args to Child              
WARNING: Stack unwind information not available. Following frames may be wrong.
00 0164e9b4 006fbb82     0164e9e8 006fba3c 0164eaf8 ws7v6!SymbeditorFinalize+0x29f1
01 0164e9e0 00645ab6     00000113 00000001 00000000 ws7v6!Exceptionloginitialization$qqrv+0xd897e
02 0164e9f8 76192edb     000209da 00000113 00000001 ws7v6!Exceptionloginitialization$qqrv+0x228b2
eax=0164e9c4 ebx=7fde0010 ecx=051c0793 edx=08532da0 esi=006fbb70 edi=00000113
eip=0051e461 esp=0164e98c ebp=0164e9b4 iopl=0         nv up ei pl nz na po cy
cs=0023  ss=002b  ds=002b  es=002b  fs=0053  gs=002b             efl=00000203
ws7v6!SymbeditorFinalize+0x29f1:
0051e461 e802c1fcff      call    ws7v6!DlgprjuFinalize+0xf86c (004ea568)
 # ChildEBP RetAddr      Args to Child              
WARNING: Stack unwind information not available. Following frames may be wrong.
00 0164e9b4 006fbb82     0164e9e8 006fba3c 0164eaf8 ws7v6!SymbeditorFinalize+0x2a16
01 0164e9e0 00645ab6     00000113 00000001 00000000 ws7v6!Exceptionloginitialization$qqrv+0xd897e
02 0164e9f8 76192edb     000209da 00000113 00000001 ws7v6!Exceptionloginitialization$qqrv+0x228b2
eax=00000000 ebx=7fde0010 ecx=0000000e edx=00c9f7bc esi=006fbb70 edi=00000113
eip=0051e486 esp=0164e98c ebp=0164e9b4 iopl=0         nv up ei pl nz na po nc
cs=0023  ss=002b  ds=002b  es=002b  fs=0053  gs=002b             efl=00000202
ws7v6!SymbeditorFinalize+0x2a16:
0051e486 81e101000080    and     ecx,80000001h
 # ChildEBP RetAddr      Args to Child              
WARNING: Stack unwind information not available. Following frames may be wrong.
00 0164e9b4 006fbb82     0164e9e8 006fba3c 0164eaf8 ws7v6!SymbeditorFinalize+0x29f1
01 0164e9e0 00645ab6     00000113 00000001 00000000 ws7v6!Exceptionloginitialization$qqrv+0xd897e
02 0164e9f8 76192edb     000209da 00000113 00000001 ws7v6!Exceptionloginitialization$qqrv+0x228b2
eax=0164e9c4 ebx=7fde0010 ecx=051c0793 edx=08532da0 esi=006fbb70 edi=00000113
eip=0051e461 esp=0164e98c ebp=0164e9b4 iopl=0         nv up ei pl nz na pe cy
cs=0023  ss=002b  ds=002b  es=002b  fs=0053  gs=002b             efl=00000207
ws7v6!SymbeditorFinalize+0x29f1:
0051e461 e802c1fcff      call    ws7v6!DlgprjuFinalize+0xf86c (004ea568)
 # ChildEBP RetAddr      Args to Child              
WARNING: Stack unwind information not available. Following frames may be wrong.
00 0164e9b4 006fbb82     0164e9e8 006fba3c 0164eaf8 ws7v6!SymbeditorFinalize+0x2a16
01 0164e9e0 00645ab6     00000113 00000001 00000000 ws7v6!Exceptionloginitialization$qqrv+0xd897e
02 0164e9f8 76192edb     000209da 00000113 00000001 ws7v6!Exceptionloginitialization$qqrv+0x228b2
eax=00000000 ebx=7fde0010 ecx=0000000f edx=00c9f7bc esi=006fbb70 edi=00000113
eip=0051e486 esp=0164e98c ebp=0164e9b4 iopl=0         nv up ei pl nz na po nc
cs=0023  ss=002b  ds=002b  es=002b  fs=0053  gs=002b             efl=00000202
ws7v6!SymbeditorFinalize+0x2a16:
0051e486 81e101000080    and     ecx,80000001h
 # ChildEBP RetAddr      Args to Child              
WARNING: Stack unwind information not available. Following frames may be wrong.
00 0164e9b4 006fbb82     0164e9e8 006fba3c 0164eaf8 ws7v6!SymbeditorFinalize+0x29f1
01 0164e9e0 00645ab6     00000113 00000001 00000000 ws7v6!Exceptionloginitialization$qqrv+0xd897e
02 0164e9f8 76192edb     000209da 00000113 00000001 ws7v6!Exceptionloginitialization$qqrv+0x228b2
eax=0164e9c4 ebx=7fde0010 ecx=051c0793 edx=08532da0 esi=006fbb70 edi=00000113
eip=0051e461 esp=0164e98c ebp=0164e9b4 iopl=0         nv up ei pl nz ac po cy
cs=0023  ss=002b  ds=002b  es=002b  fs=0053  gs=002b             efl=00000213
ws7v6!SymbeditorFinalize+0x29f1:
0051e461 e802c1fcff      call    ws7v6!DlgprjuFinalize+0xf86c (004ea568)
 # ChildEBP RetAddr      Args to Child              
WARNING: Stack unwind information not available. Following frames may be wrong.
00 0164e9b4 006fbb82     0164e9e8 006fba3c 0164eaf8 ws7v6!SymbeditorFinalize+0x2a16
01 0164e9e0 00645ab6     00000113 00000001 00000000 ws7v6!Exceptionloginitialization$qqrv+0xd897e
02 0164e9f8 76192edb     000209da 00000113 00000001 ws7v6!Exceptionloginitialization$qqrv+0x228b2
eax=00000000 ebx=7fde0010 ecx=00000010 edx=00c9f7bc esi=006fbb70 edi=00000113
eip=0051e486 esp=0164e98c ebp=0164e9b4 iopl=0         nv up ei pl nz na po nc
cs=0023  ss=002b  ds=002b  es=002b  fs=0053  gs=002b             efl=00000202
ws7v6!SymbeditorFinalize+0x2a16:
0051e486 81e101000080    and     ecx,80000001h
 # ChildEBP RetAddr      Args to Child              
WARNING: Stack unwind information not available. Following frames may be wrong.
00 0164e9b4 006fbb82     0164e9e8 006fba3c 0164eaf8 ws7v6!SymbeditorFinalize+0x29f1
01 0164e9e0 00645ab6     00000113 00000001 00000000 ws7v6!Exceptionloginitialization$qqrv+0xd897e
02 0164e9f8 76192edb     000209da 00000113 00000001 ws7v6!Exceptionloginitialization$qqrv+0x228b2
eax=0164e9c4 ebx=7fde0010 ecx=051c0793 edx=08532da0 esi=006fbb70 edi=00000113
eip=0051e461 esp=0164e98c ebp=0164e9b4 iopl=0         nv up ei pl nz na pe cy
cs=0023  ss=002b  ds=002b  es=002b  fs=0053  gs=002b             efl=00000207
ws7v6!SymbeditorFinalize+0x29f1:
0051e461 e802c1fcff      call    ws7v6!DlgprjuFinalize+0xf86c (004ea568)
 # ChildEBP RetAddr      Args to Child              
WARNING: Stack unwind information not available. Following frames may be wrong.
00 0164e9b4 006fbb82     0164e9e8 006fba3c 0164eaf8 ws7v6!SymbeditorFinalize+0x2a16
01 0164e9e0 00645ab6     00000113 00000001 00000000 ws7v6!Exceptionloginitialization$qqrv+0xd897e
02 0164e9f8 76192edb     000209da 00000113 00000001 ws7v6!Exceptionloginitialization$qqrv+0x228b2
eax=00000000 ebx=7fde0010 ecx=00000011 edx=00c9f7bc esi=006fbb70 edi=00000113
eip=0051e486 esp=0164e98c ebp=0164e9b4 iopl=0         nv up ei pl nz na po nc
cs=0023  ss=002b  ds=002b  es=002b  fs=0053  gs=002b             efl=00000202
ws7v6!SymbeditorFinalize+0x2a16:
0051e486 81e101000080    and     ecx,80000001h
 # ChildEBP RetAddr      Args to Child              
WARNING: Stack unwind information not available. Following frames may be wrong.
00 0164e9b4 006fbb82     0164e9e8 006fba3c 0164eaf8 ws7v6!SymbeditorFinalize+0x29f1
01 0164e9e0 00645ab6     00000113 00000001 00000000 ws7v6!Exceptionloginitialization$qqrv+0xd897e
02 0164e9f8 76192edb     000209da 00000113 00000001 ws7v6!Exceptionloginitialization$qqrv+0x228b2
eax=0164e9c4 ebx=7fde0010 ecx=051c0793 edx=08532da0 esi=006fbb70 edi=00000113
eip=0051e461 esp=0164e98c ebp=0164e9b4 iopl=0         nv up ei pl nz na pe cy
cs=0023  ss=002b  ds=002b  es=002b  fs=0053  gs=002b             efl=00000207
ws7v6!SymbeditorFinalize+0x29f1:
0051e461 e802c1fcff      call    ws7v6!DlgprjuFinalize+0xf86c (004ea568)
 # ChildEBP RetAddr      Args to Child              
WARNING: Stack unwind information not available. Following frames may be wrong.
00 0164e9b4 006fbb82     0164e9e8 006fba3c 0164eaf8 ws7v6!SymbeditorFinalize+0x2a16
01 0164e9e0 00645ab6     00000113 00000001 00000000 ws7v6!Exceptionloginitialization$qqrv+0xd897e
02 0164e9f8 76192edb     000209da 00000113 00000001 ws7v6!Exceptionloginitialization$qqrv+0x228b2
eax=00000000 ebx=7fde0010 ecx=00000012 edx=00c9f7bc esi=006fbb70 edi=00000113
eip=0051e486 esp=0164e98c ebp=0164e9b4 iopl=0         nv up ei pl nz na po nc
cs=0023  ss=002b  ds=002b  es=002b  fs=0053  gs=002b             efl=00000202
ws7v6!SymbeditorFinalize+0x2a16:
0051e486 81e101000080    and     ecx,80000001h
 # ChildEBP RetAddr      Args to Child              
WARNING: Stack unwind information not available. Following frames may be wrong.
00 0164e9b4 006fbb82     0164e9e8 006fba3c 0164eaf8 ws7v6!SymbeditorFinalize+0x29f1
01 0164e9e0 00645ab6     00000113 00000001 00000000 ws7v6!Exceptionloginitialization$qqrv+0xd897e
02 0164e9f8 76192edb     000209da 00000113 00000001 ws7v6!Exceptionloginitialization$qqrv+0x228b2
eax=0164e9c4 ebx=7fde0010 ecx=051c0793 edx=08532da0 esi=006fbb70 edi=00000113
eip=0051e461 esp=0164e98c ebp=0164e9b4 iopl=0         nv up ei pl nz na po cy
cs=0023  ss=002b  ds=002b  es=002b  fs=0053  gs=002b             efl=00000203
ws7v6!SymbeditorFinalize+0x29f1:
0051e461 e802c1fcff      call    ws7v6!DlgprjuFinalize+0xf86c (004ea568)
 # ChildEBP RetAddr      Args to Child              
WARNING: Stack unwind information not available. Following frames may be wrong.
00 0164e9b4 006fbb82     0164e9e8 006fba3c 0164eaf8 ws7v6!SymbeditorFinalize+0x2a16
01 0164e9e0 00645ab6     00000113 00000001 00000000 ws7v6!Exceptionloginitialization$qqrv+0xd897e
02 0164e9f8 76192edb     000209da 00000113 00000001 ws7v6!Exceptionloginitialization$qqrv+0x228b2
eax=00000000 ebx=7fde0010 ecx=00000013 edx=00c9f7bc esi=006fbb70 edi=00000113
eip=0051e486 esp=0164e98c ebp=0164e9b4 iopl=0         nv up ei pl nz na po nc
cs=0023  ss=002b  ds=002b  es=002b  fs=0053  gs=002b             efl=00000202
ws7v6!SymbeditorFinalize+0x2a16:
0051e486 81e101000080    and     ecx,80000001h
 # ChildEBP RetAddr      Args to Child              
WARNING: Stack unwind information not available. Following frames may be wrong.
00 0164e9b4 006fbb82     0164e9e8 006fba3c 0164eaf8 ws7v6!SymbeditorFinalize+0x29f1
01 0164e9e0 00645ab6     00000113 00000001 00000000 ws7v6!Exceptionloginitialization$qqrv+0xd897e
02 0164e9f8 76192edb     000209da 00000113 00000001 ws7v6!Exceptionloginitialization$qqrv+0x228b2
eax=0164e9c4 ebx=7fde0010 ecx=051c0793 edx=08532da0 esi=006fbb70 edi=00000113
eip=0051e461 esp=0164e98c ebp=0164e9b4 iopl=0         nv up ei pl nz na pe cy
cs=0023  ss=002b  ds=002b  es=002b  fs=0053  gs=002b             efl=00000207
ws7v6!SymbeditorFinalize+0x29f1:
0051e461 e802c1fcff      call    ws7v6!DlgprjuFinalize+0xf86c (004ea568)
 # ChildEBP RetAddr      Args to Child              
WARNING: Stack unwind information not available. Following frames may be wrong.
00 0164e9b4 006fbb82     0164e9e8 006fba3c 0164eaf8 ws7v6!SymbeditorFinalize+0x2a16
01 0164e9e0 00645ab6     00000113 00000001 00000000 ws7v6!Exceptionloginitialization$qqrv+0xd897e
02 0164e9f8 76192edb     000209da 00000113 00000001 ws7v6!Exceptionloginitialization$qqrv+0x228b2
eax=00000000 ebx=7fde0010 ecx=00000014 edx=00c9f7bc esi=006fbb70 edi=00000113
eip=0051e486 esp=0164e98c ebp=0164e9b4 iopl=0         nv up ei pl nz na po nc
cs=0023  ss=002b  ds=002b  es=002b  fs=0053  gs=002b             efl=00000202
ws7v6!SymbeditorFinalize+0x2a16:
0051e486 81e101000080    and     ecx,80000001h
 # ChildEBP RetAddr      Args to Child              
WARNING: Stack unwind information not available. Following frames may be wrong.
00 0164e9b4 006fbb82     0164e9e8 006fba3c 0164eaf8 ws7v6!SymbeditorFinalize+0x29f1
01 0164e9e0 00645ab6     00000113 00000001 00000000 ws7v6!Exceptionloginitialization$qqrv+0xd897e
02 0164e9f8 76192edb     000209da 00000113 00000001 ws7v6!Exceptionloginitialization$qqrv+0x228b2
eax=0164e9c4 ebx=7fde0010 ecx=051c0793 edx=08532da0 esi=006fbb70 edi=00000113
eip=0051e461 esp=0164e98c ebp=0164e9b4 iopl=0         nv up ei pl nz na po cy
cs=0023  ss=002b  ds=002b  es=002b  fs=0053  gs=002b             efl=00000203
ws7v6!SymbeditorFinalize+0x29f1:
0051e461 e802c1fcff      call    ws7v6!DlgprjuFinalize+0xf86c (004ea568)
 # ChildEBP RetAddr      Args to Child              
WARNING: Stack unwind information not available. Following frames may be wrong.
00 0164e9b4 006fbb82     0164e9e8 006fba3c 0164eaf8 ws7v6!SymbeditorFinalize+0x2a16
01 0164e9e0 00645ab6     00000113 00000001 00000000 ws7v6!Exceptionloginitialization$qqrv+0xd897e
02 0164e9f8 76192edb     000209da 00000113 00000001 ws7v6!Exceptionloginitialization$qqrv+0x228b2
eax=00000000 ebx=7fde0010 ecx=00000015 edx=00c9f7bc esi=006fbb70 edi=00000113
eip=0051e486 esp=0164e98c ebp=0164e9b4 iopl=0         nv up ei pl nz na po nc
cs=0023  ss=002b  ds=002b  es=002b  fs=0053  gs=002b             efl=00000202
ws7v6!SymbeditorFinalize+0x2a16:
0051e486 81e101000080    and     ecx,80000001h
 # ChildEBP RetAddr      Args to Child              
WARNING: Stack unwind information not available. Following frames may be wrong.
00 0164e9b4 006fbb82     0164e9e8 006fba3c 0164eaf8 ws7v6!SymbeditorFinalize+0x29f1
01 0164e9e0 00645ab6     00000113 00000001 00000000 ws7v6!Exceptionloginitialization$qqrv+0xd897e
02 0164e9f8 76192edb     000209da 00000113 00000001 ws7v6!Exceptionloginitialization$qqrv+0x228b2
eax=0164e9c4 ebx=7fde0010 ecx=051c0793 edx=08532da0 esi=006fbb70 edi=00000113
eip=0051e461 esp=0164e98c ebp=0164e9b4 iopl=0         nv up ei pl nz na po cy
cs=0023  ss=002b  ds=002b  es=002b  fs=0053  gs=002b             efl=00000203
ws7v6!SymbeditorFinalize+0x29f1:
0051e461 e802c1fcff      call    ws7v6!DlgprjuFinalize+0xf86c (004ea568)
 # ChildEBP RetAddr      Args to Child              
WARNING: Stack unwind information not available. Following frames may be wrong.
00 0164e9b4 006fbb82     0164e9e8 006fba3c 0164eaf8 ws7v6!SymbeditorFinalize+0x2a16
01 0164e9e0 00645ab6     00000113 00000001 00000000 ws7v6!Exceptionloginitialization$qqrv+0xd897e
02 0164e9f8 76192edb     000209da 00000113 00000001 ws7v6!Exceptionloginitialization$qqrv+0x228b2
eax=00000000 ebx=7fde0010 ecx=00000016 edx=00c9f7bc esi=006fbb70 edi=00000113
eip=0051e486 esp=0164e98c ebp=0164e9b4 iopl=0         nv up ei pl nz na po nc
cs=0023  ss=002b  ds=002b  es=002b  fs=0053  gs=002b             efl=00000202
ws7v6!SymbeditorFinalize+0x2a16:
0051e486 81e101000080    and     ecx,80000001h
 # ChildEBP RetAddr      Args to Child              
WARNING: Stack unwind information not available. Following frames may be wrong.
00 0164e9b4 006fbb82     0164e9e8 006fba3c 0164eaf8 ws7v6!SymbeditorFinalize+0x29f1
01 0164e9e0 00645ab6     00000113 00000001 00000000 ws7v6!Exceptionloginitialization$qqrv+0xd897e
02 0164e9f8 76192edb     000209da 00000113 00000001 ws7v6!Exceptionloginitialization$qqrv+0x228b2
eax=0164e9c4 ebx=7fde0010 ecx=051c0793 edx=08532da0 esi=006fbb70 edi=00000113
eip=0051e461 esp=0164e98c ebp=0164e9b4 iopl=0         nv up ei pl nz na pe cy
cs=0023  ss=002b  ds=002b  es=002b  fs=0053  gs=002b             efl=00000207
ws7v6!SymbeditorFinalize+0x29f1:
0051e461 e802c1fcff      call    ws7v6!DlgprjuFinalize+0xf86c (004ea568)
 # ChildEBP RetAddr      Args to Child              
WARNING: Stack unwind information not available. Following frames may be wrong.
00 0164e9b4 006fbb82     0164e9e8 006fba3c 0164eaf8 ws7v6!SymbeditorFinalize+0x2a16
01 0164e9e0 00645ab6     00000113 00000001 00000000 ws7v6!Exceptionloginitialization$qqrv+0xd897e
02 0164e9f8 76192edb     000209da 00000113 00000001 ws7v6!Exceptionloginitialization$qqrv+0x228b2
eax=00000000 ebx=7fde0010 ecx=00000017 edx=00c9f7bc esi=006fbb70 edi=00000113
eip=0051e486 esp=0164e98c ebp=0164e9b4 iopl=0         nv up ei pl nz na po nc
cs=0023  ss=002b  ds=002b  es=002b  fs=0053  gs=002b             efl=00000202
ws7v6!SymbeditorFinalize+0x2a16:
0051e486 81e101000080    and     ecx,80000001h
 # ChildEBP RetAddr      Args to Child              
WARNING: Stack unwind information not available. Following frames may be wrong.
00 0164e9b4 006fbb82     0164e9e8 006fba3c 0164eaf8 ws7v6!SymbeditorFinalize+0x29f1
01 0164e9e0 00645ab6     00000113 00000001 00000000 ws7v6!Exceptionloginitialization$qqrv+0xd897e
02 0164e9f8 76192edb     000209da 00000113 00000001 ws7v6!Exceptionloginitialization$qqrv+0x228b2
eax=0164e9c4 ebx=7fde0010 ecx=051c0793 edx=08532da0 esi=006fbb70 edi=00000113
eip=0051e461 esp=0164e98c ebp=0164e9b4 iopl=0         nv up ei pl nz na pe cy
cs=0023  ss=002b  ds=002b  es=002b  fs=0053  gs=002b             efl=00000207
ws7v6!SymbeditorFinalize+0x29f1:
0051e461 e802c1fcff      call    ws7v6!DlgprjuFinalize+0xf86c (004ea568)
 # ChildEBP RetAddr      Args to Child              
WARNING: Stack unwind information not available. Following frames may be wrong.
00 0164e9b4 006fbb82     0164e9e8 006fba3c 0164eaf8 ws7v6!SymbeditorFinalize+0x2a16
01 0164e9e0 00645ab6     00000113 00000001 00000000 ws7v6!Exceptionloginitialization$qqrv+0xd897e
02 0164e9f8 76192edb     000209da 00000113 00000001 ws7v6!Exceptionloginitialization$qqrv+0x228b2
eax=00000000 ebx=7fde0010 ecx=00000018 edx=00c9f7bc esi=006fbb70 edi=00000113
eip=0051e486 esp=0164e98c ebp=0164e9b4 iopl=0         nv up ei pl nz na po nc
cs=0023  ss=002b  ds=002b  es=002b  fs=0053  gs=002b             efl=00000202
ws7v6!SymbeditorFinalize+0x2a16:
0051e486 81e101000080    and     ecx,80000001h
 # ChildEBP RetAddr      Args to Child              
WARNING: Stack unwind information not available. Following frames may be wrong.
00 0164e9b4 006fbb82     0164e9e8 006fba3c 0164eaf8 ws7v6!SymbeditorFinalize+0x29f1
01 0164e9e0 00645ab6     00000113 00000001 00000000 ws7v6!Exceptionloginitialization$qqrv+0xd897e
02 0164e9f8 76192edb     000209da 00000113 00000001 ws7v6!Exceptionloginitialization$qqrv+0x228b2
eax=0164e9c4 ebx=7fde0010 ecx=051c0793 edx=08532da0 esi=006fbb70 edi=00000113
eip=0051e461 esp=0164e98c ebp=0164e9b4 iopl=0         nv up ei pl nz na po cy
cs=0023  ss=002b  ds=002b  es=002b  fs=0053  gs=002b             efl=00000203
ws7v6!SymbeditorFinalize+0x29f1:
0051e461 e802c1fcff      call    ws7v6!DlgprjuFinalize+0xf86c (004ea568)
 # ChildEBP RetAddr      Args to Child              
WARNING: Stack unwind information not available. Following frames may be wrong.
00 0164e9b4 006fbb82     0164e9e8 006fba3c 0164eaf8 ws7v6!SymbeditorFinalize+0x2a16
01 0164e9e0 00645ab6     00000113 00000001 00000000 ws7v6!Exceptionloginitialization$qqrv+0xd897e
02 0164e9f8 76192edb     000209da 00000113 00000001 ws7v6!Exceptionloginitialization$qqrv+0x228b2
eax=00000000 ebx=7fde0010 ecx=00000019 edx=00c9f7bc esi=006fbb70 edi=00000113
eip=0051e486 esp=0164e98c ebp=0164e9b4 iopl=0         nv up ei pl nz na po nc
cs=0023  ss=002b  ds=002b  es=002b  fs=0053  gs=002b             efl=00000202
ws7v6!SymbeditorFinalize+0x2a16:
0051e486 81e101000080    and     ecx,80000001h
 # ChildEBP RetAddr      Args to Child              
WARNING: Stack unwind information not available. Following frames may be wrong.
00 0164e9b4 006fbb82     0164e9e8 006fba3c 0164eaf8 ws7v6!SymbeditorFinalize+0x29f1
01 0164e9e0 00645ab6     00000113 00000001 00000000 ws7v6!Exceptionloginitialization$qqrv+0xd897e
02 0164e9f8 76192edb     000209da 00000113 00000001 ws7v6!Exceptionloginitialization$qqrv+0x228b2
eax=0164e9c4 ebx=7fde0010 ecx=051c0793 edx=08532da0 esi=006fbb70 edi=00000113
eip=0051e461 esp=0164e98c ebp=0164e9b4 iopl=0         nv up ei pl nz na po cy
cs=0023  ss=002b  ds=002b  es=002b  fs=0053  gs=002b             efl=00000203
ws7v6!SymbeditorFinalize+0x29f1:
0051e461 e802c1fcff      call    ws7v6!DlgprjuFinalize+0xf86c (004ea568)
 # ChildEBP RetAddr      Args to Child              
WARNING: Stack unwind information not available. Following frames may be wrong.
00 0164e9b4 006fbb82     0164e9e8 006fba3c 0164eaf8 ws7v6!SymbeditorFinalize+0x2a16
01 0164e9e0 00645ab6     00000113 00000001 00000000 ws7v6!Exceptionloginitialization$qqrv+0xd897e
02 0164e9f8 76192edb     000209da 00000113 00000001 ws7v6!Exceptionloginitialization$qqrv+0x228b2
eax=00000000 ebx=7fde0010 ecx=0000001a edx=00c9f7bc esi=006fbb70 edi=00000113
eip=0051e486 esp=0164e98c ebp=0164e9b4 iopl=0         nv up ei pl nz na po nc
cs=0023  ss=002b  ds=002b  es=002b  fs=0053  gs=002b             efl=00000202
ws7v6!SymbeditorFinalize+0x2a16:
0051e486 81e101000080    and     ecx,80000001h
 # ChildEBP RetAddr      Args to Child              
WARNING: Stack unwind information not available. Following frames may be wrong.
00 0164e9b4 006fbb82     0164e9e8 006fba3c 0164eaf8 ws7v6!SymbeditorFinalize+0x29f1
01 0164e9e0 00645ab6     00000113 00000001 00000000 ws7v6!Exceptionloginitialization$qqrv+0xd897e
02 0164e9f8 76192edb     000209da 00000113 00000001 ws7v6!Exceptionloginitialization$qqrv+0x228b2
eax=0164e9c4 ebx=7fde0010 ecx=051c0793 edx=08532da0 esi=006fbb70 edi=00000113
eip=0051e461 esp=0164e98c ebp=0164e9b4 iopl=0         nv up ei pl nz na pe cy
cs=0023  ss=002b  ds=002b  es=002b  fs=0053  gs=002b             efl=00000207
ws7v6!SymbeditorFinalize+0x29f1:
0051e461 e802c1fcff      call    ws7v6!DlgprjuFinalize+0xf86c (004ea568)
 # ChildEBP RetAddr      Args to Child              
WARNING: Stack unwind information not available. Following frames may be wrong.
00 0164e9b4 006fbb82     0164e9e8 006fba3c 0164eaf8 ws7v6!SymbeditorFinalize+0x2a16
01 0164e9e0 00645ab6     00000113 00000001 00000000 ws7v6!Exceptionloginitialization$qqrv+0xd897e
02 0164e9f8 76192edb     000209da 00000113 00000001 ws7v6!Exceptionloginitialization$qqrv+0x228b2
eax=00000000 ebx=7fde0010 ecx=0000001b edx=00c9f7bc esi=006fbb70 edi=00000113
eip=0051e486 esp=0164e98c ebp=0164e9b4 iopl=0         nv up ei pl nz na po nc
cs=0023  ss=002b  ds=002b  es=002b  fs=0053  gs=002b             efl=00000202
ws7v6!SymbeditorFinalize+0x2a16:
0051e486 81e101000080    and     ecx,80000001h
 # ChildEBP RetAddr      Args to Child              
WARNING: Stack unwind information not available. Following frames may be wrong.
00 0164e9b4 006fbb82     0164e9e8 006fba3c 0164eaf8 ws7v6!SymbeditorFinalize+0x29f1
01 0164e9e0 00645ab6     00000113 00000001 00000000 ws7v6!Exceptionloginitialization$qqrv+0xd897e
02 0164e9f8 76192edb     000209da 00000113 00000001 ws7v6!Exceptionloginitialization$qqrv+0x228b2
eax=0164e9c4 ebx=7fde0010 ecx=051c0793 edx=08532da0 esi=006fbb70 edi=00000113
eip=0051e461 esp=0164e98c ebp=0164e9b4 iopl=0         nv up ei pl nz na po cy
cs=0023  ss=002b  ds=002b  es=002b  fs=0053  gs=002b             efl=00000203
ws7v6!SymbeditorFinalize+0x29f1:
0051e461 e802c1fcff      call    ws7v6!DlgprjuFinalize+0xf86c (004ea568)
 # ChildEBP RetAddr      Args to Child              
WARNING: Stack unwind information not available. Following frames may be wrong.
00 0164e9b4 006fbb82     0164e9e8 006fba3c 0164eaf8 ws7v6!SymbeditorFinalize+0x2a16
01 0164e9e0 00645ab6     00000113 00000001 00000000 ws7v6!Exceptionloginitialization$qqrv+0xd897e
02 0164e9f8 76192edb     000209da 00000113 00000001 ws7v6!Exceptionloginitialization$qqrv+0x228b2
eax=00000000 ebx=7fde0010 ecx=0000001c edx=00c9f7bc esi=006fbb70 edi=00000113
eip=0051e486 esp=0164e98c ebp=0164e9b4 iopl=0         nv up ei pl nz na po nc
cs=0023  ss=002b  ds=002b  es=002b  fs=0053  gs=002b             efl=00000202
ws7v6!SymbeditorFinalize+0x2a16:
0051e486 81e101000080    and     ecx,80000001h
 # ChildEBP RetAddr      Args to Child              
WARNING: Stack unwind information not available. Following frames may be wrong.
00 0164e9b4 006fbb82     0164e9e8 006fba3c 0164eaf8 ws7v6!SymbeditorFinalize+0x29f1
01 0164e9e0 00645ab6     00000113 00000001 00000000 ws7v6!Exceptionloginitialization$qqrv+0xd897e
02 0164e9f8 76192edb     000209da 00000113 00000001 ws7v6!Exceptionloginitialization$qqrv+0x228b2
eax=0164e9c4 ebx=7fde0010 ecx=051c0793 edx=08532da0 esi=006fbb70 edi=00000113
eip=0051e461 esp=0164e98c ebp=0164e9b4 iopl=0         nv up ei pl nz na pe cy
cs=0023  ss=002b  ds=002b  es=002b  fs=0053  gs=002b             efl=00000207
ws7v6!SymbeditorFinalize+0x29f1:
0051e461 e802c1fcff      call    ws7v6!DlgprjuFinalize+0xf86c (004ea568)
 # ChildEBP RetAddr      Args to Child              
WARNING: Stack unwind information not available. Following frames may be wrong.
00 0164e9b4 006fbb82     0164e9e8 006fba3c 0164eaf8 ws7v6!SymbeditorFinalize+0x2a16
01 0164e9e0 00645ab6     00000113 00000001 00000000 ws7v6!Exceptionloginitialization$qqrv+0xd897e
02 0164e9f8 76192edb     000209da 00000113 00000001 ws7v6!Exceptionloginitialization$qqrv+0x228b2
eax=00000000 ebx=7fde0010 ecx=0000001d edx=00c9f7bc esi=006fbb70 edi=00000113
eip=0051e486 esp=0164e98c ebp=0164e9b4 iopl=0         nv up ei pl nz na po nc
cs=0023  ss=002b  ds=002b  es=002b  fs=0053  gs=002b             efl=00000202
ws7v6!SymbeditorFinalize+0x2a16:
0051e486 81e101000080    and     ecx,80000001h
 # ChildEBP RetAddr      Args to Child              
WARNING: Stack unwind information not available. Following frames may be wrong.
00 0164e9b4 006fbb82     0164e9e8 006fba3c 0164eaf8 ws7v6!SymbeditorFinalize+0x29f1
01 0164e9e0 00645ab6     00000113 00000001 00000000 ws7v6!Exceptionloginitialization$qqrv+0xd897e
02 0164e9f8 76192edb     000209da 00000113 00000001 ws7v6!Exceptionloginitialization$qqrv+0x228b2
eax=0164e9c4 ebx=7fde0010 ecx=051c0793 edx=08532da0 esi=006fbb70 edi=00000113
eip=0051e461 esp=0164e98c ebp=0164e9b4 iopl=0         nv up ei pl nz na pe cy
cs=0023  ss=002b  ds=002b  es=002b  fs=0053  gs=002b             efl=00000207
ws7v6!SymbeditorFinalize+0x29f1:
0051e461 e802c1fcff      call    ws7v6!DlgprjuFinalize+0xf86c (004ea568)
 # ChildEBP RetAddr      Args to Child              
WARNING: Stack unwind information not available. Following frames may be wrong.
00 0164e9b4 006fbb82     0164e9e8 006fba3c 0164eaf8 ws7v6!SymbeditorFinalize+0x2a16
01 0164e9e0 00645ab6     00000113 00000001 00000000 ws7v6!Exceptionloginitialization$qqrv+0xd897e
02 0164e9f8 76192edb     000209da 00000113 00000001 ws7v6!Exceptionloginitialization$qqrv+0x228b2
eax=00000000 ebx=7fde0010 ecx=0000001e edx=00c9f7bc esi=006fbb70 edi=00000113
eip=0051e486 esp=0164e98c ebp=0164e9b4 iopl=0         nv up ei pl nz na po nc
cs=0023  ss=002b  ds=002b  es=002b  fs=0053  gs=002b             efl=00000202
ws7v6!SymbeditorFinalize+0x2a16:
0051e486 81e101000080    and     ecx,80000001h
 # ChildEBP RetAddr      Args to Child              
WARNING: Stack unwind information not available. Following frames may be wrong.
00 0164e9b4 006fbb82     0164e9e8 006fba3c 0164eaf8 ws7v6!SymbeditorFinalize+0x29f1
01 0164e9e0 00645ab6     00000113 00000001 00000000 ws7v6!Exceptionloginitialization$qqrv+0xd897e
02 0164e9f8 76192edb     000209da 00000113 00000001 ws7v6!Exceptionloginitialization$qqrv+0x228b2
eax=0164e9c4 ebx=7fde0010 ecx=051c0793 edx=08532da0 esi=006fbb70 edi=00000113
eip=0051e461 esp=0164e98c ebp=0164e9b4 iopl=0         nv up ei pl nz na po cy
cs=0023  ss=002b  ds=002b  es=002b  fs=0053  gs=002b             efl=00000203
ws7v6!SymbeditorFinalize+0x29f1:
0051e461 e802c1fcff      call    ws7v6!DlgprjuFinalize+0xf86c (004ea568)
 # ChildEBP RetAddr      Args to Child              
WARNING: Stack unwind information not available. Following frames may be wrong.
00 0164e9b4 006fbb82     0164e9e8 006fba3c 0164eaf8 ws7v6!SymbeditorFinalize+0x2a16
01 0164e9e0 00645ab6     00000113 00000001 00000000 ws7v6!Exceptionloginitialization$qqrv+0xd897e
02 0164e9f8 76192edb     000209da 00000113 00000001 ws7v6!Exceptionloginitialization$qqrv+0x228b2
eax=00000000 ebx=7fde0010 ecx=0000001f edx=00c9f7bc esi=006fbb70 edi=00000113
eip=0051e486 esp=0164e98c ebp=0164e9b4 iopl=0         nv up ei pl nz na po nc
cs=0023  ss=002b  ds=002b  es=002b  fs=0053  gs=002b             efl=00000202
ws7v6!SymbeditorFinalize+0x2a16:
0051e486 81e101000080    and     ecx,80000001h
 # ChildEBP RetAddr      Args to Child              
WARNING: Stack unwind information not available. Following frames may be wrong.
00 0164e9b4 006fbb82     0164e9e8 006fba3c 0164eaf8 ws7v6!SymbeditorFinalize+0x29f1
01 0164e9e0 00645ab6     00000113 00000001 00000000 ws7v6!Exceptionloginitialization$qqrv+0xd897e
02 0164e9f8 76192edb     000209da 00000113 00000001 ws7v6!Exceptionloginitialization$qqrv+0x228b2
eax=0164e9c4 ebx=7fde0010 ecx=051c0793 edx=08532da0 esi=006fbb70 edi=00000113
eip=0051e461 esp=0164e98c ebp=0164e9b4 iopl=0         nv up ei pl nz ac po cy
cs=0023  ss=002b  ds=002b  es=002b  fs=0053  gs=002b             efl=00000213
ws7v6!SymbeditorFinalize+0x29f1:
0051e461 e802c1fcff      call    ws7v6!DlgprjuFinalize+0xf86c (004ea568)
 # ChildEBP RetAddr      Args to Child              
WARNING: Stack unwind information not available. Following frames may be wrong.
00 0164e9b4 006fbb82     0164e9e8 006fba3c 0164eaf8 ws7v6!SymbeditorFinalize+0x2a16
01 0164e9e0 00645ab6     00000113 00000001 00000000 ws7v6!Exceptionloginitialization$qqrv+0xd897e
02 0164e9f8 76192edb     000209da 00000113 00000001 ws7v6!Exceptionloginitialization$qqrv+0x228b2
eax=00000000 ebx=7fde0010 ecx=00000020 edx=00c9f7bc esi=006fbb70 edi=00000113
eip=0051e486 esp=0164e98c ebp=0164e9b4 iopl=0         nv up ei pl nz na po nc
cs=0023  ss=002b  ds=002b  es=002b  fs=0053  gs=002b             efl=00000202
ws7v6!SymbeditorFinalize+0x2a16:
0051e486 81e101000080    and     ecx,80000001h
 # ChildEBP RetAddr      Args to Child              
WARNING: Stack unwind information not available. Following frames may be wrong.
00 0164e9b4 006fbb82     0164e9e8 006fba3c 0164eaf8 ws7v6!SymbeditorFinalize+0x29f1
01 0164e9e0 00645ab6     00000113 00000001 00000000 ws7v6!Exceptionloginitialization$qqrv+0xd897e
02 0164e9f8 76192edb     000209da 00000113 00000001 ws7v6!Exceptionloginitialization$qqrv+0x228b2
eax=0164e9c4 ebx=7fde0010 ecx=051c0793 edx=08532da0 esi=006fbb70 edi=00000113
eip=0051e461 esp=0164e98c ebp=0164e9b4 iopl=0         nv up ei pl nz na pe cy
cs=0023  ss=002b  ds=002b  es=002b  fs=0053  gs=002b             efl=00000207
ws7v6!SymbeditorFinalize+0x29f1:
0051e461 e802c1fcff      call    ws7v6!DlgprjuFinalize+0xf86c (004ea568)
 # ChildEBP RetAddr      Args to Child              
WARNING: Stack unwind information not available. Following frames may be wrong.
00 0164e9b4 006fbb82     0164e9e8 006fba3c 0164eaf8 ws7v6!SymbeditorFinalize+0x2a16
01 0164e9e0 00645ab6     00000113 00000001 00000000 ws7v6!Exceptionloginitialization$qqrv+0xd897e
02 0164e9f8 76192edb     000209da 00000113 00000001 ws7v6!Exceptionloginitialization$qqrv+0x228b2
eax=00000000 ebx=7fde0010 ecx=00000021 edx=00c9f7bc esi=006fbb70 edi=00000113
eip=0051e486 esp=0164e98c ebp=0164e9b4 iopl=0         nv up ei pl nz na po nc
cs=0023  ss=002b  ds=002b  es=002b  fs=0053  gs=002b             efl=00000202
ws7v6!SymbeditorFinalize+0x2a16:
0051e486 81e101000080    and     ecx,80000001h
 # ChildEBP RetAddr      Args to Child              
WARNING: Stack unwind information not available. Following frames may be wrong.
00 0164e9b4 006fbb82     0164e9e8 006fba3c 0164eaf8 ws7v6!SymbeditorFinalize+0x29f1
01 0164e9e0 00645ab6     00000113 00000001 00000000 ws7v6!Exceptionloginitialization$qqrv+0xd897e
02 0164e9f8 76192edb     000209da 00000113 00000001 ws7v6!Exceptionloginitialization$qqrv+0x228b2
eax=0164e9c4 ebx=7fde0010 ecx=051c0793 edx=08532da0 esi=006fbb70 edi=00000113
eip=0051e461 esp=0164e98c ebp=0164e9b4 iopl=0         nv up ei pl nz na pe cy
cs=0023  ss=002b  ds=002b  es=002b  fs=0053  gs=002b             efl=00000207
ws7v6!SymbeditorFinalize+0x29f1:
0051e461 e802c1fcff      call    ws7v6!DlgprjuFinalize+0xf86c (004ea568)
 # ChildEBP RetAddr      Args to Child              
WARNING: Stack unwind information not available. Following frames may be wrong.
00 0164e9b4 006fbb82     0164e9e8 006fba3c 0164eaf8 ws7v6!SymbeditorFinalize+0x2a16
01 0164e9e0 00645ab6     00000113 00000001 00000000 ws7v6!Exceptionloginitialization$qqrv+0xd897e
02 0164e9f8 76192edb     000209da 00000113 00000001 ws7v6!Exceptionloginitialization$qqrv+0x228b2
eax=00000000 ebx=7fde0010 ecx=00000022 edx=00c9f7bc esi=006fbb70 edi=00000113
eip=0051e486 esp=0164e98c ebp=0164e9b4 iopl=0         nv up ei pl nz na po nc
cs=0023  ss=002b  ds=002b  es=002b  fs=0053  gs=002b             efl=00000202
ws7v6!SymbeditorFinalize+0x2a16:
0051e486 81e101000080    and     ecx,80000001h
 # ChildEBP RetAddr      Args to Child              
WARNING: Stack unwind information not available. Following frames may be wrong.
00 0164e9b4 006fbb82     0164e9e8 006fba3c 0164eaf8 ws7v6!SymbeditorFinalize+0x29f1
01 0164e9e0 00645ab6     00000113 00000001 00000000 ws7v6!Exceptionloginitialization$qqrv+0xd897e
02 0164e9f8 76192edb     000209da 00000113 00000001 ws7v6!Exceptionloginitialization$qqrv+0x228b2
eax=0164e9c4 ebx=7fde0010 ecx=051c0793 edx=08532da0 esi=006fbb70 edi=00000113
eip=0051e461 esp=0164e98c ebp=0164e9b4 iopl=0         nv up ei pl nz na po cy
cs=0023  ss=002b  ds=002b  es=002b  fs=0053  gs=002b             efl=00000203
ws7v6!SymbeditorFinalize+0x29f1:
0051e461 e802c1fcff      call    ws7v6!DlgprjuFinalize+0xf86c (004ea568)
 # ChildEBP RetAddr      Args to Child              
WARNING: Stack unwind information not available. Following frames may be wrong.
00 0164e9b4 006fbb82     0164e9e8 006fba3c 0164eaf8 ws7v6!SymbeditorFinalize+0x2a16
01 0164e9e0 00645ab6     00000113 00000001 00000000 ws7v6!Exceptionloginitialization$qqrv+0xd897e
02 0164e9f8 76192edb     000209da 00000113 00000001 ws7v6!Exceptionloginitialization$qqrv+0x228b2
eax=00000000 ebx=7fde0010 ecx=00000023 edx=00c9f7bc esi=006fbb70 edi=00000113
eip=0051e486 esp=0164e98c ebp=0164e9b4 iopl=0         nv up ei pl nz na po nc
cs=0023  ss=002b  ds=002b  es=002b  fs=0053  gs=002b             efl=00000202
ws7v6!SymbeditorFinalize+0x2a16:
0051e486 81e101000080    and     ecx,80000001h
 # ChildEBP RetAddr      Args to Child              
WARNING: Stack unwind information not available. Following frames may be wrong.
00 0164e9b4 006fbb82     0164e9e8 006fba3c 0164eaf8 ws7v6!SymbeditorFinalize+0x29f1
01 0164e9e0 00645ab6     00000113 00000001 00000000 ws7v6!Exceptionloginitialization$qqrv+0xd897e
02 0164e9f8 76192edb     000209da 00000113 00000001 ws7v6!Exceptionloginitialization$qqrv+0x228b2
eax=0164e9c4 ebx=7fde0010 ecx=051c0793 edx=08532da0 esi=006fbb70 edi=00000113
eip=0051e461 esp=0164e98c ebp=0164e9b4 iopl=0         nv up ei pl nz na pe cy
cs=0023  ss=002b  ds=002b  es=002b  fs=0053  gs=002b             efl=00000207
ws7v6!SymbeditorFinalize+0x29f1:
0051e461 e802c1fcff      call    ws7v6!DlgprjuFinalize+0xf86c (004ea568)
 # ChildEBP RetAddr      Args to Child              
WARNING: Stack unwind information not available. Following frames may be wrong.
00 0164e9b4 006fbb82     0164e9e8 006fba3c 0164eaf8 ws7v6!SymbeditorFinalize+0x2a16
01 0164e9e0 00645ab6     00000113 00000001 00000000 ws7v6!Exceptionloginitialization$qqrv+0xd897e
02 0164e9f8 76192edb     000209da 00000113 00000001 ws7v6!Exceptionloginitialization$qqrv+0x228b2
eax=00000000 ebx=7fde0010 ecx=00000024 edx=00c9f7bc esi=006fbb70 edi=00000113
eip=0051e486 esp=0164e98c ebp=0164e9b4 iopl=0         nv up ei pl nz na po nc
cs=0023  ss=002b  ds=002b  es=002b  fs=0053  gs=002b             efl=00000202
ws7v6!SymbeditorFinalize+0x2a16:
0051e486 81e101000080    and     ecx,80000001h
 # ChildEBP RetAddr      Args to Child              
WARNING: Stack unwind information not available. Following frames may be wrong.
00 0164e9b4 006fbb82     0164e9e8 006fba3c 0164eaf8 ws7v6!SymbeditorFinalize+0x29f1
01 0164e9e0 00645ab6     00000113 00000001 00000000 ws7v6!Exceptionloginitialization$qqrv+0xd897e
02 0164e9f8 76192edb     000209da 00000113 00000001 ws7v6!Exceptionloginitialization$qqrv+0x228b2
eax=0164e9c4 ebx=7fde0010 ecx=051c0793 edx=08532da0 esi=006fbb70 edi=00000113
eip=0051e461 esp=0164e98c ebp=0164e9b4 iopl=0         nv up ei pl nz na po cy
cs=0023  ss=002b  ds=002b  es=002b  fs=0053  gs=002b             efl=00000203
ws7v6!SymbeditorFinalize+0x29f1:
0051e461 e802c1fcff      call    ws7v6!DlgprjuFinalize+0xf86c (004ea568)
 # ChildEBP RetAddr      Args to Child              
WARNING: Stack unwind information not available. Following frames may be wrong.
00 0164e9b4 006fbb82     0164e9e8 006fba3c 0164eaf8 ws7v6!SymbeditorFinalize+0x2a16
01 0164e9e0 00645ab6     00000113 00000001 00000000 ws7v6!Exceptionloginitialization$qqrv+0xd897e
02 0164e9f8 76192edb     000209da 00000113 00000001 ws7v6!Exceptionloginitialization$qqrv+0x228b2
eax=00000000 ebx=7fde0010 ecx=00000025 edx=00c9f7bc esi=006fbb70 edi=00000113
eip=0051e486 esp=0164e98c ebp=0164e9b4 iopl=0         nv up ei pl nz na po nc
cs=0023  ss=002b  ds=002b  es=002b  fs=0053  gs=002b             efl=00000202
ws7v6!SymbeditorFinalize+0x2a16:
0051e486 81e101000080    and     ecx,80000001h
 # ChildEBP RetAddr      Args to Child              
WARNING: Stack unwind information not available. Following frames may be wrong.
00 0164e9b4 006fbb82     0164e9e8 006fba3c 0164eaf8 ws7v6!SymbeditorFinalize+0x29f1
01 0164e9e0 00645ab6     00000113 00000001 00000000 ws7v6!Exceptionloginitialization$qqrv+0xd897e
02 0164e9f8 76192edb     000209da 00000113 00000001 ws7v6!Exceptionloginitialization$qqrv+0x228b2
eax=0164e9c4 ebx=7fde0010 ecx=051c0793 edx=08532da0 esi=006fbb70 edi=00000113
eip=0051e461 esp=0164e98c ebp=0164e9b4 iopl=0         nv up ei pl nz na po cy
cs=0023  ss=002b  ds=002b  es=002b  fs=0053  gs=002b             efl=00000203
ws7v6!SymbeditorFinalize+0x29f1:
0051e461 e802c1fcff      call    ws7v6!DlgprjuFinalize+0xf86c (004ea568)
 # ChildEBP RetAddr      Args to Child              
WARNING: Stack unwind information not available. Following frames may be wrong.
00 0164e9b4 006fbb82     0164e9e8 006fba3c 0164eaf8 ws7v6!SymbeditorFinalize+0x2a16
01 0164e9e0 00645ab6     00000113 00000001 00000000 ws7v6!Exceptionloginitialization$qqrv+0xd897e
02 0164e9f8 76192edb     000209da 00000113 00000001 ws7v6!Exceptionloginitialization$qqrv+0x228b2
eax=00000000 ebx=7fde0010 ecx=00000026 edx=00c9f7bc esi=006fbb70 edi=00000113
eip=0051e486 esp=0164e98c ebp=0164e9b4 iopl=0         nv up ei pl nz na po nc
cs=0023  ss=002b  ds=002b  es=002b  fs=0053  gs=002b             efl=00000202
ws7v6!SymbeditorFinalize+0x2a16:
0051e486 81e101000080    and     ecx,80000001h
 # ChildEBP RetAddr      Args to Child              
WARNING: Stack unwind information not available. Following frames may be wrong.
00 0164e9b4 006fbb82     0164e9e8 006fba3c 0164eaf8 ws7v6!SymbeditorFinalize+0x29f1
01 0164e9e0 00645ab6     00000113 00000001 00000000 ws7v6!Exceptionloginitialization$qqrv+0xd897e
02 0164e9f8 76192edb     000209da 00000113 00000001 ws7v6!Exceptionloginitialization$qqrv+0x228b2
eax=0164e9c4 ebx=7fde0010 ecx=051c0793 edx=08532da0 esi=006fbb70 edi=00000113
eip=0051e461 esp=0164e98c ebp=0164e9b4 iopl=0         nv up ei pl nz na pe cy
cs=0023  ss=002b  ds=002b  es=002b  fs=0053  gs=002b             efl=00000207
ws7v6!SymbeditorFinalize+0x29f1:
0051e461 e802c1fcff      call    ws7v6!DlgprjuFinalize+0xf86c (004ea568)
 # ChildEBP RetAddr      Args to Child              
WARNING: Stack unwind information not available. Following frames may be wrong.
00 0164e9b4 006fbb82     0164e9e8 006fba3c 0164eaf8 ws7v6!SymbeditorFinalize+0x2a16
01 0164e9e0 00645ab6     00000113 00000001 00000000 ws7v6!Exceptionloginitialization$qqrv+0xd897e
02 0164e9f8 76192edb     000209da 00000113 00000001 ws7v6!Exceptionloginitialization$qqrv+0x228b2
eax=00000000 ebx=7fde0010 ecx=00000027 edx=00c9f7bc esi=006fbb70 edi=00000113
eip=0051e486 esp=0164e98c ebp=0164e9b4 iopl=0         nv up ei pl nz na po nc
cs=0023  ss=002b  ds=002b  es=002b  fs=0053  gs=002b             efl=00000202
ws7v6!SymbeditorFinalize+0x2a16:
0051e486 81e101000080    and     ecx,80000001h
 # ChildEBP RetAddr      Args to Child              
WARNING: Stack unwind information not available. Following frames may be wrong.
00 0164e9b4 006fbb82     0164e9e8 006fba3c 0164eaf8 ws7v6!SymbeditorFinalize+0x29f1
01 0164e9e0 00645ab6     00000113 00000001 00000000 ws7v6!Exceptionloginitialization$qqrv+0xd897e
02 0164e9f8 76192edb     000209da 00000113 00000001 ws7v6!Exceptionloginitialization$qqrv+0x228b2
eax=0164e9c4 ebx=7fde0010 ecx=051c0793 edx=08532da0 esi=006fbb70 edi=00000113
eip=0051e461 esp=0164e98c ebp=0164e9b4 iopl=0         nv up ei pl nz na pe cy
cs=0023  ss=002b  ds=002b  es=002b  fs=0053  gs=002b             efl=00000207
ws7v6!SymbeditorFinalize+0x29f1:
0051e461 e802c1fcff      call    ws7v6!DlgprjuFinalize+0xf86c (004ea568)
 # ChildEBP RetAddr      Args to Child              
WARNING: Stack unwind information not available. Following frames may be wrong.
00 0164e9b4 006fbb82     0164e9e8 006fba3c 0164eaf8 ws7v6!SymbeditorFinalize+0x2a16
01 0164e9e0 00645ab6     00000113 00000001 00000000 ws7v6!Exceptionloginitialization$qqrv+0xd897e
02 0164e9f8 76192edb     000209da 00000113 00000001 ws7v6!Exceptionloginitialization$qqrv+0x228b2
eax=00000000 ebx=7fde0010 ecx=00000028 edx=00c9f7bc esi=006fbb70 edi=00000113
eip=0051e486 esp=0164e98c ebp=0164e9b4 iopl=0         nv up ei pl nz na po nc
cs=0023  ss=002b  ds=002b  es=002b  fs=0053  gs=002b             efl=00000202
ws7v6!SymbeditorFinalize+0x2a16:
0051e486 81e101000080    and     ecx,80000001h
 # ChildEBP RetAddr      Args to Child              
WARNING: Stack unwind information not available. Following frames may be wrong.
00 0164e9b4 006fbb82     0164e9e8 006fba3c 0164eaf8 ws7v6!SymbeditorFinalize+0x29f1
01 0164e9e0 00645ab6     00000113 00000001 00000000 ws7v6!Exceptionloginitialization$qqrv+0xd897e
02 0164e9f8 76192edb     000209da 00000113 00000001 ws7v6!Exceptionloginitialization$qqrv+0x228b2
eax=0164e9c4 ebx=7fde0010 ecx=051c0793 edx=08532da0 esi=006fbb70 edi=00000113
eip=0051e461 esp=0164e98c ebp=0164e9b4 iopl=0         nv up ei pl nz na po cy
cs=0023  ss=002b  ds=002b  es=002b  fs=0053  gs=002b             efl=00000203
ws7v6!SymbeditorFinalize+0x29f1:
0051e461 e802c1fcff      call    ws7v6!DlgprjuFinalize+0xf86c (004ea568)
 # ChildEBP RetAddr      Args to Child              
WARNING: Stack unwind information not available. Following frames may be wrong.
00 0164e9b4 006fbb82     0164e9e8 006fba3c 0164eaf8 ws7v6!SymbeditorFinalize+0x2a16
01 0164e9e0 00645ab6     00000113 00000001 00000000 ws7v6!Exceptionloginitialization$qqrv+0xd897e
02 0164e9f8 76192edb     000209da 00000113 00000001 ws7v6!Exceptionloginitialization$qqrv+0x228b2
eax=00000000 ebx=7fde0010 ecx=00000029 edx=00c9f7bc esi=006fbb70 edi=00000113
eip=0051e486 esp=0164e98c ebp=0164e9b4 iopl=0         nv up ei pl nz na po nc
cs=0023  ss=002b  ds=002b  es=002b  fs=0053  gs=002b             efl=00000202
ws7v6!SymbeditorFinalize+0x2a16:
0051e486 81e101000080    and     ecx,80000001h
 # ChildEBP RetAddr      Args to Child              
WARNING: Stack unwind information not available. Following frames may be wrong.
00 0164e9b4 006fbb82     0164e9e8 006fba3c 0164eaf8 ws7v6!SymbeditorFinalize+0x29f1
01 0164e9e0 00645ab6     00000113 00000001 00000000 ws7v6!Exceptionloginitialization$qqrv+0xd897e
02 0164e9f8 76192edb     000209da 00000113 00000001 ws7v6!Exceptionloginitialization$qqrv+0x228b2
eax=0164e9c4 ebx=7fde0010 ecx=051c0793 edx=08532da0 esi=006fbb70 edi=00000113
eip=0051e461 esp=0164e98c ebp=0164e9b4 iopl=0         nv up ei pl nz na po cy
cs=0023  ss=002b  ds=002b  es=002b  fs=0053  gs=002b             efl=00000203
ws7v6!SymbeditorFinalize+0x29f1:
0051e461 e802c1fcff      call    ws7v6!DlgprjuFinalize+0xf86c (004ea568)
 # ChildEBP RetAddr      Args to Child              
WARNING: Stack unwind information not available. Following frames may be wrong.
00 0164e9b4 006fbb82     0164e9e8 006fba3c 0164eaf8 ws7v6!SymbeditorFinalize+0x2a16
01 0164e9e0 00645ab6     00000113 00000001 00000000 ws7v6!Exceptionloginitialization$qqrv+0xd897e
02 0164e9f8 76192edb     000209da 00000113 00000001 ws7v6!Exceptionloginitialization$qqrv+0x228b2
eax=00000000 ebx=7fde0010 ecx=0000002a edx=00c9f7bc esi=006fbb70 edi=00000113
eip=0051e486 esp=0164e98c ebp=0164e9b4 iopl=0         nv up ei pl nz na po nc
cs=0023  ss=002b  ds=002b  es=002b  fs=0053  gs=002b             efl=00000202
ws7v6!SymbeditorFinalize+0x2a16:
0051e486 81e101000080    and     ecx,80000001h
 # ChildEBP RetAddr      Args to Child              
WARNING: Stack unwind information not available. Following frames may be wrong.
00 0164e9b4 006fbb82     0164e9e8 006fba3c 0164eaf8 ws7v6!SymbeditorFinalize+0x29f1
01 0164e9e0 00645ab6     00000113 00000001 00000000 ws7v6!Exceptionloginitialization$qqrv+0xd897e
02 0164e9f8 76192edb     000209da 00000113 00000001 ws7v6!Exceptionloginitialization$qqrv+0x228b2
eax=0164e9c4 ebx=7fde0010 ecx=051c0793 edx=08532da0 esi=006fbb70 edi=00000113
eip=0051e461 esp=0164e98c ebp=0164e9b4 iopl=0         nv up ei pl nz na pe cy
cs=0023  ss=002b  ds=002b  es=002b  fs=0053  gs=002b             efl=00000207
ws7v6!SymbeditorFinalize+0x29f1:
0051e461 e802c1fcff      call    ws7v6!DlgprjuFinalize+0xf86c (004ea568)
 # ChildEBP RetAddr      Args to Child              
WARNING: Stack unwind information not available. Following frames may be wrong.
00 0164e9b4 006fbb82     0164e9e8 006fba3c 0164eaf8 ws7v6!SymbeditorFinalize+0x2a16
01 0164e9e0 00645ab6     00000113 00000001 00000000 ws7v6!Exceptionloginitialization$qqrv+0xd897e
02 0164e9f8 76192edb     000209da 00000113 00000001 ws7v6!Exceptionloginitialization$qqrv+0x228b2
eax=00000000 ebx=7fde0010 ecx=0000002b edx=00c9f7bc esi=006fbb70 edi=00000113
eip=0051e486 esp=0164e98c ebp=0164e9b4 iopl=0         nv up ei pl nz na po nc
cs=0023  ss=002b  ds=002b  es=002b  fs=0053  gs=002b             efl=00000202
ws7v6!SymbeditorFinalize+0x2a16:
0051e486 81e101000080    and     ecx,80000001h
 # ChildEBP RetAddr      Args to Child              
WARNING: Stack unwind information not available. Following frames may be wrong.
00 0164e9b4 006fbb82     0164e9e8 006fba3c 0164eaf8 ws7v6!SymbeditorFinalize+0x29f1
01 0164e9e0 00645ab6     00000113 00000001 00000000 ws7v6!Exceptionloginitialization$qqrv+0xd897e
02 0164e9f8 76192edb     000209da 00000113 00000001 ws7v6!Exceptionloginitialization$qqrv+0x228b2
eax=0164e9c4 ebx=7fde0010 ecx=051c0793 edx=08532da0 esi=006fbb70 edi=00000113
eip=0051e461 esp=0164e98c ebp=0164e9b4 iopl=0         nv up ei pl nz na po cy
cs=0023  ss=002b  ds=002b  es=002b  fs=0053  gs=002b             efl=00000203
ws7v6!SymbeditorFinalize+0x29f1:
0051e461 e802c1fcff      call    ws7v6!DlgprjuFinalize+0xf86c (004ea568)
 # ChildEBP RetAddr      Args to Child              
WARNING: Stack unwind information not available. Following frames may be wrong.
00 0164e9b4 006fbb82     0164e9e8 006fba3c 0164eaf8 ws7v6!SymbeditorFinalize+0x2a16
01 0164e9e0 00645ab6     00000113 00000001 00000000 ws7v6!Exceptionloginitialization$qqrv+0xd897e
02 0164e9f8 76192edb     000209da 00000113 00000001 ws7v6!Exceptionloginitialization$qqrv+0x228b2
eax=00000000 ebx=7fde0010 ecx=0000002c edx=00c9f7bc esi=006fbb70 edi=00000113
eip=0051e486 esp=0164e98c ebp=0164e9b4 iopl=0         nv up ei pl nz na po nc
cs=0023  ss=002b  ds=002b  es=002b  fs=0053  gs=002b             efl=00000202
ws7v6!SymbeditorFinalize+0x2a16:
0051e486 81e101000080    and     ecx,80000001h
 # ChildEBP RetAddr      Args to Child              
WARNING: Stack unwind information not available. Following frames may be wrong.
00 0164e9b4 006fbb82     0164e9e8 006fba3c 0164eaf8 ws7v6!SymbeditorFinalize+0x29f1
01 0164e9e0 00645ab6     00000113 00000001 00000000 ws7v6!Exceptionloginitialization$qqrv+0xd897e
02 0164e9f8 76192edb     000209da 00000113 00000001 ws7v6!Exceptionloginitialization$qqrv+0x228b2
eax=0164e9c4 ebx=7fde0010 ecx=051c0793 edx=08532da0 esi=006fbb70 edi=00000113
eip=0051e461 esp=0164e98c ebp=0164e9b4 iopl=0         nv up ei pl nz na pe cy
cs=0023  ss=002b  ds=002b  es=002b  fs=0053  gs=002b             efl=00000207
ws7v6!SymbeditorFinalize+0x29f1:
0051e461 e802c1fcff      call    ws7v6!DlgprjuFinalize+0xf86c (004ea568)
 # ChildEBP RetAddr      Args to Child              
WARNING: Stack unwind information not available. Following frames may be wrong.
00 0164e9b4 006fbb82     0164e9e8 006fba3c 0164eaf8 ws7v6!SymbeditorFinalize+0x2a16
01 0164e9e0 00645ab6     00000113 00000001 00000000 ws7v6!Exceptionloginitialization$qqrv+0xd897e
02 0164e9f8 76192edb     000209da 00000113 00000001 ws7v6!Exceptionloginitialization$qqrv+0x228b2
eax=00000000 ebx=7fde0010 ecx=0000002d edx=00c9f7bc esi=006fbb70 edi=00000113
eip=0051e486 esp=0164e98c ebp=0164e9b4 iopl=0         nv up ei pl nz na po nc
cs=0023  ss=002b  ds=002b  es=002b  fs=0053  gs=002b             efl=00000202
ws7v6!SymbeditorFinalize+0x2a16:
0051e486 81e101000080    and     ecx,80000001h
 # ChildEBP RetAddr      Args to Child              
WARNING: Stack unwind information not available. Following frames may be wrong.
00 0164e9b4 006fbb82     0164e9e8 006fba3c 0164eaf8 ws7v6!SymbeditorFinalize+0x29f1
01 0164e9e0 00645ab6     00000113 00000001 00000000 ws7v6!Exceptionloginitialization$qqrv+0xd897e
02 0164e9f8 76192edb     000209da 00000113 00000001 ws7v6!Exceptionloginitialization$qqrv+0x228b2
eax=0164e9c4 ebx=7fde0010 ecx=051c0793 edx=08532da0 esi=006fbb70 edi=00000113
eip=0051e461 esp=0164e98c ebp=0164e9b4 iopl=0         nv up ei pl nz na pe cy
cs=0023  ss=002b  ds=002b  es=002b  fs=0053  gs=002b             efl=00000207
ws7v6!SymbeditorFinalize+0x29f1:
0051e461 e802c1fcff      call    ws7v6!DlgprjuFinalize+0xf86c (004ea568)
 # ChildEBP RetAddr      Args to Child              
WARNING: Stack unwind information not available. Following frames may be wrong.
00 0164e9b4 006fbb82     0164e9e8 006fba3c 0164eaf8 ws7v6!SymbeditorFinalize+0x2a16
01 0164e9e0 00645ab6     00000113 00000001 00000000 ws7v6!Exceptionloginitialization$qqrv+0xd897e
02 0164e9f8 76192edb     000209da 00000113 00000001 ws7v6!Exceptionloginitialization$qqrv+0x228b2
eax=00000000 ebx=7fde0010 ecx=0000002e edx=00c9f7bc esi=006fbb70 edi=00000113
eip=0051e486 esp=0164e98c ebp=0164e9b4 iopl=0         nv up ei pl nz na po nc
cs=0023  ss=002b  ds=002b  es=002b  fs=0053  gs=002b             efl=00000202
ws7v6!SymbeditorFinalize+0x2a16:
0051e486 81e101000080    and     ecx,80000001h
 # ChildEBP RetAddr      Args to Child              
WARNING: Stack unwind information not available. Following frames may be wrong.
00 0164e9b4 006fbb82     0164e9e8 006fba3c 0164eaf8 ws7v6!SymbeditorFinalize+0x29f1
01 0164e9e0 00645ab6     00000113 00000001 00000000 ws7v6!Exceptionloginitialization$qqrv+0xd897e
02 0164e9f8 76192edb     000209da 00000113 00000001 ws7v6!Exceptionloginitialization$qqrv+0x228b2
eax=0164e9c4 ebx=7fde0010 ecx=051c0793 edx=08532da0 esi=006fbb70 edi=00000113
eip=0051e461 esp=0164e98c ebp=0164e9b4 iopl=0         nv up ei pl nz na po cy
cs=0023  ss=002b  ds=002b  es=002b  fs=0053  gs=002b             efl=00000203
ws7v6!SymbeditorFinalize+0x29f1:
0051e461 e802c1fcff      call    ws7v6!DlgprjuFinalize+0xf86c (004ea568)
 # ChildEBP RetAddr      Args to Child              
WARNING: Stack unwind information not available. Following frames may be wrong.
00 0164e9b4 006fbb82     0164e9e8 006fba3c 0164eaf8 ws7v6!SymbeditorFinalize+0x2a16
01 0164e9e0 00645ab6     00000113 00000001 00000000 ws7v6!Exceptionloginitialization$qqrv+0xd897e
02 0164e9f8 76192edb     000209da 00000113 00000001 ws7v6!Exceptionloginitialization$qqrv+0x228b2
eax=00000000 ebx=7fde0010 ecx=0000002f edx=00c9f7bc esi=006fbb70 edi=00000113
eip=0051e486 esp=0164e98c ebp=0164e9b4 iopl=0         nv up ei pl nz na po nc
cs=0023  ss=002b  ds=002b  es=002b  fs=0053  gs=002b             efl=00000202
ws7v6!SymbeditorFinalize+0x2a16:
0051e486 81e101000080    and     ecx,80000001h
 # ChildEBP RetAddr      Args to Child              
WARNING: Stack unwind information not available. Following frames may be wrong.
00 0164e9b4 006fbb82     0164e9e8 006fba3c 0164eaf8 ws7v6!SymbeditorFinalize+0x29f1
01 0164e9e0 00645ab6     00000113 00000001 00000000 ws7v6!Exceptionloginitialization$qqrv+0xd897e
02 0164e9f8 76192edb     000209da 00000113 00000001 ws7v6!Exceptionloginitialization$qqrv+0x228b2
eax=0164e9c4 ebx=7fde0010 ecx=051c0793 edx=08532da0 esi=006fbb70 edi=00000113
eip=0051e461 esp=0164e98c ebp=0164e9b4 iopl=0         nv up ei pl nz ac pe cy
cs=0023  ss=002b  ds=002b  es=002b  fs=0053  gs=002b             efl=00000217
ws7v6!SymbeditorFinalize+0x29f1:
0051e461 e802c1fcff      call    ws7v6!DlgprjuFinalize+0xf86c (004ea568)
 # ChildEBP RetAddr      Args to Child              
WARNING: Stack unwind information not available. Following frames may be wrong.
00 0164e9b4 006fbb82     0164e9e8 006fba3c 0164eaf8 ws7v6!SymbeditorFinalize+0x2a16
01 0164e9e0 00645ab6     00000113 00000001 00000000 ws7v6!Exceptionloginitialization$qqrv+0xd897e
02 0164e9f8 76192edb     000209da 00000113 00000001 ws7v6!Exceptionloginitialization$qqrv+0x228b2
eax=00000000 ebx=7fde0010 ecx=00000030 edx=00c9f7bc esi=006fbb70 edi=00000113
eip=0051e486 esp=0164e98c ebp=0164e9b4 iopl=0         nv up ei pl nz na po nc
cs=0023  ss=002b  ds=002b  es=002b  fs=0053  gs=002b             efl=00000202
ws7v6!SymbeditorFinalize+0x2a16:
0051e486 81e101000080    and     ecx,80000001h
 # ChildEBP RetAddr      Args to Child              
WARNING: Stack unwind information not available. Following frames may be wrong.
00 0164e9b4 006fbb82     0164e9e8 006fba3c 0164eaf8 ws7v6!SymbeditorFinalize+0x29f1
01 0164e9e0 00645ab6     00000113 00000001 00000000 ws7v6!Exceptionloginitialization$qqrv+0xd897e
02 0164e9f8 76192edb     000209da 00000113 00000001 ws7v6!Exceptionloginitialization$qqrv+0x228b2
eax=0164e9c4 ebx=7fde0010 ecx=051c0793 edx=08532da0 esi=006fbb70 edi=00000113
eip=0051e461 esp=0164e98c ebp=0164e9b4 iopl=0         nv up ei pl nz na po cy
cs=0023  ss=002b  ds=002b  es=002b  fs=0053  gs=002b             efl=00000203
ws7v6!SymbeditorFinalize+0x29f1:
0051e461 e802c1fcff      call    ws7v6!DlgprjuFinalize+0xf86c (004ea568)
 # ChildEBP RetAddr      Args to Child              
WARNING: Stack unwind information not available. Following frames may be wrong.
00 0164e9b4 006fbb82     0164e9e8 006fba3c 0164eaf8 ws7v6!SymbeditorFinalize+0x2a16
01 0164e9e0 00645ab6     00000113 00000001 00000000 ws7v6!Exceptionloginitialization$qqrv+0xd897e
02 0164e9f8 76192edb     000209da 00000113 00000001 ws7v6!Exceptionloginitialization$qqrv+0x228b2
eax=00000000 ebx=7fde0010 ecx=00000031 edx=00c9f7bc esi=006fbb70 edi=00000113
eip=0051e486 esp=0164e98c ebp=0164e9b4 iopl=0         nv up ei pl nz na po nc
cs=0023  ss=002b  ds=002b  es=002b  fs=0053  gs=002b             efl=00000202
ws7v6!SymbeditorFinalize+0x2a16:
0051e486 81e101000080    and     ecx,80000001h
 # ChildEBP RetAddr      Args to Child              
WARNING: Stack unwind information not available. Following frames may be wrong.
00 0164e9b4 006fbb82     0164e9e8 006fba3c 0164eaf8 ws7v6!SymbeditorFinalize+0x29f1
01 0164e9e0 00645ab6     00000113 00000001 00000000 ws7v6!Exceptionloginitialization$qqrv+0xd897e
02 0164e9f8 76192edb     000209da 00000113 00000001 ws7v6!Exceptionloginitialization$qqrv+0x228b2
eax=0164e9c4 ebx=7fde0010 ecx=051c0793 edx=08532da0 esi=006fbb70 edi=00000113
eip=0051e461 esp=0164e98c ebp=0164e9b4 iopl=0         nv up ei pl nz na po cy
cs=0023  ss=002b  ds=002b  es=002b  fs=0053  gs=002b             efl=00000203
ws7v6!SymbeditorFinalize+0x29f1:
0051e461 e802c1fcff      call    ws7v6!DlgprjuFinalize+0xf86c (004ea568)
 # ChildEBP RetAddr      Args to Child              
WARNING: Stack unwind information not available. Following frames may be wrong.
00 0164e9b4 006fbb82     0164e9e8 006fba3c 0164eaf8 ws7v6!SymbeditorFinalize+0x2a16
01 0164e9e0 00645ab6     00000113 00000001 00000000 ws7v6!Exceptionloginitialization$qqrv+0xd897e
02 0164e9f8 76192edb     000209da 00000113 00000001 ws7v6!Exceptionloginitialization$qqrv+0x228b2
eax=00000000 ebx=7fde0010 ecx=00000032 edx=00c9f7bc esi=006fbb70 edi=00000113
eip=0051e486 esp=0164e98c ebp=0164e9b4 iopl=0         nv up ei pl nz na po nc
cs=0023  ss=002b  ds=002b  es=002b  fs=0053  gs=002b             efl=00000202
ws7v6!SymbeditorFinalize+0x2a16:
0051e486 81e101000080    and     ecx,80000001h
 # ChildEBP RetAddr      Args to Child              
WARNING: Stack unwind information not available. Following frames may be wrong.
00 0164e9b4 006fbb82     0164e9e8 006fba3c 0164eaf8 ws7v6!SymbeditorFinalize+0x29f1
01 0164e9e0 00645ab6     00000113 00000001 00000000 ws7v6!Exceptionloginitialization$qqrv+0xd897e
02 0164e9f8 76192edb     000209da 00000113 00000001 ws7v6!Exceptionloginitialization$qqrv+0x228b2
eax=0164e9c4 ebx=7fde0010 ecx=051c0793 edx=08532da0 esi=006fbb70 edi=00000113
eip=0051e461 esp=0164e98c ebp=0164e9b4 iopl=0         nv up ei pl nz na pe cy
cs=0023  ss=002b  ds=002b  es=002b  fs=0053  gs=002b             efl=00000207
ws7v6!SymbeditorFinalize+0x29f1:
0051e461 e802c1fcff      call    ws7v6!DlgprjuFinalize+0xf86c (004ea568)
 # ChildEBP RetAddr      Args to Child              
WARNING: Stack unwind information not available. Following frames may be wrong.
00 0164e9b4 006fbb82     0164e9e8 006fba3c 0164eaf8 ws7v6!SymbeditorFinalize+0x2a16
01 0164e9e0 00645ab6     00000113 00000001 00000000 ws7v6!Exceptionloginitialization$qqrv+0xd897e
02 0164e9f8 76192edb     000209da 00000113 00000001 ws7v6!Exceptionloginitialization$qqrv+0x228b2
eax=00000000 ebx=7fde0010 ecx=00000033 edx=00c9f7bc esi=006fbb70 edi=00000113
eip=0051e486 esp=0164e98c ebp=0164e9b4 iopl=0         nv up ei pl nz na po nc
cs=0023  ss=002b  ds=002b  es=002b  fs=0053  gs=002b             efl=00000202
ws7v6!SymbeditorFinalize+0x2a16:
0051e486 81e101000080    and     ecx,80000001h
 # ChildEBP RetAddr      Args to Child              
WARNING: Stack unwind information not available. Following frames may be wrong.
00 0164e9b4 006fbb82     0164e9e8 006fba3c 0164eaf8 ws7v6!SymbeditorFinalize+0x29f1
01 0164e9e0 00645ab6     00000113 00000001 00000000 ws7v6!Exceptionloginitialization$qqrv+0xd897e
02 0164e9f8 76192edb     000209da 00000113 00000001 ws7v6!Exceptionloginitialization$qqrv+0x228b2
eax=0164e9c4 ebx=7fde0010 ecx=051c0793 edx=08532da0 esi=006fbb70 edi=00000113
eip=0051e461 esp=0164e98c ebp=0164e9b4 iopl=0         nv up ei pl nz na po cy
cs=0023  ss=002b  ds=002b  es=002b  fs=0053  gs=002b             efl=00000203
ws7v6!SymbeditorFinalize+0x29f1:
0051e461 e802c1fcff      call    ws7v6!DlgprjuFinalize+0xf86c (004ea568)
 # ChildEBP RetAddr      Args to Child              
WARNING: Stack unwind information not available. Following frames may be wrong.
00 0164e9b4 006fbb82     0164e9e8 006fba3c 0164eaf8 ws7v6!SymbeditorFinalize+0x2a16
01 0164e9e0 00645ab6     00000113 00000001 00000000 ws7v6!Exceptionloginitialization$qqrv+0xd897e
02 0164e9f8 76192edb     000209da 00000113 00000001 ws7v6!Exceptionloginitialization$qqrv+0x228b2
eax=00000000 ebx=7fde0010 ecx=00000034 edx=00c9f7bc esi=006fbb70 edi=00000113
eip=0051e486 esp=0164e98c ebp=0164e9b4 iopl=0         nv up ei pl nz na po nc
cs=0023  ss=002b  ds=002b  es=002b  fs=0053  gs=002b             efl=00000202
ws7v6!SymbeditorFinalize+0x2a16:
0051e486 81e101000080    and     ecx,80000001h
 # ChildEBP RetAddr      Args to Child              
WARNING: Stack unwind information not available. Following frames may be wrong.
00 0164e9b4 006fbb82     0164e9e8 006fba3c 0164eaf8 ws7v6!SymbeditorFinalize+0x29f1
01 0164e9e0 00645ab6     00000113 00000001 00000000 ws7v6!Exceptionloginitialization$qqrv+0xd897e
02 0164e9f8 76192edb     000209da 00000113 00000001 ws7v6!Exceptionloginitialization$qqrv+0x228b2
eax=0164e9c4 ebx=7fde0010 ecx=051c0793 edx=08532da0 esi=006fbb70 edi=00000113
eip=0051e461 esp=0164e98c ebp=0164e9b4 iopl=0         nv up ei pl nz na pe cy
cs=0023  ss=002b  ds=002b  es=002b  fs=0053  gs=002b             efl=00000207
ws7v6!SymbeditorFinalize+0x29f1:
0051e461 e802c1fcff      call    ws7v6!DlgprjuFinalize+0xf86c (004ea568)
 # ChildEBP RetAddr      Args to Child              
WARNING: Stack unwind information not available. Following frames may be wrong.
00 0164e9b4 006fbb82     0164e9e8 006fba3c 0164eaf8 ws7v6!SymbeditorFinalize+0x2a16
01 0164e9e0 00645ab6     00000113 00000001 00000000 ws7v6!Exceptionloginitialization$qqrv+0xd897e
02 0164e9f8 76192edb     000209da 00000113 00000001 ws7v6!Exceptionloginitialization$qqrv+0x228b2
eax=00000000 ebx=7fde0010 ecx=00000035 edx=00c9f7bc esi=006fbb70 edi=00000113
eip=0051e486 esp=0164e98c ebp=0164e9b4 iopl=0         nv up ei pl nz na po nc
cs=0023  ss=002b  ds=002b  es=002b  fs=0053  gs=002b             efl=00000202
ws7v6!SymbeditorFinalize+0x2a16:
0051e486 81e101000080    and     ecx,80000001h
 # ChildEBP RetAddr      Args to Child              
WARNING: Stack unwind information not available. Following frames may be wrong.
00 0164e9b4 006fbb82     0164e9e8 006fba3c 0164eaf8 ws7v6!SymbeditorFinalize+0x29f1
01 0164e9e0 00645ab6     00000113 00000001 00000000 ws7v6!Exceptionloginitialization$qqrv+0xd897e
02 0164e9f8 76192edb     000209da 00000113 00000001 ws7v6!Exceptionloginitialization$qqrv+0x228b2
eax=0164e9c4 ebx=7fde0010 ecx=051c0793 edx=08532da0 esi=006fbb70 edi=00000113
eip=0051e461 esp=0164e98c ebp=0164e9b4 iopl=0         nv up ei pl nz na pe cy
cs=0023  ss=002b  ds=002b  es=002b  fs=0053  gs=002b             efl=00000207
ws7v6!SymbeditorFinalize+0x29f1:
0051e461 e802c1fcff      call    ws7v6!DlgprjuFinalize+0xf86c (004ea568)
 # ChildEBP RetAddr      Args to Child              
WARNING: Stack unwind information not available. Following frames may be wrong.
00 0164e9b4 006fbb82     0164e9e8 006fba3c 0164eaf8 ws7v6!SymbeditorFinalize+0x2a16
01 0164e9e0 00645ab6     00000113 00000001 00000000 ws7v6!Exceptionloginitialization$qqrv+0xd897e
02 0164e9f8 76192edb     000209da 00000113 00000001 ws7v6!Exceptionloginitialization$qqrv+0x228b2
eax=00000000 ebx=7fde0010 ecx=00000036 edx=00c9f7bc esi=006fbb70 edi=00000113
eip=0051e486 esp=0164e98c ebp=0164e9b4 iopl=0         nv up ei pl nz na po nc
cs=0023  ss=002b  ds=002b  es=002b  fs=0053  gs=002b             efl=00000202
ws7v6!SymbeditorFinalize+0x2a16:
0051e486 81e101000080    and     ecx,80000001h
 # ChildEBP RetAddr      Args to Child              
WARNING: Stack unwind information not available. Following frames may be wrong.
00 0164e9b4 006fbb82     0164e9e8 006fba3c 0164eaf8 ws7v6!SymbeditorFinalize+0x29f1
01 0164e9e0 00645ab6     00000113 00000001 00000000 ws7v6!Exceptionloginitialization$qqrv+0xd897e
02 0164e9f8 76192edb     000209da 00000113 00000001 ws7v6!Exceptionloginitialization$qqrv+0x228b2
eax=0164e9c4 ebx=7fde0010 ecx=051c0793 edx=08532da0 esi=006fbb70 edi=00000113
eip=0051e461 esp=0164e98c ebp=0164e9b4 iopl=0         nv up ei pl nz na po cy
cs=0023  ss=002b  ds=002b  es=002b  fs=0053  gs=002b             efl=00000203
ws7v6!SymbeditorFinalize+0x29f1:
0051e461 e802c1fcff      call    ws7v6!DlgprjuFinalize+0xf86c (004ea568)
 # ChildEBP RetAddr      Args to Child              
WARNING: Stack unwind information not available. Following frames may be wrong.
00 0164e9b4 006fbb82     0164e9e8 006fba3c 0164eaf8 ws7v6!SymbeditorFinalize+0x2a16
01 0164e9e0 00645ab6     00000113 00000001 00000000 ws7v6!Exceptionloginitialization$qqrv+0xd897e
02 0164e9f8 76192edb     000209da 00000113 00000001 ws7v6!Exceptionloginitialization$qqrv+0x228b2
eax=00000000 ebx=7fde0010 ecx=00000037 edx=00c9f7bc esi=006fbb70 edi=00000113
eip=0051e486 esp=0164e98c ebp=0164e9b4 iopl=0         nv up ei pl nz na po nc
cs=0023  ss=002b  ds=002b  es=002b  fs=0053  gs=002b             efl=00000202
ws7v6!SymbeditorFinalize+0x2a16:
0051e486 81e101000080    and     ecx,80000001h
 # ChildEBP RetAddr      Args to Child              
WARNING: Stack unwind information not available. Following frames may be wrong.
00 0164e9b4 006fbb82     0164e9e8 006fba3c 0164eaf8 ws7v6!SymbeditorFinalize+0x29f1
01 0164e9e0 00645ab6     00000113 00000001 00000000 ws7v6!Exceptionloginitialization$qqrv+0xd897e
02 0164e9f8 76192edb     000209da 00000113 00000001 ws7v6!Exceptionloginitialization$qqrv+0x228b2
eax=0164e9c4 ebx=7fde0010 ecx=051c0793 edx=08532da0 esi=006fbb70 edi=00000113
eip=0051e461 esp=0164e98c ebp=0164e9b4 iopl=0         nv up ei pl nz na po cy
cs=0023  ss=002b  ds=002b  es=002b  fs=0053  gs=002b             efl=00000203
ws7v6!SymbeditorFinalize+0x29f1:
0051e461 e802c1fcff      call    ws7v6!DlgprjuFinalize+0xf86c (004ea568)
 # ChildEBP RetAddr      Args to Child              
WARNING: Stack unwind information not available. Following frames may be wrong.
00 0164e9b4 006fbb82     0164e9e8 006fba3c 0164eaf8 ws7v6!SymbeditorFinalize+0x2a16
01 0164e9e0 00645ab6     00000113 00000001 00000000 ws7v6!Exceptionloginitialization$qqrv+0xd897e
02 0164e9f8 76192edb     000209da 00000113 00000001 ws7v6!Exceptionloginitialization$qqrv+0x228b2
eax=00000000 ebx=7fde0010 ecx=00000038 edx=00c9f7bc esi=006fbb70 edi=00000113
eip=0051e486 esp=0164e98c ebp=0164e9b4 iopl=0         nv up ei pl nz na po nc
cs=0023  ss=002b  ds=002b  es=002b  fs=0053  gs=002b             efl=00000202
ws7v6!SymbeditorFinalize+0x2a16:
0051e486 81e101000080    and     ecx,80000001h
 # ChildEBP RetAddr      Args to Child              
WARNING: Stack unwind information not available. Following frames may be wrong.
00 0164e9b4 006fbb82     0164e9e8 006fba3c 0164eaf8 ws7v6!SymbeditorFinalize+0x29f1
01 0164e9e0 00645ab6     00000113 00000001 00000000 ws7v6!Exceptionloginitialization$qqrv+0xd897e
02 0164e9f8 76192edb     000209da 00000113 00000001 ws7v6!Exceptionloginitialization$qqrv+0x228b2
eax=0164e9c4 ebx=7fde0010 ecx=051c0793 edx=08532da0 esi=006fbb70 edi=00000113
eip=0051e461 esp=0164e98c ebp=0164e9b4 iopl=0         nv up ei pl nz na pe cy
cs=0023  ss=002b  ds=002b  es=002b  fs=0053  gs=002b             efl=00000207
ws7v6!SymbeditorFinalize+0x29f1:
0051e461 e802c1fcff      call    ws7v6!DlgprjuFinalize+0xf86c (004ea568)
 # ChildEBP RetAddr      Args to Child              
WARNING: Stack unwind information not available. Following frames may be wrong.
00 0164e9b4 006fbb82     0164e9e8 006fba3c 0164eaf8 ws7v6!SymbeditorFinalize+0x2a16
01 0164e9e0 00645ab6     00000113 00000001 00000000 ws7v6!Exceptionloginitialization$qqrv+0xd897e
02 0164e9f8 76192edb     000209da 00000113 00000001 ws7v6!Exceptionloginitialization$qqrv+0x228b2
eax=00000000 ebx=7fde0010 ecx=00000039 edx=00c9f7bc esi=006fbb70 edi=00000113
eip=0051e486 esp=0164e98c ebp=0164e9b4 iopl=0         nv up ei pl nz na po nc
cs=0023  ss=002b  ds=002b  es=002b  fs=0053  gs=002b             efl=00000202
ws7v6!SymbeditorFinalize+0x2a16:
0051e486 81e101000080    and     ecx,80000001h
 # ChildEBP RetAddr      Args to Child              
WARNING: Stack unwind information not available. Following frames may be wrong.
00 0164e9b4 006fbb82     0164e9e8 006fba3c 0164eaf8 ws7v6!SymbeditorFinalize+0x29f1
01 0164e9e0 00645ab6     00000113 00000001 00000000 ws7v6!Exceptionloginitialization$qqrv+0xd897e
02 0164e9f8 76192edb     000209da 00000113 00000001 ws7v6!Exceptionloginitialization$qqrv+0x228b2
eax=0164e9c4 ebx=7fde0010 ecx=051c0793 edx=08532da0 esi=006fbb70 edi=00000113
eip=0051e461 esp=0164e98c ebp=0164e9b4 iopl=0         nv up ei pl nz na pe cy
cs=0023  ss=002b  ds=002b  es=002b  fs=0053  gs=002b             efl=00000207
ws7v6!SymbeditorFinalize+0x29f1:
0051e461 e802c1fcff      call    ws7v6!DlgprjuFinalize+0xf86c (004ea568)
 # ChildEBP RetAddr      Args to Child              
WARNING: Stack unwind information not available. Following frames may be wrong.
00 0164e9b4 006fbb82     0164e9e8 006fba3c 0164eaf8 ws7v6!SymbeditorFinalize+0x2a16
01 0164e9e0 00645ab6     00000113 00000001 00000000 ws7v6!Exceptionloginitialization$qqrv+0xd897e
02 0164e9f8 76192edb     000209da 00000113 00000001 ws7v6!Exceptionloginitialization$qqrv+0x228b2
eax=00000000 ebx=7fde0010 ecx=0000003a edx=00c9f7bc esi=006fbb70 edi=00000113
eip=0051e486 esp=0164e98c ebp=0164e9b4 iopl=0         nv up ei pl nz na po nc
cs=0023  ss=002b  ds=002b  es=002b  fs=0053  gs=002b             efl=00000202
ws7v6!SymbeditorFinalize+0x2a16:
0051e486 81e101000080    and     ecx,80000001h
 # ChildEBP RetAddr      Args to Child              
WARNING: Stack unwind information not available. Following frames may be wrong.
00 0164e9b4 006fbb82     0164e9e8 006fba3c 0164eaf8 ws7v6!SymbeditorFinalize+0x29f1
01 0164e9e0 00645ab6     00000113 00000001 00000000 ws7v6!Exceptionloginitialization$qqrv+0xd897e
02 0164e9f8 76192edb     000209da 00000113 00000001 ws7v6!Exceptionloginitialization$qqrv+0x228b2
eax=0164e9c4 ebx=7fde0010 ecx=051c0793 edx=08532da0 esi=006fbb70 edi=00000113
eip=0051e461 esp=0164e98c ebp=0164e9b4 iopl=0         nv up ei pl nz na po cy
cs=0023  ss=002b  ds=002b  es=002b  fs=0053  gs=002b             efl=00000203
ws7v6!SymbeditorFinalize+0x29f1:
0051e461 e802c1fcff      call    ws7v6!DlgprjuFinalize+0xf86c (004ea568)
 # ChildEBP RetAddr      Args to Child              
WARNING: Stack unwind information not available. Following frames may be wrong.
00 0164e9b4 006fbb82     0164e9e8 006fba3c 0164eaf8 ws7v6!SymbeditorFinalize+0x2a16
01 0164e9e0 00645ab6     00000113 00000001 00000000 ws7v6!Exceptionloginitialization$qqrv+0xd897e
02 0164e9f8 76192edb     000209da 00000113 00000001 ws7v6!Exceptionloginitialization$qqrv+0x228b2
eax=00000000 ebx=7fde0010 ecx=0000003b edx=00c9f7bc esi=006fbb70 edi=00000113
eip=0051e486 esp=0164e98c ebp=0164e9b4 iopl=0         nv up ei pl nz na po nc
cs=0023  ss=002b  ds=002b  es=002b  fs=0053  gs=002b             efl=00000202
ws7v6!SymbeditorFinalize+0x2a16:
0051e486 81e101000080    and     ecx,80000001h
 # ChildEBP RetAddr      Args to Child              
WARNING: Stack unwind information not available. Following frames may be wrong.
00 0164e9b4 006fbb82     0164e9e8 006fba3c 0164eaf8 ws7v6!SymbeditorFinalize+0x29f1
01 0164e9e0 00645ab6     00000113 00000001 00000000 ws7v6!Exceptionloginitialization$qqrv+0xd897e
02 0164e9f8 76192edb     000209da 00000113 00000001 ws7v6!Exceptionloginitialization$qqrv+0x228b2
eax=0164e9c4 ebx=7fde0010 ecx=051c0793 edx=08532da0 esi=006fbb70 edi=00000113
eip=0051e461 esp=0164e98c ebp=0164e9b4 iopl=0         nv up ei pl nz na pe cy
cs=0023  ss=002b  ds=002b  es=002b  fs=0053  gs=002b             efl=00000207
ws7v6!SymbeditorFinalize+0x29f1:
0051e461 e802c1fcff      call    ws7v6!DlgprjuFinalize+0xf86c (004ea568)
 # ChildEBP RetAddr      Args to Child              
WARNING: Stack unwind information not available. Following frames may be wrong.
00 0164e9b4 006fbb82     0164e9e8 006fba3c 0164eaf8 ws7v6!SymbeditorFinalize+0x2a16
01 0164e9e0 00645ab6     00000113 00000001 00000000 ws7v6!Exceptionloginitialization$qqrv+0xd897e
02 0164e9f8 76192edb     000209da 00000113 00000001 ws7v6!Exceptionloginitialization$qqrv+0x228b2
eax=00000000 ebx=7fde0010 ecx=0000003c edx=00c9f7bc esi=006fbb70 edi=00000113
eip=0051e486 esp=0164e98c ebp=0164e9b4 iopl=0         nv up ei pl nz na po nc
cs=0023  ss=002b  ds=002b  es=002b  fs=0053  gs=002b             efl=00000202
ws7v6!SymbeditorFinalize+0x2a16:
0051e486 81e101000080    and     ecx,80000001h
 # ChildEBP RetAddr      Args to Child              
WARNING: Stack unwind information not available. Following frames may be wrong.
00 0164e9b4 006fbb82     0164e9e8 006fba3c 0164eaf8 ws7v6!SymbeditorFinalize+0x29f1
01 0164e9e0 00645ab6     00000113 00000001 00000000 ws7v6!Exceptionloginitialization$qqrv+0xd897e
02 0164e9f8 76192edb     000209da 00000113 00000001 ws7v6!Exceptionloginitialization$qqrv+0x228b2
eax=0164e9c4 ebx=7fde0010 ecx=051c0793 edx=08532da0 esi=006fbb70 edi=00000113
eip=0051e461 esp=0164e98c ebp=0164e9b4 iopl=0         nv up ei pl nz na po cy
cs=0023  ss=002b  ds=002b  es=002b  fs=0053  gs=002b             efl=00000203
ws7v6!SymbeditorFinalize+0x29f1:
0051e461 e802c1fcff      call    ws7v6!DlgprjuFinalize+0xf86c (004ea568)
 # ChildEBP RetAddr      Args to Child              
WARNING: Stack unwind information not available. Following frames may be wrong.
00 0164e9b4 006fbb82     0164e9e8 006fba3c 0164eaf8 ws7v6!SymbeditorFinalize+0x2a16
01 0164e9e0 00645ab6     00000113 00000001 00000000 ws7v6!Exceptionloginitialization$qqrv+0xd897e
02 0164e9f8 76192edb     000209da 00000113 00000001 ws7v6!Exceptionloginitialization$qqrv+0x228b2
eax=00000000 ebx=7fde0010 ecx=0000003d edx=00c9f7bc esi=006fbb70 edi=00000113
eip=0051e486 esp=0164e98c ebp=0164e9b4 iopl=0         nv up ei pl nz na po nc
cs=0023  ss=002b  ds=002b  es=002b  fs=0053  gs=002b             efl=00000202
ws7v6!SymbeditorFinalize+0x2a16:
0051e486 81e101000080    and     ecx,80000001h
 # ChildEBP RetAddr      Args to Child              
WARNING: Stack unwind information not available. Following frames may be wrong.
00 0164e9b4 006fbb82     0164e9e8 006fba3c 0164eaf8 ws7v6!SymbeditorFinalize+0x29f1
01 0164e9e0 00645ab6     00000113 00000001 00000000 ws7v6!Exceptionloginitialization$qqrv+0xd897e
02 0164e9f8 76192edb     000209da 00000113 00000001 ws7v6!Exceptionloginitialization$qqrv+0x228b2
eax=0164e9c4 ebx=7fde0010 ecx=051c0793 edx=08532da0 esi=006fbb70 edi=00000113
eip=0051e461 esp=0164e98c ebp=0164e9b4 iopl=0         nv up ei pl nz na po cy
cs=0023  ss=002b  ds=002b  es=002b  fs=0053  gs=002b             efl=00000203
ws7v6!SymbeditorFinalize+0x29f1:
0051e461 e802c1fcff      call    ws7v6!DlgprjuFinalize+0xf86c (004ea568)
 # ChildEBP RetAddr      Args to Child              
WARNING: Stack unwind information not available. Following frames may be wrong.
00 0164e9b4 006fbb82     0164e9e8 006fba3c 0164eaf8 ws7v6!SymbeditorFinalize+0x2a16
01 0164e9e0 00645ab6     00000113 00000001 00000000 ws7v6!Exceptionloginitialization$qqrv+0xd897e
02 0164e9f8 76192edb     000209da 00000113 00000001 ws7v6!Exceptionloginitialization$qqrv+0x228b2
eax=00000000 ebx=7fde0010 ecx=0000003e edx=00c9f7bc esi=006fbb70 edi=00000113
eip=0051e486 esp=0164e98c ebp=0164e9b4 iopl=0         nv up ei pl nz na po nc
cs=0023  ss=002b  ds=002b  es=002b  fs=0053  gs=002b             efl=00000202
ws7v6!SymbeditorFinalize+0x2a16:
0051e486 81e101000080    and     ecx,80000001h
 # ChildEBP RetAddr      Args to Child              
WARNING: Stack unwind information not available. Following frames may be wrong.
00 0164e9b4 006fbb82     0164e9e8 006fba3c 0164eaf8 ws7v6!SymbeditorFinalize+0x29f1
01 0164e9e0 00645ab6     00000113 00000001 00000000 ws7v6!Exceptionloginitialization$qqrv+0xd897e
02 0164e9f8 76192edb     000209da 00000113 00000001 ws7v6!Exceptionloginitialization$qqrv+0x228b2
eax=0164e9c4 ebx=7fde0010 ecx=051c0793 edx=08532da0 esi=006fbb70 edi=00000113
eip=0051e461 esp=0164e98c ebp=0164e9b4 iopl=0         nv up ei pl nz na pe cy
cs=0023  ss=002b  ds=002b  es=002b  fs=0053  gs=002b             efl=00000207
ws7v6!SymbeditorFinalize+0x29f1:
0051e461 e802c1fcff      call    ws7v6!DlgprjuFinalize+0xf86c (004ea568)
 # ChildEBP RetAddr      Args to Child              
WARNING: Stack unwind information not available. Following frames may be wrong.
00 0164e9b4 006fbb82     0164e9e8 006fba3c 0164eaf8 ws7v6!SymbeditorFinalize+0x2a16
01 0164e9e0 00645ab6     00000113 00000001 00000000 ws7v6!Exceptionloginitialization$qqrv+0xd897e
02 0164e9f8 76192edb     000209da 00000113 00000001 ws7v6!Exceptionloginitialization$qqrv+0x228b2
eax=00000000 ebx=7fde0010 ecx=0000003f edx=00c9f7bc esi=006fbb70 edi=00000113
eip=0051e486 esp=0164e98c ebp=0164e9b4 iopl=0         nv up ei pl nz na po nc
cs=0023  ss=002b  ds=002b  es=002b  fs=0053  gs=002b             efl=00000202
ws7v6!SymbeditorFinalize+0x2a16:
0051e486 81e101000080    and     ecx,80000001h
 # ChildEBP RetAddr      Args to Child              
WARNING: Stack unwind information not available. Following frames may be wrong.
00 0164e9b4 006fbb82     0164e9e8 006fba3c 0164eaf8 ws7v6!SymbeditorFinalize+0x29f1
01 0164e9e0 00645ab6     00000113 00000001 00000000 ws7v6!Exceptionloginitialization$qqrv+0xd897e
02 0164e9f8 76192edb     000209da 00000113 00000001 ws7v6!Exceptionloginitialization$qqrv+0x228b2
eax=0164e9c4 ebx=7fde0010 ecx=051c0793 edx=08532da0 esi=006fbb70 edi=00000113
eip=0051e461 esp=0164e98c ebp=0164e9b4 iopl=0         nv up ei pl nz ac po cy
cs=0023  ss=002b  ds=002b  es=002b  fs=0053  gs=002b             efl=00000213
ws7v6!SymbeditorFinalize+0x29f1:
0051e461 e802c1fcff      call    ws7v6!DlgprjuFinalize+0xf86c (004ea568)
 # ChildEBP RetAddr      Args to Child              
WARNING: Stack unwind information not available. Following frames may be wrong.
00 0164e9b4 006fbb82     0164e9e8 006fba3c 0164eaf8 ws7v6!SymbeditorFinalize+0x2a16
01 0164e9e0 00645ab6     00000113 00000001 00000000 ws7v6!Exceptionloginitialization$qqrv+0xd897e
02 0164e9f8 76192edb     000209da 00000113 00000001 ws7v6!Exceptionloginitialization$qqrv+0x228b2
eax=00000000 ebx=7fde0010 ecx=00000040 edx=00c9f7bc esi=006fbb70 edi=00000113
eip=0051e486 esp=0164e98c ebp=0164e9b4 iopl=0         nv up ei pl nz na po nc
cs=0023  ss=002b  ds=002b  es=002b  fs=0053  gs=002b             efl=00000202
ws7v6!SymbeditorFinalize+0x2a16:
0051e486 81e101000080    and     ecx,80000001h
 # ChildEBP RetAddr      Args to Child              
WARNING: Stack unwind information not available. Following frames may be wrong.
00 0164e9b4 006fbb82     0164e9e8 006fba3c 0164eaf8 ws7v6!SymbeditorFinalize+0x29f1
01 0164e9e0 00645ab6     00000113 00000001 00000000 ws7v6!Exceptionloginitialization$qqrv+0xd897e
02 0164e9f8 76192edb     000209da 00000113 00000001 ws7v6!Exceptionloginitialization$qqrv+0x228b2
eax=0164e9c4 ebx=7fde0010 ecx=051c0793 edx=08532da0 esi=006fbb70 edi=00000113
eip=0051e461 esp=0164e98c ebp=0164e9b4 iopl=0         nv up ei pl nz na pe cy
cs=0023  ss=002b  ds=002b  es=002b  fs=0053  gs=002b             efl=00000207
ws7v6!SymbeditorFinalize+0x29f1:
0051e461 e802c1fcff      call    ws7v6!DlgprjuFinalize+0xf86c (004ea568)
 # ChildEBP RetAddr      Args to Child              
WARNING: Stack unwind information not available. Following frames may be wrong.
00 0164e9b4 006fbb82     0164e9e8 006fba3c 0164eaf8 ws7v6!SymbeditorFinalize+0x2a16
01 0164e9e0 00645ab6     00000113 00000001 00000000 ws7v6!Exceptionloginitialization$qqrv+0xd897e
02 0164e9f8 76192edb     000209da 00000113 00000001 ws7v6!Exceptionloginitialization$qqrv+0x228b2
eax=00000000 ebx=7fde0010 ecx=00000041 edx=00c9f7bc esi=006fbb70 edi=00000113
eip=0051e486 esp=0164e98c ebp=0164e9b4 iopl=0         nv up ei pl nz na po nc
cs=0023  ss=002b  ds=002b  es=002b  fs=0053  gs=002b             efl=00000202
ws7v6!SymbeditorFinalize+0x2a16:
0051e486 81e101000080    and     ecx,80000001h
 # ChildEBP RetAddr      Args to Child              
WARNING: Stack unwind information not available. Following frames may be wrong.
00 0164e9b4 006fbb82     0164e9e8 006fba3c 0164eaf8 ws7v6!SymbeditorFinalize+0x29f1
01 0164e9e0 00645ab6     00000113 00000001 00000000 ws7v6!Exceptionloginitialization$qqrv+0xd897e
02 0164e9f8 76192edb     000209da 00000113 00000001 ws7v6!Exceptionloginitialization$qqrv+0x228b2
eax=0164e9c4 ebx=7fde0010 ecx=051c0793 edx=08532da0 esi=006fbb70 edi=00000113
eip=0051e461 esp=0164e98c ebp=0164e9b4 iopl=0         nv up ei pl nz na pe cy
cs=0023  ss=002b  ds=002b  es=002b  fs=0053  gs=002b             efl=00000207
ws7v6!SymbeditorFinalize+0x29f1:
0051e461 e802c1fcff      call    ws7v6!DlgprjuFinalize+0xf86c (004ea568)
 # ChildEBP RetAddr      Args to Child              
WARNING: Stack unwind information not available. Following frames may be wrong.
00 0164e9b4 006fbb82     0164e9e8 006fba3c 0164eaf8 ws7v6!SymbeditorFinalize+0x2a16
01 0164e9e0 00645ab6     00000113 00000001 00000000 ws7v6!Exceptionloginitialization$qqrv+0xd897e
02 0164e9f8 76192edb     000209da 00000113 00000001 ws7v6!Exceptionloginitialization$qqrv+0x228b2
eax=00000000 ebx=7fde0010 ecx=00000042 edx=00c9f7bc esi=006fbb70 edi=00000113
eip=0051e486 esp=0164e98c ebp=0164e9b4 iopl=0         nv up ei pl nz na po nc
cs=0023  ss=002b  ds=002b  es=002b  fs=0053  gs=002b             efl=00000202
ws7v6!SymbeditorFinalize+0x2a16:
0051e486 81e101000080    and     ecx,80000001h
 # ChildEBP RetAddr      Args to Child              
WARNING: Stack unwind information not available. Following frames may be wrong.
00 0164e9b4 006fbb82     0164e9e8 006fba3c 0164eaf8 ws7v6!SymbeditorFinalize+0x29f1
01 0164e9e0 00645ab6     00000113 00000001 00000000 ws7v6!Exceptionloginitialization$qqrv+0xd897e
02 0164e9f8 76192edb     000209da 00000113 00000001 ws7v6!Exceptionloginitialization$qqrv+0x228b2
eax=0164e9c4 ebx=7fde0010 ecx=051c0793 edx=08532da0 esi=006fbb70 edi=00000113
eip=0051e461 esp=0164e98c ebp=0164e9b4 iopl=0         nv up ei pl nz na po cy
cs=0023  ss=002b  ds=002b  es=002b  fs=0053  gs=002b             efl=00000203
ws7v6!SymbeditorFinalize+0x29f1:
0051e461 e802c1fcff      call    ws7v6!DlgprjuFinalize+0xf86c (004ea568)
 # ChildEBP RetAddr      Args to Child              
WARNING: Stack unwind information not available. Following frames may be wrong.
00 0164e9b4 006fbb82     0164e9e8 006fba3c 0164eaf8 ws7v6!SymbeditorFinalize+0x2a16
01 0164e9e0 00645ab6     00000113 00000001 00000000 ws7v6!Exceptionloginitialization$qqrv+0xd897e
02 0164e9f8 76192edb     000209da 00000113 00000001 ws7v6!Exceptionloginitialization$qqrv+0x228b2
eax=00000000 ebx=7fde0010 ecx=00000043 edx=00c9f7bc esi=006fbb70 edi=00000113
eip=0051e486 esp=0164e98c ebp=0164e9b4 iopl=0         nv up ei pl nz na po nc
cs=0023  ss=002b  ds=002b  es=002b  fs=0053  gs=002b             efl=00000202
ws7v6!SymbeditorFinalize+0x2a16:
0051e486 81e101000080    and     ecx,80000001h
 # ChildEBP RetAddr      Args to Child              
WARNING: Stack unwind information not available. Following frames may be wrong.
00 0164e9b4 006fbb82     0164e9e8 006fba3c 0164eaf8 ws7v6!SymbeditorFinalize+0x29f1
01 0164e9e0 00645ab6     00000113 00000001 00000000 ws7v6!Exceptionloginitialization$qqrv+0xd897e
02 0164e9f8 76192edb     000209da 00000113 00000001 ws7v6!Exceptionloginitialization$qqrv+0x228b2
eax=0164e9c4 ebx=7fde0010 ecx=051c0793 edx=08532da0 esi=006fbb70 edi=00000113
eip=0051e461 esp=0164e98c ebp=0164e9b4 iopl=0         nv up ei pl nz na pe cy
cs=0023  ss=002b  ds=002b  es=002b  fs=0053  gs=002b             efl=00000207
ws7v6!SymbeditorFinalize+0x29f1:
0051e461 e802c1fcff      call    ws7v6!DlgprjuFinalize+0xf86c (004ea568)
 # ChildEBP RetAddr      Args to Child              
WARNING: Stack unwind information not available. Following frames may be wrong.
00 0164e9b4 006fbb82     0164e9e8 006fba3c 0164eaf8 ws7v6!SymbeditorFinalize+0x2a16
01 0164e9e0 00645ab6     00000113 00000001 00000000 ws7v6!Exceptionloginitialization$qqrv+0xd897e
02 0164e9f8 76192edb     000209da 00000113 00000001 ws7v6!Exceptionloginitialization$qqrv+0x228b2
eax=00000000 ebx=7fde0010 ecx=00000044 edx=00c9f7bc esi=006fbb70 edi=00000113
eip=0051e486 esp=0164e98c ebp=0164e9b4 iopl=0         nv up ei pl nz na po nc
cs=0023  ss=002b  ds=002b  es=002b  fs=0053  gs=002b             efl=00000202
ws7v6!SymbeditorFinalize+0x2a16:
0051e486 81e101000080    and     ecx,80000001h
 # ChildEBP RetAddr      Args to Child              
WARNING: Stack unwind information not available. Following frames may be wrong.
00 0164e9b4 006fbb82     0164e9e8 006fba3c 0164eaf8 ws7v6!SymbeditorFinalize+0x29f1
01 0164e9e0 00645ab6     00000113 00000001 00000000 ws7v6!Exceptionloginitialization$qqrv+0xd897e
02 0164e9f8 76192edb     000209da 00000113 00000001 ws7v6!Exceptionloginitialization$qqrv+0x228b2
eax=0164e9c4 ebx=7fde0010 ecx=051c0793 edx=08532da0 esi=006fbb70 edi=00000113
eip=0051e461 esp=0164e98c ebp=0164e9b4 iopl=0         nv up ei pl nz na po cy
cs=0023  ss=002b  ds=002b  es=002b  fs=0053  gs=002b             efl=00000203
ws7v6!SymbeditorFinalize+0x29f1:
0051e461 e802c1fcff      call    ws7v6!DlgprjuFinalize+0xf86c (004ea568)
 # ChildEBP RetAddr      Args to Child              
WARNING: Stack unwind information not available. Following frames may be wrong.
00 0164e9b4 006fbb82     0164e9e8 006fba3c 0164eaf8 ws7v6!SymbeditorFinalize+0x2a16
01 0164e9e0 00645ab6     00000113 00000001 00000000 ws7v6!Exceptionloginitialization$qqrv+0xd897e
02 0164e9f8 76192edb     000209da 00000113 00000001 ws7v6!Exceptionloginitialization$qqrv+0x228b2
eax=00000000 ebx=7fde0010 ecx=00000045 edx=00c9f7bc esi=006fbb70 edi=00000113
eip=0051e486 esp=0164e98c ebp=0164e9b4 iopl=0         nv up ei pl nz na po nc
cs=0023  ss=002b  ds=002b  es=002b  fs=0053  gs=002b             efl=00000202
ws7v6!SymbeditorFinalize+0x2a16:
0051e486 81e101000080    and     ecx,80000001h
 # ChildEBP RetAddr      Args to Child              
WARNING: Stack unwind information not available. Following frames may be wrong.
00 0164e9b4 006fbb82     0164e9e8 006fba3c 0164eaf8 ws7v6!SymbeditorFinalize+0x29f1
01 0164e9e0 00645ab6     00000113 00000001 00000000 ws7v6!Exceptionloginitialization$qqrv+0xd897e
02 0164e9f8 76192edb     000209da 00000113 00000001 ws7v6!Exceptionloginitialization$qqrv+0x228b2
eax=0164e9c4 ebx=7fde0010 ecx=051c0793 edx=08532da0 esi=006fbb70 edi=00000113
eip=0051e461 esp=0164e98c ebp=0164e9b4 iopl=0         nv up ei pl nz na po cy
cs=0023  ss=002b  ds=002b  es=002b  fs=0053  gs=002b             efl=00000203
ws7v6!SymbeditorFinalize+0x29f1:
0051e461 e802c1fcff      call    ws7v6!DlgprjuFinalize+0xf86c (004ea568)
 # ChildEBP RetAddr      Args to Child              
WARNING: Stack unwind information not available. Following frames may be wrong.
00 0164e9b4 006fbb82     0164e9e8 006fba3c 0164eaf8 ws7v6!SymbeditorFinalize+0x2a16
01 0164e9e0 00645ab6     00000113 00000001 00000000 ws7v6!Exceptionloginitialization$qqrv+0xd897e
02 0164e9f8 76192edb     000209da 00000113 00000001 ws7v6!Exceptionloginitialization$qqrv+0x228b2
eax=00000000 ebx=7fde0010 ecx=00000046 edx=00c9f7bc esi=006fbb70 edi=00000113
eip=0051e486 esp=0164e98c ebp=0164e9b4 iopl=0         nv up ei pl nz na po nc
cs=0023  ss=002b  ds=002b  es=002b  fs=0053  gs=002b             efl=00000202
ws7v6!SymbeditorFinalize+0x2a16:
0051e486 81e101000080    and     ecx,80000001h
 # ChildEBP RetAddr      Args to Child              
WARNING: Stack unwind information not available. Following frames may be wrong.
00 0164e9b4 006fbb82     0164e9e8 006fba3c 0164eaf8 ws7v6!SymbeditorFinalize+0x29f1
01 0164e9e0 00645ab6     00000113 00000001 00000000 ws7v6!Exceptionloginitialization$qqrv+0xd897e
02 0164e9f8 76192edb     000209da 00000113 00000001 ws7v6!Exceptionloginitialization$qqrv+0x228b2
eax=0164e9c4 ebx=7fde0010 ecx=051c0793 edx=08532da0 esi=006fbb70 edi=00000113
eip=0051e461 esp=0164e98c ebp=0164e9b4 iopl=0         nv up ei pl nz na pe cy
cs=0023  ss=002b  ds=002b  es=002b  fs=0053  gs=002b             efl=00000207
ws7v6!SymbeditorFinalize+0x29f1:
0051e461 e802c1fcff      call    ws7v6!DlgprjuFinalize+0xf86c (004ea568)
 # ChildEBP RetAddr      Args to Child              
WARNING: Stack unwind information not available. Following frames may be wrong.
00 0164e9b4 006fbb82     0164e9e8 006fba3c 0164eaf8 ws7v6!SymbeditorFinalize+0x2a16
01 0164e9e0 00645ab6     00000113 00000001 00000000 ws7v6!Exceptionloginitialization$qqrv+0xd897e
02 0164e9f8 76192edb     000209da 00000113 00000001 ws7v6!Exceptionloginitialization$qqrv+0x228b2
eax=00000000 ebx=7fde0010 ecx=00000047 edx=00c9f7bc esi=006fbb70 edi=00000113
eip=0051e486 esp=0164e98c ebp=0164e9b4 iopl=0         nv up ei pl nz na po nc
cs=0023  ss=002b  ds=002b  es=002b  fs=0053  gs=002b             efl=00000202
ws7v6!SymbeditorFinalize+0x2a16:
0051e486 81e101000080    and     ecx,80000001h
 # ChildEBP RetAddr      Args to Child              
WARNING: Stack unwind information not available. Following frames may be wrong.
00 0164e9b4 006fbb82     0164e9e8 006fba3c 0164eaf8 ws7v6!SymbeditorFinalize+0x29f1
01 0164e9e0 00645ab6     00000113 00000001 00000000 ws7v6!Exceptionloginitialization$qqrv+0xd897e
02 0164e9f8 76192edb     000209da 00000113 00000001 ws7v6!Exceptionloginitialization$qqrv+0x228b2
eax=0164e9c4 ebx=7fde0010 ecx=051c0793 edx=08532da0 esi=006fbb70 edi=00000113
eip=0051e461 esp=0164e98c ebp=0164e9b4 iopl=0         nv up ei pl nz na pe cy
cs=0023  ss=002b  ds=002b  es=002b  fs=0053  gs=002b             efl=00000207
ws7v6!SymbeditorFinalize+0x29f1:
0051e461 e802c1fcff      call    ws7v6!DlgprjuFinalize+0xf86c (004ea568)
 # ChildEBP RetAddr      Args to Child              
WARNING: Stack unwind information not available. Following frames may be wrong.
00 0164e9b4 006fbb82     0164e9e8 006fba3c 0164eaf8 ws7v6!SymbeditorFinalize+0x2a16
01 0164e9e0 00645ab6     00000113 00000001 00000000 ws7v6!Exceptionloginitialization$qqrv+0xd897e
02 0164e9f8 76192edb     000209da 00000113 00000001 ws7v6!Exceptionloginitialization$qqrv+0x228b2
eax=00000000 ebx=7fde0010 ecx=00000048 edx=00c9f7bc esi=006fbb70 edi=00000113
eip=0051e486 esp=0164e98c ebp=0164e9b4 iopl=0         nv up ei pl nz na po nc
cs=0023  ss=002b  ds=002b  es=002b  fs=0053  gs=002b             efl=00000202
ws7v6!SymbeditorFinalize+0x2a16:
0051e486 81e101000080    and     ecx,80000001h
 # ChildEBP RetAddr      Args to Child              
WARNING: Stack unwind information not available. Following frames may be wrong.
00 0164e9b4 006fbb82     0164e9e8 006fba3c 0164eaf8 ws7v6!SymbeditorFinalize+0x29f1
01 0164e9e0 00645ab6     00000113 00000001 00000000 ws7v6!Exceptionloginitialization$qqrv+0xd897e
02 0164e9f8 76192edb     000209da 00000113 00000001 ws7v6!Exceptionloginitialization$qqrv+0x228b2
eax=0164e9c4 ebx=7fde0010 ecx=051c0793 edx=08532da0 esi=006fbb70 edi=00000113
eip=0051e461 esp=0164e98c ebp=0164e9b4 iopl=0         nv up ei pl nz na po cy
cs=0023  ss=002b  ds=002b  es=002b  fs=0053  gs=002b             efl=00000203
ws7v6!SymbeditorFinalize+0x29f1:
0051e461 e802c1fcff      call    ws7v6!DlgprjuFinalize+0xf86c (004ea568)
 # ChildEBP RetAddr      Args to Child              
WARNING: Stack unwind information not available. Following frames may be wrong.
00 0164e9b4 006fbb82     0164e9e8 006fba3c 0164eaf8 ws7v6!SymbeditorFinalize+0x2a16
01 0164e9e0 00645ab6     00000113 00000001 00000000 ws7v6!Exceptionloginitialization$qqrv+0xd897e
02 0164e9f8 76192edb     000209da 00000113 00000001 ws7v6!Exceptionloginitialization$qqrv+0x228b2
eax=00000000 ebx=7fde0010 ecx=00000049 edx=00c9f7bc esi=006fbb70 edi=00000113
eip=0051e486 esp=0164e98c ebp=0164e9b4 iopl=0         nv up ei pl nz na po nc
cs=0023  ss=002b  ds=002b  es=002b  fs=0053  gs=002b             efl=00000202
ws7v6!SymbeditorFinalize+0x2a16:
0051e486 81e101000080    and     ecx,80000001h
 # ChildEBP RetAddr      Args to Child              
WARNING: Stack unwind information not available. Following frames may be wrong.
00 0164e9b4 006fbb82     0164e9e8 006fba3c 0164eaf8 ws7v6!SymbeditorFinalize+0x29f1
01 0164e9e0 00645ab6     00000113 00000001 00000000 ws7v6!Exceptionloginitialization$qqrv+0xd897e
02 0164e9f8 76192edb     000209da 00000113 00000001 ws7v6!Exceptionloginitialization$qqrv+0x228b2
eax=0164e9c4 ebx=7fde0010 ecx=051c0793 edx=08532da0 esi=006fbb70 edi=00000113
eip=0051e461 esp=0164e98c ebp=0164e9b4 iopl=0         nv up ei pl nz na po cy
cs=0023  ss=002b  ds=002b  es=002b  fs=0053  gs=002b             efl=00000203
ws7v6!SymbeditorFinalize+0x29f1:
0051e461 e802c1fcff      call    ws7v6!DlgprjuFinalize+0xf86c (004ea568)
 # ChildEBP RetAddr      Args to Child              
WARNING: Stack unwind information not available. Following frames may be wrong.
00 0164e9b4 006fbb82     0164e9e8 006fba3c 0164eaf8 ws7v6!SymbeditorFinalize+0x2a16
01 0164e9e0 00645ab6     00000113 00000001 00000000 ws7v6!Exceptionloginitialization$qqrv+0xd897e
02 0164e9f8 76192edb     000209da 00000113 00000001 ws7v6!Exceptionloginitialization$qqrv+0x228b2
eax=00000000 ebx=7fde0010 ecx=0000004a edx=00c9f7bc esi=006fbb70 edi=00000113
eip=0051e486 esp=0164e98c ebp=0164e9b4 iopl=0         nv up ei pl nz na po nc
cs=0023  ss=002b  ds=002b  es=002b  fs=0053  gs=002b             efl=00000202
ws7v6!SymbeditorFinalize+0x2a16:
0051e486 81e101000080    and     ecx,80000001h
 # ChildEBP RetAddr      Args to Child              
WARNING: Stack unwind information not available. Following frames may be wrong.
00 0164e9b4 006fbb82     0164e9e8 006fba3c 0164eaf8 ws7v6!SymbeditorFinalize+0x29f1
01 0164e9e0 00645ab6     00000113 00000001 00000000 ws7v6!Exceptionloginitialization$qqrv+0xd897e
02 0164e9f8 76192edb     000209da 00000113 00000001 ws7v6!Exceptionloginitialization$qqrv+0x228b2
eax=0164e9c4 ebx=7fde0010 ecx=051c0793 edx=08532da0 esi=006fbb70 edi=00000113
eip=0051e461 esp=0164e98c ebp=0164e9b4 iopl=0         nv up ei pl nz na pe cy
cs=0023  ss=002b  ds=002b  es=002b  fs=0053  gs=002b             efl=00000207
ws7v6!SymbeditorFinalize+0x29f1:
0051e461 e802c1fcff      call    ws7v6!DlgprjuFinalize+0xf86c (004ea568)
 # ChildEBP RetAddr      Args to Child              
WARNING: Stack unwind information not available. Following frames may be wrong.
00 0164e9b4 006fbb82     0164e9e8 006fba3c 0164eaf8 ws7v6!SymbeditorFinalize+0x2a16
01 0164e9e0 00645ab6     00000113 00000001 00000000 ws7v6!Exceptionloginitialization$qqrv+0xd897e
02 0164e9f8 76192edb     000209da 00000113 00000001 ws7v6!Exceptionloginitialization$qqrv+0x228b2
eax=00000000 ebx=7fde0010 ecx=0000004b edx=00c9f7bc esi=006fbb70 edi=00000113
eip=0051e486 esp=0164e98c ebp=0164e9b4 iopl=0         nv up ei pl nz na po nc
cs=0023  ss=002b  ds=002b  es=002b  fs=0053  gs=002b             efl=00000202
ws7v6!SymbeditorFinalize+0x2a16:
0051e486 81e101000080    and     ecx,80000001h
 # ChildEBP RetAddr      Args to Child              
WARNING: Stack unwind information not available. Following frames may be wrong.
00 0164e9b4 006fbb82     0164e9e8 006fba3c 0164eaf8 ws7v6!SymbeditorFinalize+0x29f1
01 0164e9e0 00645ab6     00000113 00000001 00000000 ws7v6!Exceptionloginitialization$qqrv+0xd897e
02 0164e9f8 76192edb     000209da 00000113 00000001 ws7v6!Exceptionloginitialization$qqrv+0x228b2
eax=0164e9c4 ebx=7fde0010 ecx=051c0793 edx=08532da0 esi=006fbb70 edi=00000113
eip=0051e461 esp=0164e98c ebp=0164e9b4 iopl=0         nv up ei pl nz na po cy
cs=0023  ss=002b  ds=002b  es=002b  fs=0053  gs=002b             efl=00000203
ws7v6!SymbeditorFinalize+0x29f1:
0051e461 e802c1fcff      call    ws7v6!DlgprjuFinalize+0xf86c (004ea568)
 # ChildEBP RetAddr      Args to Child              
WARNING: Stack unwind information not available. Following frames may be wrong.
00 0164e9b4 006fbb82     0164e9e8 006fba3c 0164eaf8 ws7v6!SymbeditorFinalize+0x2a16
01 0164e9e0 00645ab6     00000113 00000001 00000000 ws7v6!Exceptionloginitialization$qqrv+0xd897e
02 0164e9f8 76192edb     000209da 00000113 00000001 ws7v6!Exceptionloginitialization$qqrv+0x228b2
eax=00000000 ebx=7fde0010 ecx=0000004c edx=00c9f7bc esi=006fbb70 edi=00000113
eip=0051e486 esp=0164e98c ebp=0164e9b4 iopl=0         nv up ei pl nz na po nc
cs=0023  ss=002b  ds=002b  es=002b  fs=0053  gs=002b             efl=00000202
ws7v6!SymbeditorFinalize+0x2a16:
0051e486 81e101000080    and     ecx,80000001h
 # ChildEBP RetAddr      Args to Child              
WARNING: Stack unwind information not available. Following frames may be wrong.
00 0164e9b4 006fbb82     0164e9e8 006fba3c 0164eaf8 ws7v6!SymbeditorFinalize+0x29f1
01 0164e9e0 00645ab6     00000113 00000001 00000000 ws7v6!Exceptionloginitialization$qqrv+0xd897e
02 0164e9f8 76192edb     000209da 00000113 00000001 ws7v6!Exceptionloginitialization$qqrv+0x228b2
eax=0164e9c4 ebx=7fde0010 ecx=051c0793 edx=08532da0 esi=006fbb70 edi=00000113
eip=0051e461 esp=0164e98c ebp=0164e9b4 iopl=0         nv up ei pl nz na pe cy
cs=0023  ss=002b  ds=002b  es=002b  fs=0053  gs=002b             efl=00000207
ws7v6!SymbeditorFinalize+0x29f1:
0051e461 e802c1fcff      call    ws7v6!DlgprjuFinalize+0xf86c (004ea568)
 # ChildEBP RetAddr      Args to Child              
WARNING: Stack unwind information not available. Following frames may be wrong.
00 0164e9b4 006fbb82     0164e9e8 006fba3c 0164eaf8 ws7v6!SymbeditorFinalize+0x2a16
01 0164e9e0 00645ab6     00000113 00000001 00000000 ws7v6!Exceptionloginitialization$qqrv+0xd897e
02 0164e9f8 76192edb     000209da 00000113 00000001 ws7v6!Exceptionloginitialization$qqrv+0x228b2
eax=00000000 ebx=7fde0010 ecx=0000004d edx=00c9f7bc esi=006fbb70 edi=00000113
eip=0051e486 esp=0164e98c ebp=0164e9b4 iopl=0         nv up ei pl nz na po nc
cs=0023  ss=002b  ds=002b  es=002b  fs=0053  gs=002b             efl=00000202
ws7v6!SymbeditorFinalize+0x2a16:
0051e486 81e101000080    and     ecx,80000001h
 # ChildEBP RetAddr      Args to Child              
WARNING: Stack unwind information not available. Following frames may be wrong.
00 0164e9b4 006fbb82     0164e9e8 006fba3c 0164eaf8 ws7v6!SymbeditorFinalize+0x29f1
01 0164e9e0 00645ab6     00000113 00000001 00000000 ws7v6!Exceptionloginitialization$qqrv+0xd897e
02 0164e9f8 76192edb     000209da 00000113 00000001 ws7v6!Exceptionloginitialization$qqrv+0x228b2
eax=0164e9c4 ebx=7fde0010 ecx=051c0793 edx=08532da0 esi=006fbb70 edi=00000113
eip=0051e461 esp=0164e98c ebp=0164e9b4 iopl=0         nv up ei pl nz na pe cy
cs=0023  ss=002b  ds=002b  es=002b  fs=0053  gs=002b             efl=00000207
ws7v6!SymbeditorFinalize+0x29f1:
0051e461 e802c1fcff      call    ws7v6!DlgprjuFinalize+0xf86c (004ea568)
 # ChildEBP RetAddr      Args to Child              
WARNING: Stack unwind information not available. Following frames may be wrong.
00 0164e9b4 006fbb82     0164e9e8 006fba3c 0164eaf8 ws7v6!SymbeditorFinalize+0x2a16
01 0164e9e0 00645ab6     00000113 00000001 00000000 ws7v6!Exceptionloginitialization$qqrv+0xd897e
02 0164e9f8 76192edb     000209da 00000113 00000001 ws7v6!Exceptionloginitialization$qqrv+0x228b2
eax=00000000 ebx=7fde0010 ecx=0000004e edx=00c9f7bc esi=006fbb70 edi=00000113
eip=0051e486 esp=0164e98c ebp=0164e9b4 iopl=0         nv up ei pl nz na po nc
cs=0023  ss=002b  ds=002b  es=002b  fs=0053  gs=002b             efl=00000202
ws7v6!SymbeditorFinalize+0x2a16:
0051e486 81e101000080    and     ecx,80000001h
 # ChildEBP RetAddr      Args to Child              
WARNING: Stack unwind information not available. Following frames may be wrong.
00 0164e9b4 006fbb82     0164e9e8 006fba3c 0164eaf8 ws7v6!SymbeditorFinalize+0x29f1
01 0164e9e0 00645ab6     00000113 00000001 00000000 ws7v6!Exceptionloginitialization$qqrv+0xd897e
02 0164e9f8 76192edb     000209da 00000113 00000001 ws7v6!Exceptionloginitialization$qqrv+0x228b2
eax=0164e9c4 ebx=7fde0010 ecx=051c0793 edx=08532da0 esi=006fbb70 edi=00000113
eip=0051e461 esp=0164e98c ebp=0164e9b4 iopl=0         nv up ei pl nz na po cy
cs=0023  ss=002b  ds=002b  es=002b  fs=0053  gs=002b             efl=00000203
ws7v6!SymbeditorFinalize+0x29f1:
0051e461 e802c1fcff      call    ws7v6!DlgprjuFinalize+0xf86c (004ea568)
 # ChildEBP RetAddr      Args to Child              
WARNING: Stack unwind information not available. Following frames may be wrong.
00 0164e9b4 006fbb82     0164e9e8 006fba3c 0164eaf8 ws7v6!SymbeditorFinalize+0x2a16
01 0164e9e0 00645ab6     00000113 00000001 00000000 ws7v6!Exceptionloginitialization$qqrv+0xd897e
02 0164e9f8 76192edb     000209da 00000113 00000001 ws7v6!Exceptionloginitialization$qqrv+0x228b2
eax=00000000 ebx=7fde0010 ecx=0000004f edx=00c9f7bc esi=006fbb70 edi=00000113
eip=0051e486 esp=0164e98c ebp=0164e9b4 iopl=0         nv up ei pl nz na po nc
cs=0023  ss=002b  ds=002b  es=002b  fs=0053  gs=002b             efl=00000202
ws7v6!SymbeditorFinalize+0x2a16:
0051e486 81e101000080    and     ecx,80000001h
 # ChildEBP RetAddr      Args to Child              
WARNING: Stack unwind information not available. Following frames may be wrong.
00 0164e9b4 006fbb82     0164e9e8 006fba3c 0164eaf8 ws7v6!SymbeditorFinalize+0x29f1
01 0164e9e0 00645ab6     00000113 00000001 00000000 ws7v6!Exceptionloginitialization$qqrv+0xd897e
02 0164e9f8 76192edb     000209da 00000113 00000001 ws7v6!Exceptionloginitialization$qqrv+0x228b2
eax=0164e9c4 ebx=7fde0010 ecx=051c0793 edx=08532da0 esi=006fbb70 edi=00000113
eip=0051e461 esp=0164e98c ebp=0164e9b4 iopl=0         nv up ei pl nz ac pe cy
cs=0023  ss=002b  ds=002b  es=002b  fs=0053  gs=002b             efl=00000217
ws7v6!SymbeditorFinalize+0x29f1:
0051e461 e802c1fcff      call    ws7v6!DlgprjuFinalize+0xf86c (004ea568)
 # ChildEBP RetAddr      Args to Child              
WARNING: Stack unwind information not available. Following frames may be wrong.
00 0164e9b4 006fbb82     0164e9e8 006fba3c 0164eaf8 ws7v6!SymbeditorFinalize+0x2a16
01 0164e9e0 00645ab6     00000113 00000001 00000000 ws7v6!Exceptionloginitialization$qqrv+0xd897e
02 0164e9f8 76192edb     000209da 00000113 00000001 ws7v6!Exceptionloginitialization$qqrv+0x228b2
eax=00000000 ebx=7fde0010 ecx=00000050 edx=00c9f7bc esi=006fbb70 edi=00000113
eip=0051e486 esp=0164e98c ebp=0164e9b4 iopl=0         nv up ei pl nz na po nc
cs=0023  ss=002b  ds=002b  es=002b  fs=0053  gs=002b             efl=00000202
ws7v6!SymbeditorFinalize+0x2a16:
0051e486 81e101000080    and     ecx,80000001h
 # ChildEBP RetAddr      Args to Child              
WARNING: Stack unwind information not available. Following frames may be wrong.
00 0164e9b4 006fbb82     0164e9e8 006fba3c 0164eaf8 ws7v6!SymbeditorFinalize+0x29f1
01 0164e9e0 00645ab6     00000113 00000001 00000000 ws7v6!Exceptionloginitialization$qqrv+0xd897e
02 0164e9f8 76192edb     000209da 00000113 00000001 ws7v6!Exceptionloginitialization$qqrv+0x228b2
eax=0164e9c4 ebx=7fde0010 ecx=051c0793 edx=08532da0 esi=006fbb70 edi=00000113
eip=0051e461 esp=0164e98c ebp=0164e9b4 iopl=0         nv up ei pl nz na po cy
cs=0023  ss=002b  ds=002b  es=002b  fs=0053  gs=002b             efl=00000203
ws7v6!SymbeditorFinalize+0x29f1:
0051e461 e802c1fcff      call    ws7v6!DlgprjuFinalize+0xf86c (004ea568)
 # ChildEBP RetAddr      Args to Child              
WARNING: Stack unwind information not available. Following frames may be wrong.
00 0164e9b4 006fbb82     0164e9e8 006fba3c 0164eaf8 ws7v6!SymbeditorFinalize+0x2a16
01 0164e9e0 00645ab6     00000113 00000001 00000000 ws7v6!Exceptionloginitialization$qqrv+0xd897e
02 0164e9f8 76192edb     000209da 00000113 00000001 ws7v6!Exceptionloginitialization$qqrv+0x228b2
eax=00000000 ebx=7fde0010 ecx=00000051 edx=00c9f7bc esi=006fbb70 edi=00000113
eip=0051e486 esp=0164e98c ebp=0164e9b4 iopl=0         nv up ei pl nz na po nc
cs=0023  ss=002b  ds=002b  es=002b  fs=0053  gs=002b             efl=00000202
ws7v6!SymbeditorFinalize+0x2a16:
0051e486 81e101000080    and     ecx,80000001h
 # ChildEBP RetAddr      Args to Child              
WARNING: Stack unwind information not available. Following frames may be wrong.
00 0164e9b4 006fbb82     0164e9e8 006fba3c 0164eaf8 ws7v6!SymbeditorFinalize+0x29f1
01 0164e9e0 00645ab6     00000113 00000001 00000000 ws7v6!Exceptionloginitialization$qqrv+0xd897e
02 0164e9f8 76192edb     000209da 00000113 00000001 ws7v6!Exceptionloginitialization$qqrv+0x228b2
eax=0164e9c4 ebx=7fde0010 ecx=051c0793 edx=08532da0 esi=006fbb70 edi=00000113
eip=0051e461 esp=0164e98c ebp=0164e9b4 iopl=0         nv up ei pl nz na po cy
cs=0023  ss=002b  ds=002b  es=002b  fs=0053  gs=002b             efl=00000203
ws7v6!SymbeditorFinalize+0x29f1:
0051e461 e802c1fcff      call    ws7v6!DlgprjuFinalize+0xf86c (004ea568)
 # ChildEBP RetAddr      Args to Child              
WARNING: Stack unwind information not available. Following frames may be wrong.
00 0164e9b4 006fbb82     0164e9e8 006fba3c 0164eaf8 ws7v6!SymbeditorFinalize+0x2a16
01 0164e9e0 00645ab6     00000113 00000001 00000000 ws7v6!Exceptionloginitialization$qqrv+0xd897e
02 0164e9f8 76192edb     000209da 00000113 00000001 ws7v6!Exceptionloginitialization$qqrv+0x228b2
eax=00000000 ebx=7fde0010 ecx=00000052 edx=00c9f7bc esi=006fbb70 edi=00000113
eip=0051e486 esp=0164e98c ebp=0164e9b4 iopl=0         nv up ei pl nz na po nc
cs=0023  ss=002b  ds=002b  es=002b  fs=0053  gs=002b             efl=00000202
ws7v6!SymbeditorFinalize+0x2a16:
0051e486 81e101000080    and     ecx,80000001h
 # ChildEBP RetAddr      Args to Child              
WARNING: Stack unwind information not available. Following frames may be wrong.
00 0164e9b4 006fbb82     0164e9e8 006fba3c 0164eaf8 ws7v6!SymbeditorFinalize+0x29f1
01 0164e9e0 00645ab6     00000113 00000001 00000000 ws7v6!Exceptionloginitialization$qqrv+0xd897e
02 0164e9f8 76192edb     000209da 00000113 00000001 ws7v6!Exceptionloginitialization$qqrv+0x228b2
eax=0164e9c4 ebx=7fde0010 ecx=051c0793 edx=08532da0 esi=006fbb70 edi=00000113
eip=0051e461 esp=0164e98c ebp=0164e9b4 iopl=0         nv up ei pl nz na pe cy
cs=0023  ss=002b  ds=002b  es=002b  fs=0053  gs=002b             efl=00000207
ws7v6!SymbeditorFinalize+0x29f1:
0051e461 e802c1fcff      call    ws7v6!DlgprjuFinalize+0xf86c (004ea568)
 # ChildEBP RetAddr      Args to Child              
WARNING: Stack unwind information not available. Following frames may be wrong.
00 0164e9b4 006fbb82     0164e9e8 006fba3c 0164eaf8 ws7v6!SymbeditorFinalize+0x2a16
01 0164e9e0 00645ab6     00000113 00000001 00000000 ws7v6!Exceptionloginitialization$qqrv+0xd897e
02 0164e9f8 76192edb     000209da 00000113 00000001 ws7v6!Exceptionloginitialization$qqrv+0x228b2
eax=00000000 ebx=7fde0010 ecx=00000053 edx=00c9f7bc esi=006fbb70 edi=00000113
eip=0051e486 esp=0164e98c ebp=0164e9b4 iopl=0         nv up ei pl nz na po nc
cs=0023  ss=002b  ds=002b  es=002b  fs=0053  gs=002b             efl=00000202
ws7v6!SymbeditorFinalize+0x2a16:
0051e486 81e101000080    and     ecx,80000001h
 # ChildEBP RetAddr      Args to Child              
WARNING: Stack unwind information not available. Following frames may be wrong.
00 0164e9b4 006fbb82     0164e9e8 006fba3c 0164eaf8 ws7v6!SymbeditorFinalize+0x29f1
01 0164e9e0 00645ab6     00000113 00000001 00000000 ws7v6!Exceptionloginitialization$qqrv+0xd897e
02 0164e9f8 76192edb     000209da 00000113 00000001 ws7v6!Exceptionloginitialization$qqrv+0x228b2
eax=0164e9c4 ebx=7fde0010 ecx=051c0793 edx=08532da0 esi=006fbb70 edi=00000113
eip=0051e461 esp=0164e98c ebp=0164e9b4 iopl=0         nv up ei pl nz na po cy
cs=0023  ss=002b  ds=002b  es=002b  fs=0053  gs=002b             efl=00000203
ws7v6!SymbeditorFinalize+0x29f1:
0051e461 e802c1fcff      call    ws7v6!DlgprjuFinalize+0xf86c (004ea568)
 # ChildEBP RetAddr      Args to Child              
WARNING: Stack unwind information not available. Following frames may be wrong.
00 0164e9b4 006fbb82     0164e9e8 006fba3c 0164eaf8 ws7v6!SymbeditorFinalize+0x2a16
01 0164e9e0 00645ab6     00000113 00000001 00000000 ws7v6!Exceptionloginitialization$qqrv+0xd897e
02 0164e9f8 76192edb     000209da 00000113 00000001 ws7v6!Exceptionloginitialization$qqrv+0x228b2
eax=00000000 ebx=7fde0010 ecx=00000054 edx=00c9f7bc esi=006fbb70 edi=00000113
eip=0051e486 esp=0164e98c ebp=0164e9b4 iopl=0         nv up ei pl nz na po nc
cs=0023  ss=002b  ds=002b  es=002b  fs=0053  gs=002b             efl=00000202
ws7v6!SymbeditorFinalize+0x2a16:
0051e486 81e101000080    and     ecx,80000001h
 # ChildEBP RetAddr      Args to Child              
WARNING: Stack unwind information not available. Following frames may be wrong.
00 0164e9b4 006fbb82     0164e9e8 006fba3c 0164eaf8 ws7v6!SymbeditorFinalize+0x29f1
01 0164e9e0 00645ab6     00000113 00000001 00000000 ws7v6!Exceptionloginitialization$qqrv+0xd897e
02 0164e9f8 76192edb     000209da 00000113 00000001 ws7v6!Exceptionloginitialization$qqrv+0x228b2
eax=0164e9c4 ebx=7fde0010 ecx=051c0793 edx=08532da0 esi=006fbb70 edi=00000113
eip=0051e461 esp=0164e98c ebp=0164e9b4 iopl=0         nv up ei pl nz na pe cy
cs=0023  ss=002b  ds=002b  es=002b  fs=0053  gs=002b             efl=00000207
ws7v6!SymbeditorFinalize+0x29f1:
0051e461 e802c1fcff      call    ws7v6!DlgprjuFinalize+0xf86c (004ea568)
 # ChildEBP RetAddr      Args to Child              
WARNING: Stack unwind information not available. Following frames may be wrong.
00 0164e9b4 006fbb82     0164e9e8 006fba3c 0164eaf8 ws7v6!SymbeditorFinalize+0x2a16
01 0164e9e0 00645ab6     00000113 00000001 00000000 ws7v6!Exceptionloginitialization$qqrv+0xd897e
02 0164e9f8 76192edb     000209da 00000113 00000001 ws7v6!Exceptionloginitialization$qqrv+0x228b2
eax=00000000 ebx=7fde0010 ecx=00000055 edx=00c9f7bc esi=006fbb70 edi=00000113
eip=0051e486 esp=0164e98c ebp=0164e9b4 iopl=0         nv up ei pl nz na po nc
cs=0023  ss=002b  ds=002b  es=002b  fs=0053  gs=002b             efl=00000202
ws7v6!SymbeditorFinalize+0x2a16:
0051e486 81e101000080    and     ecx,80000001h
 # ChildEBP RetAddr      Args to Child              
WARNING: Stack unwind information not available. Following frames may be wrong.
00 0164e9b4 006fbb82     0164e9e8 006fba3c 0164eaf8 ws7v6!SymbeditorFinalize+0x29f1
01 0164e9e0 00645ab6     00000113 00000001 00000000 ws7v6!Exceptionloginitialization$qqrv+0xd897e
02 0164e9f8 76192edb     000209da 00000113 00000001 ws7v6!Exceptionloginitialization$qqrv+0x228b2
eax=0164e9c4 ebx=7fde0010 ecx=051c0793 edx=08532da0 esi=006fbb70 edi=00000113
eip=0051e461 esp=0164e98c ebp=0164e9b4 iopl=0         nv up ei pl nz na pe cy
cs=0023  ss=002b  ds=002b  es=002b  fs=0053  gs=002b             efl=00000207
ws7v6!SymbeditorFinalize+0x29f1:
0051e461 e802c1fcff      call    ws7v6!DlgprjuFinalize+0xf86c (004ea568)
 # ChildEBP RetAddr      Args to Child              
WARNING: Stack unwind information not available. Following frames may be wrong.
00 0164e9b4 006fbb82     0164e9e8 006fba3c 0164eaf8 ws7v6!SymbeditorFinalize+0x2a16
01 0164e9e0 00645ab6     00000113 00000001 00000000 ws7v6!Exceptionloginitialization$qqrv+0xd897e
02 0164e9f8 76192edb     000209da 00000113 00000001 ws7v6!Exceptionloginitialization$qqrv+0x228b2
eax=00000000 ebx=7fde0010 ecx=00000056 edx=00c9f7bc esi=006fbb70 edi=00000113
eip=0051e486 esp=0164e98c ebp=0164e9b4 iopl=0         nv up ei pl nz na po nc
cs=0023  ss=002b  ds=002b  es=002b  fs=0053  gs=002b             efl=00000202
ws7v6!SymbeditorFinalize+0x2a16:
0051e486 81e101000080    and     ecx,80000001h
 # ChildEBP RetAddr      Args to Child              
WARNING: Stack unwind information not available. Following frames may be wrong.
00 0164e9b4 006fbb82     0164e9e8 006fba3c 0164eaf8 ws7v6!SymbeditorFinalize+0x29f1
01 0164e9e0 00645ab6     00000113 00000001 00000000 ws7v6!Exceptionloginitialization$qqrv+0xd897e
02 0164e9f8 76192edb     000209da 00000113 00000001 ws7v6!Exceptionloginitialization$qqrv+0x228b2
eax=0164e9c4 ebx=7fde0010 ecx=051c0793 edx=08532da0 esi=006fbb70 edi=00000113
eip=0051e461 esp=0164e98c ebp=0164e9b4 iopl=0         nv up ei pl nz na po cy
cs=0023  ss=002b  ds=002b  es=002b  fs=0053  gs=002b             efl=00000203
ws7v6!SymbeditorFinalize+0x29f1:
0051e461 e802c1fcff      call    ws7v6!DlgprjuFinalize+0xf86c (004ea568)
 # ChildEBP RetAddr      Args to Child              
WARNING: Stack unwind information not available. Following frames may be wrong.
00 0164e9b4 006fbb82     0164e9e8 006fba3c 0164eaf8 ws7v6!SymbeditorFinalize+0x2a16
01 0164e9e0 00645ab6     00000113 00000001 00000000 ws7v6!Exceptionloginitialization$qqrv+0xd897e
02 0164e9f8 76192edb     000209da 00000113 00000001 ws7v6!Exceptionloginitialization$qqrv+0x228b2
eax=00000000 ebx=7fde0010 ecx=00000057 edx=00c9f7bc esi=006fbb70 edi=00000113
eip=0051e486 esp=0164e98c ebp=0164e9b4 iopl=0         nv up ei pl nz na po nc
cs=0023  ss=002b  ds=002b  es=002b  fs=0053  gs=002b             efl=00000202
ws7v6!SymbeditorFinalize+0x2a16:
0051e486 81e101000080    and     ecx,80000001h
 # ChildEBP RetAddr      Args to Child              
WARNING: Stack unwind information not available. Following frames may be wrong.
00 0164e9b4 006fbb82     0164e9e8 006fba3c 0164eaf8 ws7v6!SymbeditorFinalize+0x29f1
01 0164e9e0 00645ab6     00000113 00000001 00000000 ws7v6!Exceptionloginitialization$qqrv+0xd897e
02 0164e9f8 76192edb     000209da 00000113 00000001 ws7v6!Exceptionloginitialization$qqrv+0x228b2
eax=0164e9c4 ebx=7fde0010 ecx=051c0793 edx=08532da0 esi=006fbb70 edi=00000113
eip=0051e461 esp=0164e98c ebp=0164e9b4 iopl=0         nv up ei pl nz na po cy
cs=0023  ss=002b  ds=002b  es=002b  fs=0053  gs=002b             efl=00000203
ws7v6!SymbeditorFinalize+0x29f1:
0051e461 e802c1fcff      call    ws7v6!DlgprjuFinalize+0xf86c (004ea568)
 # ChildEBP RetAddr      Args to Child              
WARNING: Stack unwind information not available. Following frames may be wrong.
00 0164e9b4 006fbb82     0164e9e8 006fba3c 0164eaf8 ws7v6!SymbeditorFinalize+0x2a16
01 0164e9e0 00645ab6     00000113 00000001 00000000 ws7v6!Exceptionloginitialization$qqrv+0xd897e
02 0164e9f8 76192edb     000209da 00000113 00000001 ws7v6!Exceptionloginitialization$qqrv+0x228b2
eax=00000000 ebx=7fde0010 ecx=00000058 edx=00c9f7bc esi=006fbb70 edi=00000113
eip=0051e486 esp=0164e98c ebp=0164e9b4 iopl=0         nv up ei pl nz na po nc
cs=0023  ss=002b  ds=002b  es=002b  fs=0053  gs=002b             efl=00000202
ws7v6!SymbeditorFinalize+0x2a16:
0051e486 81e101000080    and     ecx,80000001h
 # ChildEBP RetAddr      Args to Child              
WARNING: Stack unwind information not available. Following frames may be wrong.
00 0164e9b4 006fbb82     0164e9e8 006fba3c 0164eaf8 ws7v6!SymbeditorFinalize+0x29f1
01 0164e9e0 00645ab6     00000113 00000001 00000000 ws7v6!Exceptionloginitialization$qqrv+0xd897e
02 0164e9f8 76192edb     000209da 00000113 00000001 ws7v6!Exceptionloginitialization$qqrv+0x228b2
eax=0164e9c4 ebx=7fde0010 ecx=051c0793 edx=08532da0 esi=006fbb70 edi=00000113
eip=0051e461 esp=0164e98c ebp=0164e9b4 iopl=0         nv up ei pl nz na pe cy
cs=0023  ss=002b  ds=002b  es=002b  fs=0053  gs=002b             efl=00000207
ws7v6!SymbeditorFinalize+0x29f1:
0051e461 e802c1fcff      call    ws7v6!DlgprjuFinalize+0xf86c (004ea568)
 # ChildEBP RetAddr      Args to Child              
WARNING: Stack unwind information not available. Following frames may be wrong.
00 0164e9b4 006fbb82     0164e9e8 006fba3c 0164eaf8 ws7v6!SymbeditorFinalize+0x2a16
01 0164e9e0 00645ab6     00000113 00000001 00000000 ws7v6!Exceptionloginitialization$qqrv+0xd897e
02 0164e9f8 76192edb     000209da 00000113 00000001 ws7v6!Exceptionloginitialization$qqrv+0x228b2
eax=00000000 ebx=7fde0010 ecx=00000059 edx=00c9f7bc esi=006fbb70 edi=00000113
eip=0051e486 esp=0164e98c ebp=0164e9b4 iopl=0         nv up ei pl nz na po nc
cs=0023  ss=002b  ds=002b  es=002b  fs=0053  gs=002b             efl=00000202
ws7v6!SymbeditorFinalize+0x2a16:
0051e486 81e101000080    and     ecx,80000001h
 # ChildEBP RetAddr      Args to Child              
WARNING: Stack unwind information not available. Following frames may be wrong.
00 0164e9b4 006fbb82     0164e9e8 006fba3c 0164eaf8 ws7v6!SymbeditorFinalize+0x29f1
01 0164e9e0 00645ab6     00000113 00000001 00000000 ws7v6!Exceptionloginitialization$qqrv+0xd897e
02 0164e9f8 76192edb     000209da 00000113 00000001 ws7v6!Exceptionloginitialization$qqrv+0x228b2
eax=0164e9c4 ebx=7fde0010 ecx=051c0793 edx=08532da0 esi=006fbb70 edi=00000113
eip=0051e461 esp=0164e98c ebp=0164e9b4 iopl=0         nv up ei pl nz na pe cy
cs=0023  ss=002b  ds=002b  es=002b  fs=0053  gs=002b             efl=00000207
ws7v6!SymbeditorFinalize+0x29f1:
0051e461 e802c1fcff      call    ws7v6!DlgprjuFinalize+0xf86c (004ea568)
 # ChildEBP RetAddr      Args to Child              
WARNING: Stack unwind information not available. Following frames may be wrong.
00 0164e9b4 006fbb82     0164e9e8 006fba3c 0164eaf8 ws7v6!SymbeditorFinalize+0x2a16
01 0164e9e0 00645ab6     00000113 00000001 00000000 ws7v6!Exceptionloginitialization$qqrv+0xd897e
02 0164e9f8 76192edb     000209da 00000113 00000001 ws7v6!Exceptionloginitialization$qqrv+0x228b2
eax=00000000 ebx=7fde0010 ecx=0000005a edx=00c9f7bc esi=006fbb70 edi=00000113
eip=0051e486 esp=0164e98c ebp=0164e9b4 iopl=0         nv up ei pl nz na po nc
cs=0023  ss=002b  ds=002b  es=002b  fs=0053  gs=002b             efl=00000202
ws7v6!SymbeditorFinalize+0x2a16:
0051e486 81e101000080    and     ecx,80000001h
 # ChildEBP RetAddr      Args to Child              
WARNING: Stack unwind information not available. Following frames may be wrong.
00 0164e9b4 006fbb82     0164e9e8 006fba3c 0164eaf8 ws7v6!SymbeditorFinalize+0x29f1
01 0164e9e0 00645ab6     00000113 00000001 00000000 ws7v6!Exceptionloginitialization$qqrv+0xd897e
02 0164e9f8 76192edb     000209da 00000113 00000001 ws7v6!Exceptionloginitialization$qqrv+0x228b2
eax=0164e9c4 ebx=7fde0010 ecx=051c0793 edx=08532da0 esi=006fbb70 edi=00000113
eip=0051e461 esp=0164e98c ebp=0164e9b4 iopl=0         nv up ei pl nz na po cy
cs=0023  ss=002b  ds=002b  es=002b  fs=0053  gs=002b             efl=00000203
ws7v6!SymbeditorFinalize+0x29f1:
0051e461 e802c1fcff      call    ws7v6!DlgprjuFinalize+0xf86c (004ea568)
 # ChildEBP RetAddr      Args to Child              
WARNING: Stack unwind information not available. Following frames may be wrong.
00 0164e9b4 006fbb82     0164e9e8 006fba3c 0164eaf8 ws7v6!SymbeditorFinalize+0x2a16
01 0164e9e0 00645ab6     00000113 00000001 00000000 ws7v6!Exceptionloginitialization$qqrv+0xd897e
02 0164e9f8 76192edb     000209da 00000113 00000001 ws7v6!Exceptionloginitialization$qqrv+0x228b2
eax=00000000 ebx=7fde0010 ecx=0000005b edx=00c9f7bc esi=006fbb70 edi=00000113
eip=0051e486 esp=0164e98c ebp=0164e9b4 iopl=0         nv up ei pl nz na po nc
cs=0023  ss=002b  ds=002b  es=002b  fs=0053  gs=002b             efl=00000202
ws7v6!SymbeditorFinalize+0x2a16:
0051e486 81e101000080    and     ecx,80000001h
 # ChildEBP RetAddr      Args to Child              
WARNING: Stack unwind information not available. Following frames may be wrong.
00 0164e9b4 006fbb82     0164e9e8 006fba3c 0164eaf8 ws7v6!SymbeditorFinalize+0x29f1
01 0164e9e0 00645ab6     00000113 00000001 00000000 ws7v6!Exceptionloginitialization$qqrv+0xd897e
02 0164e9f8 76192edb     000209da 00000113 00000001 ws7v6!Exceptionloginitialization$qqrv+0x228b2
eax=0164e9c4 ebx=7fde0010 ecx=051c0793 edx=08532da0 esi=006fbb70 edi=00000113
eip=0051e461 esp=0164e98c ebp=0164e9b4 iopl=0         nv up ei pl nz na pe cy
cs=0023  ss=002b  ds=002b  es=002b  fs=0053  gs=002b             efl=00000207
ws7v6!SymbeditorFinalize+0x29f1:
0051e461 e802c1fcff      call    ws7v6!DlgprjuFinalize+0xf86c (004ea568)
 # ChildEBP RetAddr      Args to Child              
WARNING: Stack unwind information not available. Following frames may be wrong.
00 0164e9b4 006fbb82     0164e9e8 006fba3c 0164eaf8 ws7v6!SymbeditorFinalize+0x2a16
01 0164e9e0 00645ab6     00000113 00000001 00000000 ws7v6!Exceptionloginitialization$qqrv+0xd897e
02 0164e9f8 76192edb     000209da 00000113 00000001 ws7v6!Exceptionloginitialization$qqrv+0x228b2
eax=00000000 ebx=7fde0010 ecx=0000005c edx=00c9f7bc esi=006fbb70 edi=00000113
eip=0051e486 esp=0164e98c ebp=0164e9b4 iopl=0         nv up ei pl nz na po nc
cs=0023  ss=002b  ds=002b  es=002b  fs=0053  gs=002b             efl=00000202
ws7v6!SymbeditorFinalize+0x2a16:
0051e486 81e101000080    and     ecx,80000001h
 # ChildEBP RetAddr      Args to Child              
WARNING: Stack unwind information not available. Following frames may be wrong.
00 0164e9b4 006fbb82     0164e9e8 006fba3c 0164eaf8 ws7v6!SymbeditorFinalize+0x29f1
01 0164e9e0 00645ab6     00000113 00000001 00000000 ws7v6!Exceptionloginitialization$qqrv+0xd897e
02 0164e9f8 76192edb     000209da 00000113 00000001 ws7v6!Exceptionloginitialization$qqrv+0x228b2
eax=0164e9c4 ebx=7fde0010 ecx=051c0793 edx=08532da0 esi=006fbb70 edi=00000113
eip=0051e461 esp=0164e98c ebp=0164e9b4 iopl=0         nv up ei pl nz na po cy
cs=0023  ss=002b  ds=002b  es=002b  fs=0053  gs=002b             efl=00000203
ws7v6!SymbeditorFinalize+0x29f1:
0051e461 e802c1fcff      call    ws7v6!DlgprjuFinalize+0xf86c (004ea568)
 # ChildEBP RetAddr      Args to Child              
WARNING: Stack unwind information not available. Following frames may be wrong.
00 0164e9b4 006fbb82     0164e9e8 006fba3c 0164eaf8 ws7v6!SymbeditorFinalize+0x2a16
01 0164e9e0 00645ab6     00000113 00000001 00000000 ws7v6!Exceptionloginitialization$qqrv+0xd897e
02 0164e9f8 76192edb     000209da 00000113 00000001 ws7v6!Exceptionloginitialization$qqrv+0x228b2
eax=00000000 ebx=7fde0010 ecx=0000005d edx=00c9f7bc esi=006fbb70 edi=00000113
eip=0051e486 esp=0164e98c ebp=0164e9b4 iopl=0         nv up ei pl nz na po nc
cs=0023  ss=002b  ds=002b  es=002b  fs=0053  gs=002b             efl=00000202
ws7v6!SymbeditorFinalize+0x2a16:
0051e486 81e101000080    and     ecx,80000001h
 # ChildEBP RetAddr      Args to Child              
WARNING: Stack unwind information not available. Following frames may be wrong.
00 0164e9b4 006fbb82     0164e9e8 006fba3c 0164eaf8 ws7v6!SymbeditorFinalize+0x29f1
01 0164e9e0 00645ab6     00000113 00000001 00000000 ws7v6!Exceptionloginitialization$qqrv+0xd897e
02 0164e9f8 76192edb     000209da 00000113 00000001 ws7v6!Exceptionloginitialization$qqrv+0x228b2
eax=0164e9c4 ebx=7fde0010 ecx=051c0793 edx=08532da0 esi=006fbb70 edi=00000113
eip=0051e461 esp=0164e98c ebp=0164e9b4 iopl=0         nv up ei pl nz na po cy
cs=0023  ss=002b  ds=002b  es=002b  fs=0053  gs=002b             efl=00000203
ws7v6!SymbeditorFinalize+0x29f1:
0051e461 e802c1fcff      call    ws7v6!DlgprjuFinalize+0xf86c (004ea568)
 # ChildEBP RetAddr      Args to Child              
WARNING: Stack unwind information not available. Following frames may be wrong.
00 0164e9b4 006fbb82     0164e9e8 006fba3c 0164eaf8 ws7v6!SymbeditorFinalize+0x2a16
01 0164e9e0 00645ab6     00000113 00000001 00000000 ws7v6!Exceptionloginitialization$qqrv+0xd897e
02 0164e9f8 76192edb     000209da 00000113 00000001 ws7v6!Exceptionloginitialization$qqrv+0x228b2
eax=00000000 ebx=7fde0010 ecx=0000005e edx=00c9f7bc esi=006fbb70 edi=00000113
eip=0051e486 esp=0164e98c ebp=0164e9b4 iopl=0         nv up ei pl nz na po nc
cs=0023  ss=002b  ds=002b  es=002b  fs=0053  gs=002b             efl=00000202
ws7v6!SymbeditorFinalize+0x2a16:
0051e486 81e101000080    and     ecx,80000001h
 # ChildEBP RetAddr      Args to Child              
WARNING: Stack unwind information not available. Following frames may be wrong.
00 0164e9b4 006fbb82     0164e9e8 006fba3c 0164eaf8 ws7v6!SymbeditorFinalize+0x29f1
01 0164e9e0 00645ab6     00000113 00000001 00000000 ws7v6!Exceptionloginitialization$qqrv+0xd897e
02 0164e9f8 76192edb     000209da 00000113 00000001 ws7v6!Exceptionloginitialization$qqrv+0x228b2
eax=0164e9c4 ebx=7fde0010 ecx=051c0793 edx=08532da0 esi=006fbb70 edi=00000113
eip=0051e461 esp=0164e98c ebp=0164e9b4 iopl=0         nv up ei pl nz na pe cy
cs=0023  ss=002b  ds=002b  es=002b  fs=0053  gs=002b             efl=00000207
ws7v6!SymbeditorFinalize+0x29f1:
0051e461 e802c1fcff      call    ws7v6!DlgprjuFinalize+0xf86c (004ea568)
 # ChildEBP RetAddr      Args to Child              
WARNING: Stack unwind information not available. Following frames may be wrong.
00 0164e9b4 006fbb82     0164e9e8 006fba3c 0164eaf8 ws7v6!SymbeditorFinalize+0x2a16
01 0164e9e0 00645ab6     00000113 00000001 00000000 ws7v6!Exceptionloginitialization$qqrv+0xd897e
02 0164e9f8 76192edb     000209da 00000113 00000001 ws7v6!Exceptionloginitialization$qqrv+0x228b2
eax=00000000 ebx=7fde0010 ecx=0000005f edx=00c9f7bc esi=006fbb70 edi=00000113
eip=0051e486 esp=0164e98c ebp=0164e9b4 iopl=0         nv up ei pl nz na po nc
cs=0023  ss=002b  ds=002b  es=002b  fs=0053  gs=002b             efl=00000202
ws7v6!SymbeditorFinalize+0x2a16:
0051e486 81e101000080    and     ecx,80000001h
 # ChildEBP RetAddr      Args to Child              
WARNING: Stack unwind information not available. Following frames may be wrong.
00 0164e9b4 006fbb82     0164e9e8 006fba3c 0164eaf8 ws7v6!SymbeditorFinalize+0x29f1
01 0164e9e0 00645ab6     00000113 00000001 00000000 ws7v6!Exceptionloginitialization$qqrv+0xd897e
02 0164e9f8 76192edb     000209da 00000113 00000001 ws7v6!Exceptionloginitialization$qqrv+0x228b2
eax=0164e9c4 ebx=7fde0010 ecx=051c0793 edx=08532da0 esi=006fbb70 edi=00000113
eip=0051e461 esp=0164e98c ebp=0164e9b4 iopl=0         nv up ei pl nz ac pe cy
cs=0023  ss=002b  ds=002b  es=002b  fs=0053  gs=002b             efl=00000217
ws7v6!SymbeditorFinalize+0x29f1:
0051e461 e802c1fcff      call    ws7v6!DlgprjuFinalize+0xf86c (004ea568)
 # ChildEBP RetAddr      Args to Child              
WARNING: Stack unwind information not available. Following frames may be wrong.
00 0164e9b4 006fbb82     0164e9e8 006fba3c 0164eaf8 ws7v6!SymbeditorFinalize+0x2a16
01 0164e9e0 00645ab6     00000113 00000001 00000000 ws7v6!Exceptionloginitialization$qqrv+0xd897e
02 0164e9f8 76192edb     000209da 00000113 00000001 ws7v6!Exceptionloginitialization$qqrv+0x228b2
eax=00000000 ebx=7fde0010 ecx=00000060 edx=00c9f7bc esi=006fbb70 edi=00000113
eip=0051e486 esp=0164e98c ebp=0164e9b4 iopl=0         nv up ei pl nz na po nc
cs=0023  ss=002b  ds=002b  es=002b  fs=0053  gs=002b             efl=00000202
ws7v6!SymbeditorFinalize+0x2a16:
0051e486 81e101000080    and     ecx,80000001h
 # ChildEBP RetAddr      Args to Child              
WARNING: Stack unwind information not available. Following frames may be wrong.
00 0164e9b4 006fbb82     0164e9e8 006fba3c 0164eaf8 ws7v6!SymbeditorFinalize+0x29f1
01 0164e9e0 00645ab6     00000113 00000001 00000000 ws7v6!Exceptionloginitialization$qqrv+0xd897e
02 0164e9f8 76192edb     000209da 00000113 00000001 ws7v6!Exceptionloginitialization$qqrv+0x228b2
eax=0164e9c4 ebx=7fde0010 ecx=051c0793 edx=08532da0 esi=006fbb70 edi=00000113
eip=0051e461 esp=0164e98c ebp=0164e9b4 iopl=0         nv up ei pl nz na po cy
cs=0023  ss=002b  ds=002b  es=002b  fs=0053  gs=002b             efl=00000203
ws7v6!SymbeditorFinalize+0x29f1:
0051e461 e802c1fcff      call    ws7v6!DlgprjuFinalize+0xf86c (004ea568)
 # ChildEBP RetAddr      Args to Child              
WARNING: Stack unwind information not available. Following frames may be wrong.
00 0164e9b4 006fbb82     0164e9e8 006fba3c 0164eaf8 ws7v6!SymbeditorFinalize+0x2a16
01 0164e9e0 00645ab6     00000113 00000001 00000000 ws7v6!Exceptionloginitialization$qqrv+0xd897e
02 0164e9f8 76192edb     000209da 00000113 00000001 ws7v6!Exceptionloginitialization$qqrv+0x228b2
eax=00000000 ebx=7fde0010 ecx=00000061 edx=00c9f7bc esi=006fbb70 edi=00000113
eip=0051e486 esp=0164e98c ebp=0164e9b4 iopl=0         nv up ei pl nz na po nc
cs=0023  ss=002b  ds=002b  es=002b  fs=0053  gs=002b             efl=00000202
ws7v6!SymbeditorFinalize+0x2a16:
0051e486 81e101000080    and     ecx,80000001h
 # ChildEBP RetAddr      Args to Child              
WARNING: Stack unwind information not available. Following frames may be wrong.
00 0164e9b4 006fbb82     0164e9e8 006fba3c 0164eaf8 ws7v6!SymbeditorFinalize+0x29f1
01 0164e9e0 00645ab6     00000113 00000001 00000000 ws7v6!Exceptionloginitialization$qqrv+0xd897e
02 0164e9f8 76192edb     000209da 00000113 00000001 ws7v6!Exceptionloginitialization$qqrv+0x228b2
eax=0164e9c4 ebx=7fde0010 ecx=051c0793 edx=08532da0 esi=006fbb70 edi=00000113
eip=0051e461 esp=0164e98c ebp=0164e9b4 iopl=0         nv up ei pl nz na po cy
cs=0023  ss=002b  ds=002b  es=002b  fs=0053  gs=002b             efl=00000203
ws7v6!SymbeditorFinalize+0x29f1:
0051e461 e802c1fcff      call    ws7v6!DlgprjuFinalize+0xf86c (004ea568)
 # ChildEBP RetAddr      Args to Child              
WARNING: Stack unwind information not available. Following frames may be wrong.
00 0164e9b4 006fbb82     0164e9e8 006fba3c 0164eaf8 ws7v6!SymbeditorFinalize+0x2a16
01 0164e9e0 00645ab6     00000113 00000001 00000000 ws7v6!Exceptionloginitialization$qqrv+0xd897e
02 0164e9f8 76192edb     000209da 00000113 00000001 ws7v6!Exceptionloginitialization$qqrv+0x228b2
eax=00000000 ebx=7fde0010 ecx=00000062 edx=00c9f7bc esi=006fbb70 edi=00000113
eip=0051e486 esp=0164e98c ebp=0164e9b4 iopl=0         nv up ei pl nz na po nc
cs=0023  ss=002b  ds=002b  es=002b  fs=0053  gs=002b             efl=00000202
ws7v6!SymbeditorFinalize+0x2a16:
0051e486 81e101000080    and     ecx,80000001h
 # ChildEBP RetAddr      Args to Child              
WARNING: Stack unwind information not available. Following frames may be wrong.
00 0164e9b4 006fbb82     0164e9e8 006fba3c 0164eaf8 ws7v6!SymbeditorFinalize+0x29f1
01 0164e9e0 00645ab6     00000113 00000001 00000000 ws7v6!Exceptionloginitialization$qqrv+0xd897e
02 0164e9f8 76192edb     000209da 00000113 00000001 ws7v6!Exceptionloginitialization$qqrv+0x228b2
eax=0164e9c4 ebx=7fde0010 ecx=051c0793 edx=08532da0 esi=006fbb70 edi=00000113
eip=0051e461 esp=0164e98c ebp=0164e9b4 iopl=0         nv up ei pl nz na pe cy
cs=0023  ss=002b  ds=002b  es=002b  fs=0053  gs=002b             efl=00000207
ws7v6!SymbeditorFinalize+0x29f1:
0051e461 e802c1fcff      call    ws7v6!DlgprjuFinalize+0xf86c (004ea568)
 # ChildEBP RetAddr      Args to Child              
WARNING: Stack unwind information not available. Following frames may be wrong.
00 0164e9b4 006fbb82     0164e9e8 006fba3c 0164eaf8 ws7v6!SymbeditorFinalize+0x2a16
01 0164e9e0 00645ab6     00000113 00000001 00000000 ws7v6!Exceptionloginitialization$qqrv+0xd897e
02 0164e9f8 76192edb     000209da 00000113 00000001 ws7v6!Exceptionloginitialization$qqrv+0x228b2
eax=00000000 ebx=7fde0010 ecx=00000063 edx=00c9f7bc esi=006fbb70 edi=00000113
eip=0051e486 esp=0164e98c ebp=0164e9b4 iopl=0         nv up ei pl nz na po nc
cs=0023  ss=002b  ds=002b  es=002b  fs=0053  gs=002b             efl=00000202
ws7v6!SymbeditorFinalize+0x2a16:
0051e486 81e101000080    and     ecx,80000001h
 # ChildEBP RetAddr      Args to Child              
WARNING: Stack unwind information not available. Following frames may be wrong.
00 0164e9b4 006fbb82     0164e9e8 006fba3c 0164eaf8 ws7v6!SymbeditorFinalize+0x29f1
01 0164e9e0 00645ab6     00000113 00000001 00000000 ws7v6!Exceptionloginitialization$qqrv+0xd897e
02 0164e9f8 76192edb     000209da 00000113 00000001 ws7v6!Exceptionloginitialization$qqrv+0x228b2
eax=0164e9c4 ebx=7fde0010 ecx=051c0793 edx=08532da0 esi=006fbb70 edi=00000113
eip=0051e461 esp=0164e98c ebp=0164e9b4 iopl=0         nv up ei pl nz na po cy
cs=0023  ss=002b  ds=002b  es=002b  fs=0053  gs=002b             efl=00000203
ws7v6!SymbeditorFinalize+0x29f1:
0051e461 e802c1fcff      call    ws7v6!DlgprjuFinalize+0xf86c (004ea568)
 # ChildEBP RetAddr      Args to Child              
WARNING: Stack unwind information not available. Following frames may be wrong.
00 0164e9b4 006fbb82     0164e9e8 006fba3c 0164eaf8 ws7v6!SymbeditorFinalize+0x2a16
01 0164e9e0 00645ab6     00000113 00000001 00000000 ws7v6!Exceptionloginitialization$qqrv+0xd897e
02 0164e9f8 76192edb     000209da 00000113 00000001 ws7v6!Exceptionloginitialization$qqrv+0x228b2
eax=00000000 ebx=7fde0010 ecx=00000064 edx=00c9f7bc esi=006fbb70 edi=00000113
eip=0051e486 esp=0164e98c ebp=0164e9b4 iopl=0         nv up ei pl nz na po nc
cs=0023  ss=002b  ds=002b  es=002b  fs=0053  gs=002b             efl=00000202
ws7v6!SymbeditorFinalize+0x2a16:
0051e486 81e101000080    and     ecx,80000001h
 # ChildEBP RetAddr      Args to Child              
WARNING: Stack unwind information not available. Following frames may be wrong.
00 0164e9b4 006fbb82     0164e9e8 006fba3c 0164eaf8 ws7v6!SymbeditorFinalize+0x29f1
01 0164e9e0 00645ab6     00000113 00000001 00000000 ws7v6!Exceptionloginitialization$qqrv+0xd897e
02 0164e9f8 76192edb     000209da 00000113 00000001 ws7v6!Exceptionloginitialization$qqrv+0x228b2
eax=0164e9c4 ebx=7fde0010 ecx=051c0793 edx=08532da0 esi=006fbb70 edi=00000113
eip=0051e461 esp=0164e98c ebp=0164e9b4 iopl=0         nv up ei pl nz na pe cy
cs=0023  ss=002b  ds=002b  es=002b  fs=0053  gs=002b             efl=00000207
ws7v6!SymbeditorFinalize+0x29f1:
0051e461 e802c1fcff      call    ws7v6!DlgprjuFinalize+0xf86c (004ea568)
 # ChildEBP RetAddr      Args to Child              
WARNING: Stack unwind information not available. Following frames may be wrong.
00 0164e9b4 006fbb82     0164e9e8 006fba3c 0164eaf8 ws7v6!SymbeditorFinalize+0x2a16
01 0164e9e0 00645ab6     00000113 00000001 00000000 ws7v6!Exceptionloginitialization$qqrv+0xd897e
02 0164e9f8 76192edb     000209da 00000113 00000001 ws7v6!Exceptionloginitialization$qqrv+0x228b2
eax=00000000 ebx=7fde0010 ecx=00000065 edx=00c9f7bc esi=006fbb70 edi=00000113
eip=0051e486 esp=0164e98c ebp=0164e9b4 iopl=0         nv up ei pl nz na po nc
cs=0023  ss=002b  ds=002b  es=002b  fs=0053  gs=002b             efl=00000202
ws7v6!SymbeditorFinalize+0x2a16:
0051e486 81e101000080    and     ecx,80000001h
 # ChildEBP RetAddr      Args to Child              
WARNING: Stack unwind information not available. Following frames may be wrong.
00 0164e9b4 006fbb82     0164e9e8 006fba3c 0164eaf8 ws7v6!SymbeditorFinalize+0x29f1
01 0164e9e0 00645ab6     00000113 00000001 00000000 ws7v6!Exceptionloginitialization$qqrv+0xd897e
02 0164e9f8 76192edb     000209da 00000113 00000001 ws7v6!Exceptionloginitialization$qqrv+0x228b2
eax=0164e9c4 ebx=7fde0010 ecx=051c0793 edx=08532da0 esi=006fbb70 edi=00000113
eip=0051e461 esp=0164e98c ebp=0164e9b4 iopl=0         nv up ei pl nz na pe cy
cs=0023  ss=002b  ds=002b  es=002b  fs=0053  gs=002b             efl=00000207
ws7v6!SymbeditorFinalize+0x29f1:
0051e461 e802c1fcff      call    ws7v6!DlgprjuFinalize+0xf86c (004ea568)
 # ChildEBP RetAddr      Args to Child              
WARNING: Stack unwind information not available. Following frames may be wrong.
00 0164e9b4 006fbb82     0164e9e8 006fba3c 0164eaf8 ws7v6!SymbeditorFinalize+0x2a16
01 0164e9e0 00645ab6     00000113 00000001 00000000 ws7v6!Exceptionloginitialization$qqrv+0xd897e
02 0164e9f8 76192edb     000209da 00000113 00000001 ws7v6!Exceptionloginitialization$qqrv+0x228b2
eax=00000000 ebx=7fde0010 ecx=00000066 edx=00c9f7bc esi=006fbb70 edi=00000113
eip=0051e486 esp=0164e98c ebp=0164e9b4 iopl=0         nv up ei pl nz na po nc
cs=0023  ss=002b  ds=002b  es=002b  fs=0053  gs=002b             efl=00000202
ws7v6!SymbeditorFinalize+0x2a16:
0051e486 81e101000080    and     ecx,80000001h
 # ChildEBP RetAddr      Args to Child              
WARNING: Stack unwind information not available. Following frames may be wrong.
00 0164e9b4 006fbb82     0164e9e8 006fba3c 0164eaf8 ws7v6!SymbeditorFinalize+0x29f1
01 0164e9e0 00645ab6     00000113 00000001 00000000 ws7v6!Exceptionloginitialization$qqrv+0xd897e
02 0164e9f8 76192edb     000209da 00000113 00000001 ws7v6!Exceptionloginitialization$qqrv+0x228b2
eax=0164e9c4 ebx=7fde0010 ecx=051c0793 edx=08532da0 esi=006fbb70 edi=00000113
eip=0051e461 esp=0164e98c ebp=0164e9b4 iopl=0         nv up ei pl nz na po cy
cs=0023  ss=002b  ds=002b  es=002b  fs=0053  gs=002b             efl=00000203
ws7v6!SymbeditorFinalize+0x29f1:
0051e461 e802c1fcff      call    ws7v6!DlgprjuFinalize+0xf86c (004ea568)
 # ChildEBP RetAddr      Args to Child              
WARNING: Stack unwind information not available. Following frames may be wrong.
00 0164e9b4 006fbb82     0164e9e8 006fba3c 0164eaf8 ws7v6!SymbeditorFinalize+0x2a16
01 0164e9e0 00645ab6     00000113 00000001 00000000 ws7v6!Exceptionloginitialization$qqrv+0xd897e
02 0164e9f8 76192edb     000209da 00000113 00000001 ws7v6!Exceptionloginitialization$qqrv+0x228b2
eax=00000000 ebx=7fde0010 ecx=00000067 edx=00c9f7bc esi=006fbb70 edi=00000113
eip=0051e486 esp=0164e98c ebp=0164e9b4 iopl=0         nv up ei pl nz na po nc
cs=0023  ss=002b  ds=002b  es=002b  fs=0053  gs=002b             efl=00000202
ws7v6!SymbeditorFinalize+0x2a16:
0051e486 81e101000080    and     ecx,80000001h
 # ChildEBP RetAddr      Args to Child              
WARNING: Stack unwind information not available. Following frames may be wrong.
00 0164e9b4 006fbb82     0164e9e8 006fba3c 0164eaf8 ws7v6!SymbeditorFinalize+0x29f1
01 0164e9e0 00645ab6     00000113 00000001 00000000 ws7v6!Exceptionloginitialization$qqrv+0xd897e
02 0164e9f8 76192edb     000209da 00000113 00000001 ws7v6!Exceptionloginitialization$qqrv+0x228b2
eax=0164e9c4 ebx=7fde0010 ecx=051c0793 edx=08532da0 esi=006fbb70 edi=00000113
eip=0051e461 esp=0164e98c ebp=0164e9b4 iopl=0         nv up ei pl nz na po cy
cs=0023  ss=002b  ds=002b  es=002b  fs=0053  gs=002b             efl=00000203
ws7v6!SymbeditorFinalize+0x29f1:
0051e461 e802c1fcff      call    ws7v6!DlgprjuFinalize+0xf86c (004ea568)
 # ChildEBP RetAddr      Args to Child              
WARNING: Stack unwind information not available. Following frames may be wrong.
00 0164e9b4 006fbb82     0164e9e8 006fba3c 0164eaf8 ws7v6!SymbeditorFinalize+0x2a16
01 0164e9e0 00645ab6     00000113 00000001 00000000 ws7v6!Exceptionloginitialization$qqrv+0xd897e
02 0164e9f8 76192edb     000209da 00000113 00000001 ws7v6!Exceptionloginitialization$qqrv+0x228b2
eax=00000000 ebx=7fde0010 ecx=00000068 edx=00c9f7bc esi=006fbb70 edi=00000113
eip=0051e486 esp=0164e98c ebp=0164e9b4 iopl=0         nv up ei pl nz na po nc
cs=0023  ss=002b  ds=002b  es=002b  fs=0053  gs=002b             efl=00000202
ws7v6!SymbeditorFinalize+0x2a16:
0051e486 81e101000080    and     ecx,80000001h
 # ChildEBP RetAddr      Args to Child              
WARNING: Stack unwind information not available. Following frames may be wrong.
00 0164e9b4 006fbb82     0164e9e8 006fba3c 0164eaf8 ws7v6!SymbeditorFinalize+0x29f1
01 0164e9e0 00645ab6     00000113 00000001 00000000 ws7v6!Exceptionloginitialization$qqrv+0xd897e
02 0164e9f8 76192edb     000209da 00000113 00000001 ws7v6!Exceptionloginitialization$qqrv+0x228b2
eax=0164e9c4 ebx=7fde0010 ecx=051c0793 edx=08532da0 esi=006fbb70 edi=00000113
eip=0051e461 esp=0164e98c ebp=0164e9b4 iopl=0         nv up ei pl nz na pe cy
cs=0023  ss=002b  ds=002b  es=002b  fs=0053  gs=002b             efl=00000207
ws7v6!SymbeditorFinalize+0x29f1:
0051e461 e802c1fcff      call    ws7v6!DlgprjuFinalize+0xf86c (004ea568)
 # ChildEBP RetAddr      Args to Child              
WARNING: Stack unwind information not available. Following frames may be wrong.
00 0164e9b4 006fbb82     0164e9e8 006fba3c 0164eaf8 ws7v6!SymbeditorFinalize+0x2a16
01 0164e9e0 00645ab6     00000113 00000001 00000000 ws7v6!Exceptionloginitialization$qqrv+0xd897e
02 0164e9f8 76192edb     000209da 00000113 00000001 ws7v6!Exceptionloginitialization$qqrv+0x228b2
eax=00000000 ebx=7fde0010 ecx=00000069 edx=00c9f7bc esi=006fbb70 edi=00000113
eip=0051e486 esp=0164e98c ebp=0164e9b4 iopl=0         nv up ei pl nz na po nc
cs=0023  ss=002b  ds=002b  es=002b  fs=0053  gs=002b             efl=00000202
ws7v6!SymbeditorFinalize+0x2a16:
0051e486 81e101000080    and     ecx,80000001h
 # ChildEBP RetAddr      Args to Child              
WARNING: Stack unwind information not available. Following frames may be wrong.
00 0164e9b4 006fbb82     0164e9e8 006fba3c 0164eaf8 ws7v6!SymbeditorFinalize+0x29f1
01 0164e9e0 00645ab6     00000113 00000001 00000000 ws7v6!Exceptionloginitialization$qqrv+0xd897e
02 0164e9f8 76192edb     000209da 00000113 00000001 ws7v6!Exceptionloginitialization$qqrv+0x228b2
eax=0164e9c4 ebx=7fde0010 ecx=051c0793 edx=08532da0 esi=006fbb70 edi=00000113
eip=0051e461 esp=0164e98c ebp=0164e9b4 iopl=0         nv up ei pl nz na pe cy
cs=0023  ss=002b  ds=002b  es=002b  fs=0053  gs=002b             efl=00000207
ws7v6!SymbeditorFinalize+0x29f1:
0051e461 e802c1fcff      call    ws7v6!DlgprjuFinalize+0xf86c (004ea568)
 # ChildEBP RetAddr      Args to Child              
WARNING: Stack unwind information not available. Following frames may be wrong.
00 0164e9b4 006fbb82     0164e9e8 006fba3c 0164eaf8 ws7v6!SymbeditorFinalize+0x2a16
01 0164e9e0 00645ab6     00000113 00000001 00000000 ws7v6!Exceptionloginitialization$qqrv+0xd897e
02 0164e9f8 76192edb     000209da 00000113 00000001 ws7v6!Exceptionloginitialization$qqrv+0x228b2
eax=00000000 ebx=7fde0010 ecx=0000006a edx=00c9f7bc esi=006fbb70 edi=00000113
eip=0051e486 esp=0164e98c ebp=0164e9b4 iopl=0         nv up ei pl nz na po nc
cs=0023  ss=002b  ds=002b  es=002b  fs=0053  gs=002b             efl=00000202
ws7v6!SymbeditorFinalize+0x2a16:
0051e486 81e101000080    and     ecx,80000001h
 # ChildEBP RetAddr      Args to Child              
WARNING: Stack unwind information not available. Following frames may be wrong.
00 0164e9b4 006fbb82     0164e9e8 006fba3c 0164eaf8 ws7v6!SymbeditorFinalize+0x29f1
01 0164e9e0 00645ab6     00000113 00000001 00000000 ws7v6!Exceptionloginitialization$qqrv+0xd897e
02 0164e9f8 76192edb     000209da 00000113 00000001 ws7v6!Exceptionloginitialization$qqrv+0x228b2
eax=0164e9c4 ebx=7fde0010 ecx=051c0793 edx=08532da0 esi=006fbb70 edi=00000113
eip=0051e461 esp=0164e98c ebp=0164e9b4 iopl=0         nv up ei pl nz na po cy
cs=0023  ss=002b  ds=002b  es=002b  fs=0053  gs=002b             efl=00000203
ws7v6!SymbeditorFinalize+0x29f1:
0051e461 e802c1fcff      call    ws7v6!DlgprjuFinalize+0xf86c (004ea568)
 # ChildEBP RetAddr      Args to Child              
WARNING: Stack unwind information not available. Following frames may be wrong.
00 0164e9b4 006fbb82     0164e9e8 006fba3c 0164eaf8 ws7v6!SymbeditorFinalize+0x2a16
01 0164e9e0 00645ab6     00000113 00000001 00000000 ws7v6!Exceptionloginitialization$qqrv+0xd897e
02 0164e9f8 76192edb     000209da 00000113 00000001 ws7v6!Exceptionloginitialization$qqrv+0x228b2
eax=00000000 ebx=7fde0010 ecx=0000006b edx=00c9f7bc esi=006fbb70 edi=00000113
eip=0051e486 esp=0164e98c ebp=0164e9b4 iopl=0         nv up ei pl nz na po nc
cs=0023  ss=002b  ds=002b  es=002b  fs=0053  gs=002b             efl=00000202
ws7v6!SymbeditorFinalize+0x2a16:
0051e486 81e101000080    and     ecx,80000001h
 # ChildEBP RetAddr      Args to Child              
WARNING: Stack unwind information not available. Following frames may be wrong.
00 0164e9b4 006fbb82     0164e9e8 006fba3c 0164eaf8 ws7v6!SymbeditorFinalize+0x29f1
01 0164e9e0 00645ab6     00000113 00000001 00000000 ws7v6!Exceptionloginitialization$qqrv+0xd897e
02 0164e9f8 76192edb     000209da 00000113 00000001 ws7v6!Exceptionloginitialization$qqrv+0x228b2
eax=0164e9c4 ebx=7fde0010 ecx=051c0793 edx=08532da0 esi=006fbb70 edi=00000113
eip=0051e461 esp=0164e98c ebp=0164e9b4 iopl=0         nv up ei pl nz na pe cy
cs=0023  ss=002b  ds=002b  es=002b  fs=0053  gs=002b             efl=00000207
ws7v6!SymbeditorFinalize+0x29f1:
0051e461 e802c1fcff      call    ws7v6!DlgprjuFinalize+0xf86c (004ea568)
 # ChildEBP RetAddr      Args to Child              
WARNING: Stack unwind information not available. Following frames may be wrong.
00 0164e9b4 006fbb82     0164e9e8 006fba3c 0164eaf8 ws7v6!SymbeditorFinalize+0x2a16
01 0164e9e0 00645ab6     00000113 00000001 00000000 ws7v6!Exceptionloginitialization$qqrv+0xd897e
02 0164e9f8 76192edb     000209da 00000113 00000001 ws7v6!Exceptionloginitialization$qqrv+0x228b2
eax=00000000 ebx=7fde0010 ecx=0000006c edx=00c9f7bc esi=006fbb70 edi=00000113
eip=0051e486 esp=0164e98c ebp=0164e9b4 iopl=0         nv up ei pl nz na po nc
cs=0023  ss=002b  ds=002b  es=002b  fs=0053  gs=002b             efl=00000202
ws7v6!SymbeditorFinalize+0x2a16:
0051e486 81e101000080    and     ecx,80000001h
 # ChildEBP RetAddr      Args to Child              
WARNING: Stack unwind information not available. Following frames may be wrong.
00 0164e9b4 006fbb82     0164e9e8 006fba3c 0164eaf8 ws7v6!SymbeditorFinalize+0x29f1
01 0164e9e0 00645ab6     00000113 00000001 00000000 ws7v6!Exceptionloginitialization$qqrv+0xd897e
02 0164e9f8 76192edb     000209da 00000113 00000001 ws7v6!Exceptionloginitialization$qqrv+0x228b2
eax=0164e9c4 ebx=7fde0010 ecx=051c0793 edx=08532da0 esi=006fbb70 edi=00000113
eip=0051e461 esp=0164e98c ebp=0164e9b4 iopl=0         nv up ei pl nz na po cy
cs=0023  ss=002b  ds=002b  es=002b  fs=0053  gs=002b             efl=00000203
ws7v6!SymbeditorFinalize+0x29f1:
0051e461 e802c1fcff      call    ws7v6!DlgprjuFinalize+0xf86c (004ea568)
 # ChildEBP RetAddr      Args to Child              
WARNING: Stack unwind information not available. Following frames may be wrong.
00 0164e9b4 006fbb82     0164e9e8 006fba3c 0164eaf8 ws7v6!SymbeditorFinalize+0x2a16
01 0164e9e0 00645ab6     00000113 00000001 00000000 ws7v6!Exceptionloginitialization$qqrv+0xd897e
02 0164e9f8 76192edb     000209da 00000113 00000001 ws7v6!Exceptionloginitialization$qqrv+0x228b2
eax=00000000 ebx=7fde0010 ecx=0000006d edx=00c9f7bc esi=006fbb70 edi=00000113
eip=0051e486 esp=0164e98c ebp=0164e9b4 iopl=0         nv up ei pl nz na po nc
cs=0023  ss=002b  ds=002b  es=002b  fs=0053  gs=002b             efl=00000202
ws7v6!SymbeditorFinalize+0x2a16:
0051e486 81e101000080    and     ecx,80000001h
 # ChildEBP RetAddr      Args to Child              
WARNING: Stack unwind information not available. Following frames may be wrong.
00 0164e9b4 006fbb82     0164e9e8 006fba3c 0164eaf8 ws7v6!SymbeditorFinalize+0x29f1
01 0164e9e0 00645ab6     00000113 00000001 00000000 ws7v6!Exceptionloginitialization$qqrv+0xd897e
02 0164e9f8 76192edb     000209da 00000113 00000001 ws7v6!Exceptionloginitialization$qqrv+0x228b2
eax=0164e9c4 ebx=7fde0010 ecx=051c0793 edx=08532da0 esi=006fbb70 edi=00000113
eip=0051e461 esp=0164e98c ebp=0164e9b4 iopl=0         nv up ei pl nz na po cy
cs=0023  ss=002b  ds=002b  es=002b  fs=0053  gs=002b             efl=00000203
ws7v6!SymbeditorFinalize+0x29f1:
0051e461 e802c1fcff      call    ws7v6!DlgprjuFinalize+0xf86c (004ea568)
 # ChildEBP RetAddr      Args to Child              
WARNING: Stack unwind information not available. Following frames may be wrong.
00 0164e9b4 006fbb82     0164e9e8 006fba3c 0164eaf8 ws7v6!SymbeditorFinalize+0x2a16
01 0164e9e0 00645ab6     00000113 00000001 00000000 ws7v6!Exceptionloginitialization$qqrv+0xd897e
02 0164e9f8 76192edb     000209da 00000113 00000001 ws7v6!Exceptionloginitialization$qqrv+0x228b2
eax=00000000 ebx=7fde0010 ecx=0000006e edx=00c9f7bc esi=006fbb70 edi=00000113
eip=0051e486 esp=0164e98c ebp=0164e9b4 iopl=0         nv up ei pl nz na po nc
cs=0023  ss=002b  ds=002b  es=002b  fs=0053  gs=002b             efl=00000202
ws7v6!SymbeditorFinalize+0x2a16:
0051e486 81e101000080    and     ecx,80000001h
 # ChildEBP RetAddr      Args to Child              
WARNING: Stack unwind information not available. Following frames may be wrong.
00 0164e9b4 006fbb82     0164e9e8 006fba3c 0164eaf8 ws7v6!SymbeditorFinalize+0x29f1
01 0164e9e0 00645ab6     00000113 00000001 00000000 ws7v6!Exceptionloginitialization$qqrv+0xd897e
02 0164e9f8 76192edb     000209da 00000113 00000001 ws7v6!Exceptionloginitialization$qqrv+0x228b2
eax=0164e9c4 ebx=7fde0010 ecx=051c0793 edx=08532da0 esi=006fbb70 edi=00000113
eip=0051e461 esp=0164e98c ebp=0164e9b4 iopl=0         nv up ei pl nz na pe cy
cs=0023  ss=002b  ds=002b  es=002b  fs=0053  gs=002b             efl=00000207
ws7v6!SymbeditorFinalize+0x29f1:
0051e461 e802c1fcff      call    ws7v6!DlgprjuFinalize+0xf86c (004ea568)
 # ChildEBP RetAddr      Args to Child              
WARNING: Stack unwind information not available. Following frames may be wrong.
00 0164e9b4 006fbb82     0164e9e8 006fba3c 0164eaf8 ws7v6!SymbeditorFinalize+0x2a16
01 0164e9e0 00645ab6     00000113 00000001 00000000 ws7v6!Exceptionloginitialization$qqrv+0xd897e
02 0164e9f8 76192edb     000209da 00000113 00000001 ws7v6!Exceptionloginitialization$qqrv+0x228b2
eax=00000000 ebx=7fde0010 ecx=0000006f edx=00c9f7bc esi=006fbb70 edi=00000113
eip=0051e486 esp=0164e98c ebp=0164e9b4 iopl=0         nv up ei pl nz na po nc
cs=0023  ss=002b  ds=002b  es=002b  fs=0053  gs=002b             efl=00000202
ws7v6!SymbeditorFinalize+0x2a16:
0051e486 81e101000080    and     ecx,80000001h
 # ChildEBP RetAddr      Args to Child              
WARNING: Stack unwind information not available. Following frames may be wrong.
00 0164e9b4 006fbb82     0164e9e8 006fba3c 0164eaf8 ws7v6!SymbeditorFinalize+0x29f1
01 0164e9e0 00645ab6     00000113 00000001 00000000 ws7v6!Exceptionloginitialization$qqrv+0xd897e
02 0164e9f8 76192edb     000209da 00000113 00000001 ws7v6!Exceptionloginitialization$qqrv+0x228b2
eax=0164e9c4 ebx=7fde0010 ecx=051c0793 edx=08532da0 esi=006fbb70 edi=00000113
eip=0051e461 esp=0164e98c ebp=0164e9b4 iopl=0         nv up ei pl nz ac po cy
cs=0023  ss=002b  ds=002b  es=002b  fs=0053  gs=002b             efl=00000213
ws7v6!SymbeditorFinalize+0x29f1:
0051e461 e802c1fcff      call    ws7v6!DlgprjuFinalize+0xf86c (004ea568)
 # ChildEBP RetAddr      Args to Child              
WARNING: Stack unwind information not available. Following frames may be wrong.
00 0164e9b4 006fbb82     0164e9e8 006fba3c 0164eaf8 ws7v6!SymbeditorFinalize+0x2a16
01 0164e9e0 00645ab6     00000113 00000001 00000000 ws7v6!Exceptionloginitialization$qqrv+0xd897e
02 0164e9f8 76192edb     000209da 00000113 00000001 ws7v6!Exceptionloginitialization$qqrv+0x228b2
eax=00000000 ebx=7fde0010 ecx=00000070 edx=00c9f7bc esi=006fbb70 edi=00000113
eip=0051e486 esp=0164e98c ebp=0164e9b4 iopl=0         nv up ei pl nz na po nc
cs=0023  ss=002b  ds=002b  es=002b  fs=0053  gs=002b             efl=00000202
ws7v6!SymbeditorFinalize+0x2a16:
0051e486 81e101000080    and     ecx,80000001h
 # ChildEBP RetAddr      Args to Child              
WARNING: Stack unwind information not available. Following frames may be wrong.
00 0164e9b4 006fbb82     0164e9e8 006fba3c 0164eaf8 ws7v6!SymbeditorFinalize+0x29f1
01 0164e9e0 00645ab6     00000113 00000001 00000000 ws7v6!Exceptionloginitialization$qqrv+0xd897e
02 0164e9f8 76192edb     000209da 00000113 00000001 ws7v6!Exceptionloginitialization$qqrv+0x228b2
eax=0164e9c4 ebx=7fde0010 ecx=051c0793 edx=08532da0 esi=006fbb70 edi=00000113
eip=0051e461 esp=0164e98c ebp=0164e9b4 iopl=0         nv up ei pl nz na pe cy
cs=0023  ss=002b  ds=002b  es=002b  fs=0053  gs=002b             efl=00000207
ws7v6!SymbeditorFinalize+0x29f1:
0051e461 e802c1fcff      call    ws7v6!DlgprjuFinalize+0xf86c (004ea568)
 # ChildEBP RetAddr      Args to Child              
WARNING: Stack unwind information not available. Following frames may be wrong.
00 0164e9b4 006fbb82     0164e9e8 006fba3c 0164eaf8 ws7v6!SymbeditorFinalize+0x2a16
01 0164e9e0 00645ab6     00000113 00000001 00000000 ws7v6!Exceptionloginitialization$qqrv+0xd897e
02 0164e9f8 76192edb     000209da 00000113 00000001 ws7v6!Exceptionloginitialization$qqrv+0x228b2
eax=00000000 ebx=7fde0010 ecx=00000071 edx=00c9f7bc esi=006fbb70 edi=00000113
eip=0051e486 esp=0164e98c ebp=0164e9b4 iopl=0         nv up ei pl nz na po nc
cs=0023  ss=002b  ds=002b  es=002b  fs=0053  gs=002b             efl=00000202
ws7v6!SymbeditorFinalize+0x2a16:
0051e486 81e101000080    and     ecx,80000001h
 # ChildEBP RetAddr      Args to Child              
WARNING: Stack unwind information not available. Following frames may be wrong.
00 0164e9b4 006fbb82     0164e9e8 006fba3c 0164eaf8 ws7v6!SymbeditorFinalize+0x29f1
01 0164e9e0 00645ab6     00000113 00000001 00000000 ws7v6!Exceptionloginitialization$qqrv+0xd897e
02 0164e9f8 76192edb     000209da 00000113 00000001 ws7v6!Exceptionloginitialization$qqrv+0x228b2
eax=0164e9c4 ebx=7fde0010 ecx=051c0793 edx=08532da0 esi=006fbb70 edi=00000113
eip=0051e461 esp=0164e98c ebp=0164e9b4 iopl=0         nv up ei pl nz na pe cy
cs=0023  ss=002b  ds=002b  es=002b  fs=0053  gs=002b             efl=00000207
ws7v6!SymbeditorFinalize+0x29f1:
0051e461 e802c1fcff      call    ws7v6!DlgprjuFinalize+0xf86c (004ea568)
 # ChildEBP RetAddr      Args to Child              
WARNING: Stack unwind information not available. Following frames may be wrong.
00 0164e9b4 006fbb82     0164e9e8 006fba3c 0164eaf8 ws7v6!SymbeditorFinalize+0x2a16
01 0164e9e0 00645ab6     00000113 00000001 00000000 ws7v6!Exceptionloginitialization$qqrv+0xd897e
02 0164e9f8 76192edb     000209da 00000113 00000001 ws7v6!Exceptionloginitialization$qqrv+0x228b2
eax=00000000 ebx=7fde0010 ecx=00000072 edx=00c9f7bc esi=006fbb70 edi=00000113
eip=0051e486 esp=0164e98c ebp=0164e9b4 iopl=0         nv up ei pl nz na po nc
cs=0023  ss=002b  ds=002b  es=002b  fs=0053  gs=002b             efl=00000202
ws7v6!SymbeditorFinalize+0x2a16:
0051e486 81e101000080    and     ecx,80000001h
 # ChildEBP RetAddr      Args to Child              
WARNING: Stack unwind information not available. Following frames may be wrong.
00 0164e9b4 006fbb82     0164e9e8 006fba3c 0164eaf8 ws7v6!SymbeditorFinalize+0x29f1
01 0164e9e0 00645ab6     00000113 00000001 00000000 ws7v6!Exceptionloginitialization$qqrv+0xd897e
02 0164e9f8 76192edb     000209da 00000113 00000001 ws7v6!Exceptionloginitialization$qqrv+0x228b2
eax=0164e9c4 ebx=7fde0010 ecx=051c0793 edx=08532da0 esi=006fbb70 edi=00000113
eip=0051e461 esp=0164e98c ebp=0164e9b4 iopl=0         nv up ei pl nz na po cy
cs=0023  ss=002b  ds=002b  es=002b  fs=0053  gs=002b             efl=00000203
ws7v6!SymbeditorFinalize+0x29f1:
0051e461 e802c1fcff      call    ws7v6!DlgprjuFinalize+0xf86c (004ea568)
 # ChildEBP RetAddr      Args to Child              
WARNING: Stack unwind information not available. Following frames may be wrong.
00 0164e9b4 006fbb82     0164e9e8 006fba3c 0164eaf8 ws7v6!SymbeditorFinalize+0x2a16
01 0164e9e0 00645ab6     00000113 00000001 00000000 ws7v6!Exceptionloginitialization$qqrv+0xd897e
02 0164e9f8 76192edb     000209da 00000113 00000001 ws7v6!Exceptionloginitialization$qqrv+0x228b2
eax=00000000 ebx=7fde0010 ecx=00000073 edx=00c9f7bc esi=006fbb70 edi=00000113
eip=0051e486 esp=0164e98c ebp=0164e9b4 iopl=0         nv up ei pl nz na po nc
cs=0023  ss=002b  ds=002b  es=002b  fs=0053  gs=002b             efl=00000202
ws7v6!SymbeditorFinalize+0x2a16:
0051e486 81e101000080    and     ecx,80000001h
 # ChildEBP RetAddr      Args to Child              
WARNING: Stack unwind information not available. Following frames may be wrong.
00 0164e9b4 006fbb82     0164e9e8 006fba3c 0164eaf8 ws7v6!SymbeditorFinalize+0x29f1
01 0164e9e0 00645ab6     00000113 00000001 00000000 ws7v6!Exceptionloginitialization$qqrv+0xd897e
02 0164e9f8 76192edb     000209da 00000113 00000001 ws7v6!Exceptionloginitialization$qqrv+0x228b2
eax=0164e9c4 ebx=7fde0010 ecx=051c0793 edx=08532da0 esi=006fbb70 edi=00000113
eip=0051e461 esp=0164e98c ebp=0164e9b4 iopl=0         nv up ei pl nz na pe cy
cs=0023  ss=002b  ds=002b  es=002b  fs=0053  gs=002b             efl=00000207
ws7v6!SymbeditorFinalize+0x29f1:
0051e461 e802c1fcff      call    ws7v6!DlgprjuFinalize+0xf86c (004ea568)
 # ChildEBP RetAddr      Args to Child              
WARNING: Stack unwind information not available. Following frames may be wrong.
00 0164e9b4 006fbb82     0164e9e8 006fba3c 0164eaf8 ws7v6!SymbeditorFinalize+0x2a16
01 0164e9e0 00645ab6     00000113 00000001 00000000 ws7v6!Exceptionloginitialization$qqrv+0xd897e
02 0164e9f8 76192edb     000209da 00000113 00000001 ws7v6!Exceptionloginitialization$qqrv+0x228b2
eax=00000000 ebx=7fde0010 ecx=00000074 edx=00c9f7bc esi=006fbb70 edi=00000113
eip=0051e486 esp=0164e98c ebp=0164e9b4 iopl=0         nv up ei pl nz na po nc
cs=0023  ss=002b  ds=002b  es=002b  fs=0053  gs=002b             efl=00000202
ws7v6!SymbeditorFinalize+0x2a16:
0051e486 81e101000080    and     ecx,80000001h
 # ChildEBP RetAddr      Args to Child              
WARNING: Stack unwind information not available. Following frames may be wrong.
00 0164dccc 006fbb82     0164dd00 006fba3c 0164de10 ws7v6!SymbeditorFinalize+0x29f1
01 0164dcf8 00645ab6     00000113 00000001 00000000 ws7v6!Exceptionloginitialization$qqrv+0xd897e
02 0164dd10 76192edb     000209da 00000113 00000001 ws7v6!Exceptionloginitialization$qqrv+0x228b2
eax=0164dcdc ebx=7fde0010 ecx=051c0793 edx=08532da0 esi=006fbb70 edi=00000113
eip=0051e461 esp=0164dca4 ebp=0164dccc iopl=0         nv up ei pl nz na po cy
cs=0023  ss=002b  ds=002b  es=002b  fs=0053  gs=002b             efl=00000203
ws7v6!SymbeditorFinalize+0x29f1:
0051e461 e802c1fcff      call    ws7v6!DlgprjuFinalize+0xf86c (004ea568)
 # ChildEBP RetAddr      Args to Child              
WARNING: Stack unwind information not available. Following frames may be wrong.
00 0164dccc 006fbb82     0164dd00 006fba3c 0164de10 ws7v6!SymbeditorFinalize+0x2a16
01 0164dcf8 00645ab6     00000113 00000001 00000000 ws7v6!Exceptionloginitialization$qqrv+0xd897e
02 0164dd10 76192edb     000209da 00000113 00000001 ws7v6!Exceptionloginitialization$qqrv+0x228b2
eax=00000000 ebx=7fde0010 ecx=00000075 edx=00c9f7bc esi=006fbb70 edi=00000113
eip=0051e486 esp=0164dca4 ebp=0164dccc iopl=0         nv up ei pl nz na po nc
cs=0023  ss=002b  ds=002b  es=002b  fs=0053  gs=002b             efl=00000202
ws7v6!SymbeditorFinalize+0x2a16:
0051e486 81e101000080    and     ecx,80000001h
 # ChildEBP RetAddr      Args to Child              
WARNING: Stack unwind information not available. Following frames may be wrong.
00 0164dccc 006fbb82     0164dd00 006fba3c 0164de10 ws7v6!SymbeditorFinalize+0x29f1
01 0164dcf8 00645ab6     00000113 00000001 00000000 ws7v6!Exceptionloginitialization$qqrv+0xd897e
02 0164dd10 76192edb     000209da 00000113 00000001 ws7v6!Exceptionloginitialization$qqrv+0x228b2
eax=0164dcdc ebx=7fde0010 ecx=051c0793 edx=08532da0 esi=006fbb70 edi=00000113
eip=0051e461 esp=0164dca4 ebp=0164dccc iopl=0         nv up ei pl nz na po cy
cs=0023  ss=002b  ds=002b  es=002b  fs=0053  gs=002b             efl=00000203
ws7v6!SymbeditorFinalize+0x29f1:
0051e461 e802c1fcff      call    ws7v6!DlgprjuFinalize+0xf86c (004ea568)
 # ChildEBP RetAddr      Args to Child              
WARNING: Stack unwind information not available. Following frames may be wrong.
00 0164dccc 006fbb82     0164dd00 006fba3c 0164de10 ws7v6!SymbeditorFinalize+0x2a16
01 0164dcf8 00645ab6     00000113 00000001 00000000 ws7v6!Exceptionloginitialization$qqrv+0xd897e
02 0164dd10 76192edb     000209da 00000113 00000001 ws7v6!Exceptionloginitialization$qqrv+0x228b2
eax=00000000 ebx=7fde0010 ecx=00000076 edx=00c9f7bc esi=006fbb70 edi=00000113
eip=0051e486 esp=0164dca4 ebp=0164dccc iopl=0         nv up ei pl nz na po nc
cs=0023  ss=002b  ds=002b  es=002b  fs=0053  gs=002b             efl=00000202
ws7v6!SymbeditorFinalize+0x2a16:
0051e486 81e101000080    and     ecx,80000001h
 # ChildEBP RetAddr      Args to Child              
WARNING: Stack unwind information not available. Following frames may be wrong.
00 0164dccc 006fbb82     0164dd00 006fba3c 0164de10 ws7v6!SymbeditorFinalize+0x29f1
01 0164dcf8 00645ab6     00000113 00000001 00000000 ws7v6!Exceptionloginitialization$qqrv+0xd897e
02 0164dd10 76192edb     000209da 00000113 00000001 ws7v6!Exceptionloginitialization$qqrv+0x228b2
eax=0164dcdc ebx=7fde0010 ecx=051c0793 edx=08532da0 esi=006fbb70 edi=00000113
eip=0051e461 esp=0164dca4 ebp=0164dccc iopl=0         nv up ei pl nz na pe cy
cs=0023  ss=002b  ds=002b  es=002b  fs=0053  gs=002b             efl=00000207
ws7v6!SymbeditorFinalize+0x29f1:
0051e461 e802c1fcff      call    ws7v6!DlgprjuFinalize+0xf86c (004ea568)
 # ChildEBP RetAddr      Args to Child              
WARNING: Stack unwind information not available. Following frames may be wrong.
00 0164dccc 006fbb82     0164dd00 006fba3c 0164de10 ws7v6!SymbeditorFinalize+0x2a16
01 0164dcf8 00645ab6     00000113 00000001 00000000 ws7v6!Exceptionloginitialization$qqrv+0xd897e
02 0164dd10 76192edb     000209da 00000113 00000001 ws7v6!Exceptionloginitialization$qqrv+0x228b2
eax=00000000 ebx=7fde0010 ecx=00000077 edx=00c9f7bc esi=006fbb70 edi=00000113
eip=0051e486 esp=0164dca4 ebp=0164dccc iopl=0         nv up ei pl nz na po nc
cs=0023  ss=002b  ds=002b  es=002b  fs=0053  gs=002b             efl=00000202
ws7v6!SymbeditorFinalize+0x2a16:
0051e486 81e101000080    and     ecx,80000001h
 # ChildEBP RetAddr      Args to Child              
WARNING: Stack unwind information not available. Following frames may be wrong.
00 0164dccc 006fbb82     0164dd00 006fba3c 0164de10 ws7v6!SymbeditorFinalize+0x29f1
01 0164dcf8 00645ab6     00000113 00000001 00000000 ws7v6!Exceptionloginitialization$qqrv+0xd897e
02 0164dd10 76192edb     000209da 00000113 00000001 ws7v6!Exceptionloginitialization$qqrv+0x228b2
eax=0164dcdc ebx=7fde0010 ecx=051c0793 edx=08532da0 esi=006fbb70 edi=00000113
eip=0051e461 esp=0164dca4 ebp=0164dccc iopl=0         nv up ei pl nz na pe cy
cs=0023  ss=002b  ds=002b  es=002b  fs=0053  gs=002b             efl=00000207
ws7v6!SymbeditorFinalize+0x29f1:
0051e461 e802c1fcff      call    ws7v6!DlgprjuFinalize+0xf86c (004ea568)
 # ChildEBP RetAddr      Args to Child              
WARNING: Stack unwind information not available. Following frames may be wrong.
00 0164dccc 006fbb82     0164dd00 006fba3c 0164de10 ws7v6!SymbeditorFinalize+0x2a16
01 0164dcf8 00645ab6     00000113 00000001 00000000 ws7v6!Exceptionloginitialization$qqrv+0xd897e
02 0164dd10 76192edb     000209da 00000113 00000001 ws7v6!Exceptionloginitialization$qqrv+0x228b2
eax=00000000 ebx=7fde0010 ecx=00000078 edx=00c9f7bc esi=006fbb70 edi=00000113
eip=0051e486 esp=0164dca4 ebp=0164dccc iopl=0         nv up ei pl nz na po nc
cs=0023  ss=002b  ds=002b  es=002b  fs=0053  gs=002b             efl=00000202
ws7v6!SymbeditorFinalize+0x2a16:
0051e486 81e101000080    and     ecx,80000001h
 # ChildEBP RetAddr      Args to Child              
WARNING: Stack unwind information not available. Following frames may be wrong.
00 0164dccc 006fbb82     0164dd00 006fba3c 0164de10 ws7v6!SymbeditorFinalize+0x29f1
01 0164dcf8 00645ab6     00000113 00000001 00000000 ws7v6!Exceptionloginitialization$qqrv+0xd897e
02 0164dd10 76192edb     000209da 00000113 00000001 ws7v6!Exceptionloginitialization$qqrv+0x228b2
eax=0164dcdc ebx=7fde0010 ecx=051c0793 edx=08532da0 esi=006fbb70 edi=00000113
eip=0051e461 esp=0164dca4 ebp=0164dccc iopl=0         nv up ei pl nz na po cy
cs=0023  ss=002b  ds=002b  es=002b  fs=0053  gs=002b             efl=00000203
ws7v6!SymbeditorFinalize+0x29f1:
0051e461 e802c1fcff      call    ws7v6!DlgprjuFinalize+0xf86c (004ea568)
 # ChildEBP RetAddr      Args to Child              
WARNING: Stack unwind information not available. Following frames may be wrong.
00 0164dccc 006fbb82     0164dd00 006fba3c 0164de10 ws7v6!SymbeditorFinalize+0x2a16
01 0164dcf8 00645ab6     00000113 00000001 00000000 ws7v6!Exceptionloginitialization$qqrv+0xd897e
02 0164dd10 76192edb     000209da 00000113 00000001 ws7v6!Exceptionloginitialization$qqrv+0x228b2
eax=00000000 ebx=7fde0010 ecx=00000079 edx=00c9f7bc esi=006fbb70 edi=00000113
eip=0051e486 esp=0164dca4 ebp=0164dccc iopl=0         nv up ei pl nz na po nc
cs=0023  ss=002b  ds=002b  es=002b  fs=0053  gs=002b             efl=00000202
ws7v6!SymbeditorFinalize+0x2a16:
0051e486 81e101000080    and     ecx,80000001h
 # ChildEBP RetAddr      Args to Child              
WARNING: Stack unwind information not available. Following frames may be wrong.
00 0164dccc 006fbb82     0164dd00 006fba3c 0164de10 ws7v6!SymbeditorFinalize+0x29f1
01 0164dcf8 00645ab6     00000113 00000001 00000000 ws7v6!Exceptionloginitialization$qqrv+0xd897e
02 0164dd10 76192edb     000209da 00000113 00000001 ws7v6!Exceptionloginitialization$qqrv+0x228b2
eax=0164dcdc ebx=7fde0010 ecx=051c0793 edx=08532da0 esi=006fbb70 edi=00000113
eip=0051e461 esp=0164dca4 ebp=0164dccc iopl=0         nv up ei pl nz na po cy
cs=0023  ss=002b  ds=002b  es=002b  fs=0053  gs=002b             efl=00000203
ws7v6!SymbeditorFinalize+0x29f1:
0051e461 e802c1fcff      call    ws7v6!DlgprjuFinalize+0xf86c (004ea568)
 # ChildEBP RetAddr      Args to Child              
WARNING: Stack unwind information not available. Following frames may be wrong.
00 0164dccc 006fbb82     0164dd00 006fba3c 0164de10 ws7v6!SymbeditorFinalize+0x2a16
01 0164dcf8 00645ab6     00000113 00000001 00000000 ws7v6!Exceptionloginitialization$qqrv+0xd897e
02 0164dd10 76192edb     000209da 00000113 00000001 ws7v6!Exceptionloginitialization$qqrv+0x228b2
eax=00000000 ebx=7fde0010 ecx=0000007a edx=00c9f7bc esi=006fbb70 edi=00000113
eip=0051e486 esp=0164dca4 ebp=0164dccc iopl=0         nv up ei pl nz na po nc
cs=0023  ss=002b  ds=002b  es=002b  fs=0053  gs=002b             efl=00000202
ws7v6!SymbeditorFinalize+0x2a16:
0051e486 81e101000080    and     ecx,80000001h
 # ChildEBP RetAddr      Args to Child              
WARNING: Stack unwind information not available. Following frames may be wrong.
00 0164dccc 006fbb82     0164dd00 006fba3c 0164de10 ws7v6!SymbeditorFinalize+0x29f1
01 0164dcf8 00645ab6     00000113 00000001 00000000 ws7v6!Exceptionloginitialization$qqrv+0xd897e
02 0164dd10 76192edb     000209da 00000113 00000001 ws7v6!Exceptionloginitialization$qqrv+0x228b2
eax=0164dcdc ebx=7fde0010 ecx=051c0793 edx=08532da0 esi=006fbb70 edi=00000113
eip=0051e461 esp=0164dca4 ebp=0164dccc iopl=0         nv up ei pl nz na pe cy
cs=0023  ss=002b  ds=002b  es=002b  fs=0053  gs=002b             efl=00000207
ws7v6!SymbeditorFinalize+0x29f1:
0051e461 e802c1fcff      call    ws7v6!DlgprjuFinalize+0xf86c (004ea568)
 # ChildEBP RetAddr      Args to Child              
WARNING: Stack unwind information not available. Following frames may be wrong.
00 0164dccc 006fbb82     0164dd00 006fba3c 0164de10 ws7v6!SymbeditorFinalize+0x2a16
01 0164dcf8 00645ab6     00000113 00000001 00000000 ws7v6!Exceptionloginitialization$qqrv+0xd897e
02 0164dd10 76192edb     000209da 00000113 00000001 ws7v6!Exceptionloginitialization$qqrv+0x228b2
eax=00000000 ebx=7fde0010 ecx=0000007b edx=00c9f7bc esi=006fbb70 edi=00000113
eip=0051e486 esp=0164dca4 ebp=0164dccc iopl=0         nv up ei pl nz na po nc
cs=0023  ss=002b  ds=002b  es=002b  fs=0053  gs=002b             efl=00000202
ws7v6!SymbeditorFinalize+0x2a16:
0051e486 81e101000080    and     ecx,80000001h
 # ChildEBP RetAddr      Args to Child              
WARNING: Stack unwind information not available. Following frames may be wrong.
00 0164dccc 006fbb82     0164dd00 006fba3c 0164de10 ws7v6!SymbeditorFinalize+0x29f1
01 0164dcf8 00645ab6     00000113 00000001 00000000 ws7v6!Exceptionloginitialization$qqrv+0xd897e
02 0164dd10 76192edb     000209da 00000113 00000001 ws7v6!Exceptionloginitialization$qqrv+0x228b2
eax=0164dcdc ebx=7fde0010 ecx=051c0793 edx=08532da0 esi=006fbb70 edi=00000113
eip=0051e461 esp=0164dca4 ebp=0164dccc iopl=0         nv up ei pl nz na po cy
cs=0023  ss=002b  ds=002b  es=002b  fs=0053  gs=002b             efl=00000203
ws7v6!SymbeditorFinalize+0x29f1:
0051e461 e802c1fcff      call    ws7v6!DlgprjuFinalize+0xf86c (004ea568)
 # ChildEBP RetAddr      Args to Child              
WARNING: Stack unwind information not available. Following frames may be wrong.
00 0164dccc 006fbb82     0164dd00 006fba3c 0164de10 ws7v6!SymbeditorFinalize+0x2a16
01 0164dcf8 00645ab6     00000113 00000001 00000000 ws7v6!Exceptionloginitialization$qqrv+0xd897e
02 0164dd10 76192edb     000209da 00000113 00000001 ws7v6!Exceptionloginitialization$qqrv+0x228b2
eax=00000000 ebx=7fde0010 ecx=0000007c edx=00c9f7bc esi=006fbb70 edi=00000113
eip=0051e486 esp=0164dca4 ebp=0164dccc iopl=0         nv up ei pl nz na po nc
cs=0023  ss=002b  ds=002b  es=002b  fs=0053  gs=002b             efl=00000202
ws7v6!SymbeditorFinalize+0x2a16:
0051e486 81e101000080    and     ecx,80000001h
 # ChildEBP RetAddr      Args to Child              
WARNING: Stack unwind information not available. Following frames may be wrong.
00 0164dccc 006fbb82     0164dd00 006fba3c 0164de10 ws7v6!SymbeditorFinalize+0x29f1
01 0164dcf8 00645ab6     00000113 00000001 00000000 ws7v6!Exceptionloginitialization$qqrv+0xd897e
02 0164dd10 76192edb     000209da 00000113 00000001 ws7v6!Exceptionloginitialization$qqrv+0x228b2
eax=0164dcdc ebx=7fde0010 ecx=051c0793 edx=08532da0 esi=006fbb70 edi=00000113
eip=0051e461 esp=0164dca4 ebp=0164dccc iopl=0         nv up ei pl nz na pe cy
cs=0023  ss=002b  ds=002b  es=002b  fs=0053  gs=002b             efl=00000207
ws7v6!SymbeditorFinalize+0x29f1:
0051e461 e802c1fcff      call    ws7v6!DlgprjuFinalize+0xf86c (004ea568)
 # ChildEBP RetAddr      Args to Child              
WARNING: Stack unwind information not available. Following frames may be wrong.
00 0164dccc 006fbb82     0164dd00 006fba3c 0164de10 ws7v6!SymbeditorFinalize+0x2a16
01 0164dcf8 00645ab6     00000113 00000001 00000000 ws7v6!Exceptionloginitialization$qqrv+0xd897e
02 0164dd10 76192edb     000209da 00000113 00000001 ws7v6!Exceptionloginitialization$qqrv+0x228b2
eax=00000000 ebx=7fde0010 ecx=0000007d edx=00c9f7bc esi=006fbb70 edi=00000113
eip=0051e486 esp=0164dca4 ebp=0164dccc iopl=0         nv up ei pl nz na po nc
cs=0023  ss=002b  ds=002b  es=002b  fs=0053  gs=002b             efl=00000202
ws7v6!SymbeditorFinalize+0x2a16:
0051e486 81e101000080    and     ecx,80000001h
ModLoad: 61f80000 61ffa000   C:\WINDOWS\SysWOW64\RICHED20.DLL
ModLoad: 6c150000 6c167000   C:\WINDOWS\SysWOW64\USP10.dll
ModLoad: 67250000 67281000   C:\WINDOWS\SysWOW64\msls31.dll
 # ChildEBP RetAddr      Args to Child              
WARNING: Stack unwind information not available. Following frames may be wrong.
00 0164e388 006fbb82     0164e3bc 006fba3c 0164e4cc ws7v6!SymbeditorFinalize+0x29f1
01 0164e3b4 00645ab6     00000113 00000001 00000000 ws7v6!Exceptionloginitialization$qqrv+0xd897e
02 0164e3cc 76192edb     000209da 00000113 00000001 ws7v6!Exceptionloginitialization$qqrv+0x228b2
eax=0164e398 ebx=7fde0010 ecx=051c0793 edx=08532da0 esi=006fbb70 edi=00000113
eip=0051e461 esp=0164e360 ebp=0164e388 iopl=0         nv up ei pl nz na pe cy
cs=0023  ss=002b  ds=002b  es=002b  fs=0053  gs=002b             efl=00000207
ws7v6!SymbeditorFinalize+0x29f1:
0051e461 e802c1fcff      call    ws7v6!DlgprjuFinalize+0xf86c (004ea568)
 # ChildEBP RetAddr      Args to Child              
WARNING: Stack unwind information not available. Following frames may be wrong.
00 0164e388 006fbb82     0164e3bc 006fba3c 0164e4cc ws7v6!SymbeditorFinalize+0x2a16
01 0164e3b4 00645ab6     00000113 00000001 00000000 ws7v6!Exceptionloginitialization$qqrv+0xd897e
02 0164e3cc 76192edb     000209da 00000113 00000001 ws7v6!Exceptionloginitialization$qqrv+0x228b2
eax=00000000 ebx=7fde0010 ecx=0000007e edx=00c9f7bc esi=006fbb70 edi=00000113
eip=0051e486 esp=0164e360 ebp=0164e388 iopl=0         nv up ei pl nz na po nc
cs=0023  ss=002b  ds=002b  es=002b  fs=0053  gs=002b             efl=00000202
ws7v6!SymbeditorFinalize+0x2a16:
0051e486 81e101000080    and     ecx,80000001h
 # ChildEBP RetAddr      Args to Child              
WARNING: Stack unwind information not available. Following frames may be wrong.
00 0164e388 006fbb82     0164e3bc 006fba3c 0164e4cc ws7v6!SymbeditorFinalize+0x29f1
01 0164e3b4 00645ab6     00000113 00000001 00000000 ws7v6!Exceptionloginitialization$qqrv+0xd897e
02 0164e3cc 76192edb     000209da 00000113 00000001 ws7v6!Exceptionloginitialization$qqrv+0x228b2
eax=0164e398 ebx=7fde0010 ecx=051c0793 edx=08532da0 esi=006fbb70 edi=00000113
eip=0051e461 esp=0164e360 ebp=0164e388 iopl=0         nv up ei pl nz na po cy
cs=0023  ss=002b  ds=002b  es=002b  fs=0053  gs=002b             efl=00000203
ws7v6!SymbeditorFinalize+0x29f1:
0051e461 e802c1fcff      call    ws7v6!DlgprjuFinalize+0xf86c (004ea568)
 # ChildEBP RetAddr      Args to Child              
WARNING: Stack unwind information not available. Following frames may be wrong.
00 0164e388 006fbb82     0164e3bc 006fba3c 0164e4cc ws7v6!SymbeditorFinalize+0x2a16
01 0164e3b4 00645ab6     00000113 00000001 00000000 ws7v6!Exceptionloginitialization$qqrv+0xd897e
02 0164e3cc 76192edb     000209da 00000113 00000001 ws7v6!Exceptionloginitialization$qqrv+0x228b2
eax=00000000 ebx=7fde0010 ecx=0000007f edx=00c9f7bc esi=006fbb70 edi=00000113
eip=0051e486 esp=0164e360 ebp=0164e388 iopl=0         nv up ei pl nz na po nc
cs=0023  ss=002b  ds=002b  es=002b  fs=0053  gs=002b             efl=00000202
ws7v6!SymbeditorFinalize+0x2a16:
0051e486 81e101000080    and     ecx,80000001h
 # ChildEBP RetAddr      Args to Child              
WARNING: Stack unwind information not available. Following frames may be wrong.
00 0164e4f8 006fbb82     0164e52c 006fba3c 0164e63c ws7v6!SymbeditorFinalize+0x29f1
01 0164e524 00645ab6     00000113 00000001 00000000 ws7v6!Exceptionloginitialization$qqrv+0xd897e
02 0164e53c 76192edb     000209da 00000113 00000001 ws7v6!Exceptionloginitialization$qqrv+0x228b2
eax=0164e508 ebx=7fde0010 ecx=051c0793 edx=08532da0 esi=006fbb70 edi=00000113
eip=0051e461 esp=0164e4d0 ebp=0164e4f8 iopl=0         nv up ei pl nz ac po cy
cs=0023  ss=002b  ds=002b  es=002b  fs=0053  gs=002b             efl=00000213
ws7v6!SymbeditorFinalize+0x29f1:
0051e461 e802c1fcff      call    ws7v6!DlgprjuFinalize+0xf86c (004ea568)
 # ChildEBP RetAddr      Args to Child              
WARNING: Stack unwind information not available. Following frames may be wrong.
00 0164e4f8 006fbb82     0164e52c 006fba3c 0164e63c ws7v6!SymbeditorFinalize+0x2a16
01 0164e524 00645ab6     00000113 00000001 00000000 ws7v6!Exceptionloginitialization$qqrv+0xd897e
02 0164e53c 76192edb     000209da 00000113 00000001 ws7v6!Exceptionloginitialization$qqrv+0x228b2
eax=00000000 ebx=7fde0010 ecx=00000080 edx=00c9f7bc esi=006fbb70 edi=00000113
eip=0051e486 esp=0164e4d0 ebp=0164e4f8 iopl=0         nv up ei pl nz na po nc
cs=0023  ss=002b  ds=002b  es=002b  fs=0053  gs=002b             efl=00000202
ws7v6!SymbeditorFinalize+0x2a16:
0051e486 81e101000080    and     ecx,80000001h
 # ChildEBP RetAddr      Args to Child              
WARNING: Stack unwind information not available. Following frames may be wrong.
00 0164e9b4 006fbb82     0164e9e8 006fba3c 0164eaf8 ws7v6!SymbeditorFinalize+0x29f1
01 0164e9e0 00645ab6     00000113 00000001 00000000 ws7v6!Exceptionloginitialization$qqrv+0xd897e
02 0164e9f8 76192edb     000209da 00000113 00000001 ws7v6!Exceptionloginitialization$qqrv+0x228b2
eax=0164e9c4 ebx=7fde0010 ecx=051c0793 edx=08532da0 esi=006fbb70 edi=00000113
eip=0051e461 esp=0164e98c ebp=0164e9b4 iopl=0         nv up ei pl nz na pe cy
cs=0023  ss=002b  ds=002b  es=002b  fs=0053  gs=002b             efl=00000207
ws7v6!SymbeditorFinalize+0x29f1:
0051e461 e802c1fcff      call    ws7v6!DlgprjuFinalize+0xf86c (004ea568)
 # ChildEBP RetAddr      Args to Child              
WARNING: Stack unwind information not available. Following frames may be wrong.
00 0164e9b4 006fbb82     0164e9e8 006fba3c 0164eaf8 ws7v6!SymbeditorFinalize+0x2a16
01 0164e9e0 00645ab6     00000113 00000001 00000000 ws7v6!Exceptionloginitialization$qqrv+0xd897e
02 0164e9f8 76192edb     000209da 00000113 00000001 ws7v6!Exceptionloginitialization$qqrv+0x228b2
eax=00000000 ebx=7fde0010 ecx=00000081 edx=00c9f7bc esi=006fbb70 edi=00000113
eip=0051e486 esp=0164e98c ebp=0164e9b4 iopl=0         nv up ei pl nz na po nc
cs=0023  ss=002b  ds=002b  es=002b  fs=0053  gs=002b             efl=00000202
ws7v6!SymbeditorFinalize+0x2a16:
0051e486 81e101000080    and     ecx,80000001h
 # ChildEBP RetAddr      Args to Child              
WARNING: Stack unwind information not available. Following frames may be wrong.
00 0164e9b4 006fbb82     0164e9e8 006fba3c 0164eaf8 ws7v6!SymbeditorFinalize+0x29f1
01 0164e9e0 00645ab6     00000113 00000001 00000000 ws7v6!Exceptionloginitialization$qqrv+0xd897e
02 0164e9f8 76192edb     000209da 00000113 00000001 ws7v6!Exceptionloginitialization$qqrv+0x228b2
eax=0164e9c4 ebx=7fde0010 ecx=051c0793 edx=08532da0 esi=006fbb70 edi=00000113
eip=0051e461 esp=0164e98c ebp=0164e9b4 iopl=0         nv up ei pl nz na pe cy
cs=0023  ss=002b  ds=002b  es=002b  fs=0053  gs=002b             efl=00000207
ws7v6!SymbeditorFinalize+0x29f1:
0051e461 e802c1fcff      call    ws7v6!DlgprjuFinalize+0xf86c (004ea568)
 # ChildEBP RetAddr      Args to Child              
WARNING: Stack unwind information not available. Following frames may be wrong.
00 0164e9b4 006fbb82     0164e9e8 006fba3c 0164eaf8 ws7v6!SymbeditorFinalize+0x2a16
01 0164e9e0 00645ab6     00000113 00000001 00000000 ws7v6!Exceptionloginitialization$qqrv+0xd897e
02 0164e9f8 76192edb     000209da 00000113 00000001 ws7v6!Exceptionloginitialization$qqrv+0x228b2
eax=00000000 ebx=7fde0010 ecx=00000082 edx=00c9f7bc esi=006fbb70 edi=00000113
eip=0051e486 esp=0164e98c ebp=0164e9b4 iopl=0         nv up ei pl nz na po nc
cs=0023  ss=002b  ds=002b  es=002b  fs=0053  gs=002b             efl=00000202
ws7v6!SymbeditorFinalize+0x2a16:
0051e486 81e101000080    and     ecx,80000001h
 # ChildEBP RetAddr      Args to Child              
WARNING: Stack unwind information not available. Following frames may be wrong.
00 0164e9b4 006fbb82     0164e9e8 006fba3c 0164eaf8 ws7v6!SymbeditorFinalize+0x29f1
01 0164e9e0 00645ab6     00000113 00000001 00000000 ws7v6!Exceptionloginitialization$qqrv+0xd897e
02 0164e9f8 76192edb     000209da 00000113 00000001 ws7v6!Exceptionloginitialization$qqrv+0x228b2
eax=0164e9c4 ebx=7fde0010 ecx=051c0793 edx=08532da0 esi=006fbb70 edi=00000113
eip=0051e461 esp=0164e98c ebp=0164e9b4 iopl=0         nv up ei pl nz na po cy
cs=0023  ss=002b  ds=002b  es=002b  fs=0053  gs=002b             efl=00000203
ws7v6!SymbeditorFinalize+0x29f1:
0051e461 e802c1fcff      call    ws7v6!DlgprjuFinalize+0xf86c (004ea568)
 # ChildEBP RetAddr      Args to Child              
WARNING: Stack unwind information not available. Following frames may be wrong.
00 0164e9b4 006fbb82     0164e9e8 006fba3c 0164eaf8 ws7v6!SymbeditorFinalize+0x2a16
01 0164e9e0 00645ab6     00000113 00000001 00000000 ws7v6!Exceptionloginitialization$qqrv+0xd897e
02 0164e9f8 76192edb     000209da 00000113 00000001 ws7v6!Exceptionloginitialization$qqrv+0x228b2
eax=00000000 ebx=7fde0010 ecx=00000083 edx=00c9f7bc esi=006fbb70 edi=00000113
eip=0051e486 esp=0164e98c ebp=0164e9b4 iopl=0         nv up ei pl nz na po nc
cs=0023  ss=002b  ds=002b  es=002b  fs=0053  gs=002b             efl=00000202
ws7v6!SymbeditorFinalize+0x2a16:
0051e486 81e101000080    and     ecx,80000001h
 # ChildEBP RetAddr      Args to Child              
WARNING: Stack unwind information not available. Following frames may be wrong.
00 0164e9b4 006fbb82     0164e9e8 006fba3c 0164eaf8 ws7v6!SymbeditorFinalize+0x29f1
01 0164e9e0 00645ab6     00000113 00000001 00000000 ws7v6!Exceptionloginitialization$qqrv+0xd897e
02 0164e9f8 76192edb     000209da 00000113 00000001 ws7v6!Exceptionloginitialization$qqrv+0x228b2
eax=0164e9c4 ebx=7fde0010 ecx=051c0793 edx=08532da0 esi=006fbb70 edi=00000113
eip=0051e461 esp=0164e98c ebp=0164e9b4 iopl=0         nv up ei pl nz na pe cy
cs=0023  ss=002b  ds=002b  es=002b  fs=0053  gs=002b             efl=00000207
ws7v6!SymbeditorFinalize+0x29f1:
0051e461 e802c1fcff      call    ws7v6!DlgprjuFinalize+0xf86c (004ea568)
 # ChildEBP RetAddr      Args to Child              
WARNING: Stack unwind information not available. Following frames may be wrong.
00 0164e9b4 006fbb82     0164e9e8 006fba3c 0164eaf8 ws7v6!SymbeditorFinalize+0x2a16
01 0164e9e0 00645ab6     00000113 00000001 00000000 ws7v6!Exceptionloginitialization$qqrv+0xd897e
02 0164e9f8 76192edb     000209da 00000113 00000001 ws7v6!Exceptionloginitialization$qqrv+0x228b2
eax=00000000 ebx=7fde0010 ecx=00000084 edx=00c9f7bc esi=006fbb70 edi=00000113
eip=0051e486 esp=0164e98c ebp=0164e9b4 iopl=0         nv up ei pl nz na po nc
cs=0023  ss=002b  ds=002b  es=002b  fs=0053  gs=002b             efl=00000202
ws7v6!SymbeditorFinalize+0x2a16:
0051e486 81e101000080    and     ecx,80000001h
 # ChildEBP RetAddr      Args to Child              
WARNING: Stack unwind information not available. Following frames may be wrong.
00 0164e9b4 006fbb82     0164e9e8 006fba3c 0164eaf8 ws7v6!SymbeditorFinalize+0x29f1
01 0164e9e0 00645ab6     00000113 00000001 00000000 ws7v6!Exceptionloginitialization$qqrv+0xd897e
02 0164e9f8 76192edb     000209da 00000113 00000001 ws7v6!Exceptionloginitialization$qqrv+0x228b2
eax=0164e9c4 ebx=7fde0010 ecx=051c0793 edx=08532da0 esi=006fbb70 edi=00000113
eip=0051e461 esp=0164e98c ebp=0164e9b4 iopl=0         nv up ei pl nz na po cy
cs=0023  ss=002b  ds=002b  es=002b  fs=0053  gs=002b             efl=00000203
ws7v6!SymbeditorFinalize+0x29f1:
0051e461 e802c1fcff      call    ws7v6!DlgprjuFinalize+0xf86c (004ea568)
 # ChildEBP RetAddr      Args to Child              
WARNING: Stack unwind information not available. Following frames may be wrong.
00 0164e9b4 006fbb82     0164e9e8 006fba3c 0164eaf8 ws7v6!SymbeditorFinalize+0x2a16
01 0164e9e0 00645ab6     00000113 00000001 00000000 ws7v6!Exceptionloginitialization$qqrv+0xd897e
02 0164e9f8 76192edb     000209da 00000113 00000001 ws7v6!Exceptionloginitialization$qqrv+0x228b2
eax=00000000 ebx=7fde0010 ecx=00000085 edx=00c9f7bc esi=006fbb70 edi=00000113
eip=0051e486 esp=0164e98c ebp=0164e9b4 iopl=0         nv up ei pl nz na po nc
cs=0023  ss=002b  ds=002b  es=002b  fs=0053  gs=002b             efl=00000202
ws7v6!SymbeditorFinalize+0x2a16:
0051e486 81e101000080    and     ecx,80000001h
 # ChildEBP RetAddr      Args to Child              
WARNING: Stack unwind information not available. Following frames may be wrong.
00 0164e9b4 006fbb82     0164e9e8 006fba3c 0164eaf8 ws7v6!SymbeditorFinalize+0x29f1
01 0164e9e0 00645ab6     00000113 00000001 00000000 ws7v6!Exceptionloginitialization$qqrv+0xd897e
02 0164e9f8 76192edb     000209da 00000113 00000001 ws7v6!Exceptionloginitialization$qqrv+0x228b2
eax=0164e9c4 ebx=7fde0010 ecx=051c0793 edx=08532da0 esi=006fbb70 edi=00000113
eip=0051e461 esp=0164e98c ebp=0164e9b4 iopl=0         nv up ei pl nz na po cy
cs=0023  ss=002b  ds=002b  es=002b  fs=0053  gs=002b             efl=00000203
ws7v6!SymbeditorFinalize+0x29f1:
0051e461 e802c1fcff      call    ws7v6!DlgprjuFinalize+0xf86c (004ea568)
 # ChildEBP RetAddr      Args to Child              
WARNING: Stack unwind information not available. Following frames may be wrong.
00 0164e9b4 006fbb82     0164e9e8 006fba3c 0164eaf8 ws7v6!SymbeditorFinalize+0x2a16
01 0164e9e0 00645ab6     00000113 00000001 00000000 ws7v6!Exceptionloginitialization$qqrv+0xd897e
02 0164e9f8 76192edb     000209da 00000113 00000001 ws7v6!Exceptionloginitialization$qqrv+0x228b2
eax=00000000 ebx=7fde0010 ecx=00000086 edx=00c9f7bc esi=006fbb70 edi=00000113
eip=0051e486 esp=0164e98c ebp=0164e9b4 iopl=0         nv up ei pl nz na po nc
cs=0023  ss=002b  ds=002b  es=002b  fs=0053  gs=002b             efl=00000202
ws7v6!SymbeditorFinalize+0x2a16:
0051e486 81e101000080    and     ecx,80000001h
 # ChildEBP RetAddr      Args to Child              
WARNING: Stack unwind information not available. Following frames may be wrong.
00 0164e9b4 006fbb82     0164e9e8 006fba3c 0164eaf8 ws7v6!SymbeditorFinalize+0x29f1
01 0164e9e0 00645ab6     00000113 00000001 00000000 ws7v6!Exceptionloginitialization$qqrv+0xd897e
02 0164e9f8 76192edb     000209da 00000113 00000001 ws7v6!Exceptionloginitialization$qqrv+0x228b2
eax=0164e9c4 ebx=7fde0010 ecx=051c0793 edx=08532da0 esi=006fbb70 edi=00000113
eip=0051e461 esp=0164e98c ebp=0164e9b4 iopl=0         nv up ei pl nz na pe cy
cs=0023  ss=002b  ds=002b  es=002b  fs=0053  gs=002b             efl=00000207
ws7v6!SymbeditorFinalize+0x29f1:
0051e461 e802c1fcff      call    ws7v6!DlgprjuFinalize+0xf86c (004ea568)
 # ChildEBP RetAddr      Args to Child              
WARNING: Stack unwind information not available. Following frames may be wrong.
00 0164e9b4 006fbb82     0164e9e8 006fba3c 0164eaf8 ws7v6!SymbeditorFinalize+0x2a16
01 0164e9e0 00645ab6     00000113 00000001 00000000 ws7v6!Exceptionloginitialization$qqrv+0xd897e
02 0164e9f8 76192edb     000209da 00000113 00000001 ws7v6!Exceptionloginitialization$qqrv+0x228b2
eax=00000000 ebx=7fde0010 ecx=00000087 edx=00c9f7bc esi=006fbb70 edi=00000113
eip=0051e486 esp=0164e98c ebp=0164e9b4 iopl=0         nv up ei pl nz na po nc
cs=0023  ss=002b  ds=002b  es=002b  fs=0053  gs=002b             efl=00000202
ws7v6!SymbeditorFinalize+0x2a16:
0051e486 81e101000080    and     ecx,80000001h
 # ChildEBP RetAddr      Args to Child              
WARNING: Stack unwind information not available. Following frames may be wrong.
00 0164e9b4 006fbb82     0164e9e8 006fba3c 0164eaf8 ws7v6!SymbeditorFinalize+0x29f1
01 0164e9e0 00645ab6     00000113 00000001 00000000 ws7v6!Exceptionloginitialization$qqrv+0xd897e
02 0164e9f8 76192edb     000209da 00000113 00000001 ws7v6!Exceptionloginitialization$qqrv+0x228b2
eax=0164e9c4 ebx=7fde0010 ecx=051c0793 edx=08532da0 esi=006fbb70 edi=00000113
eip=0051e461 esp=0164e98c ebp=0164e9b4 iopl=0         nv up ei pl nz na pe cy
cs=0023  ss=002b  ds=002b  es=002b  fs=0053  gs=002b             efl=00000207
ws7v6!SymbeditorFinalize+0x29f1:
0051e461 e802c1fcff      call    ws7v6!DlgprjuFinalize+0xf86c (004ea568)
 # ChildEBP RetAddr      Args to Child              
WARNING: Stack unwind information not available. Following frames may be wrong.
00 0164e9b4 006fbb82     0164e9e8 006fba3c 0164eaf8 ws7v6!SymbeditorFinalize+0x2a16
01 0164e9e0 00645ab6     00000113 00000001 00000000 ws7v6!Exceptionloginitialization$qqrv+0xd897e
02 0164e9f8 76192edb     000209da 00000113 00000001 ws7v6!Exceptionloginitialization$qqrv+0x228b2
eax=00000000 ebx=7fde0010 ecx=00000088 edx=00c9f7bc esi=006fbb70 edi=00000113
eip=0051e486 esp=0164e98c ebp=0164e9b4 iopl=0         nv up ei pl nz na po nc
cs=0023  ss=002b  ds=002b  es=002b  fs=0053  gs=002b             efl=00000202
ws7v6!SymbeditorFinalize+0x2a16:
0051e486 81e101000080    and     ecx,80000001h
 # ChildEBP RetAddr      Args to Child              
WARNING: Stack unwind information not available. Following frames may be wrong.
00 0164e9b4 006fbb82     0164e9e8 006fba3c 0164eaf8 ws7v6!SymbeditorFinalize+0x29f1
01 0164e9e0 00645ab6     00000113 00000001 00000000 ws7v6!Exceptionloginitialization$qqrv+0xd897e
02 0164e9f8 76192edb     000209da 00000113 00000001 ws7v6!Exceptionloginitialization$qqrv+0x228b2
eax=0164e9c4 ebx=7fde0010 ecx=051c0793 edx=08532da0 esi=006fbb70 edi=00000113
eip=0051e461 esp=0164e98c ebp=0164e9b4 iopl=0         nv up ei pl nz na po cy
cs=0023  ss=002b  ds=002b  es=002b  fs=0053  gs=002b             efl=00000203
ws7v6!SymbeditorFinalize+0x29f1:
0051e461 e802c1fcff      call    ws7v6!DlgprjuFinalize+0xf86c (004ea568)
 # ChildEBP RetAddr      Args to Child              
WARNING: Stack unwind information not available. Following frames may be wrong.
00 0164e9b4 006fbb82     0164e9e8 006fba3c 0164eaf8 ws7v6!SymbeditorFinalize+0x2a16
01 0164e9e0 00645ab6     00000113 00000001 00000000 ws7v6!Exceptionloginitialization$qqrv+0xd897e
02 0164e9f8 76192edb     000209da 00000113 00000001 ws7v6!Exceptionloginitialization$qqrv+0x228b2
eax=00000000 ebx=7fde0010 ecx=00000089 edx=00c9f7bc esi=006fbb70 edi=00000113
eip=0051e486 esp=0164e98c ebp=0164e9b4 iopl=0         nv up ei pl nz na po nc
cs=0023  ss=002b  ds=002b  es=002b  fs=0053  gs=002b             efl=00000202
ws7v6!SymbeditorFinalize+0x2a16:
0051e486 81e101000080    and     ecx,80000001h
 # ChildEBP RetAddr      Args to Child              
WARNING: Stack unwind information not available. Following frames may be wrong.
00 0164e9b4 006fbb82     0164e9e8 006fba3c 0164eaf8 ws7v6!SymbeditorFinalize+0x29f1
01 0164e9e0 00645ab6     00000113 00000001 00000000 ws7v6!Exceptionloginitialization$qqrv+0xd897e
02 0164e9f8 76192edb     000209da 00000113 00000001 ws7v6!Exceptionloginitialization$qqrv+0x228b2
eax=0164e9c4 ebx=7fde0010 ecx=051c0793 edx=08532da0 esi=006fbb70 edi=00000113
eip=0051e461 esp=0164e98c ebp=0164e9b4 iopl=0         nv up ei pl nz na po cy
cs=0023  ss=002b  ds=002b  es=002b  fs=0053  gs=002b             efl=00000203
ws7v6!SymbeditorFinalize+0x29f1:
0051e461 e802c1fcff      call    ws7v6!DlgprjuFinalize+0xf86c (004ea568)
 # ChildEBP RetAddr      Args to Child              
WARNING: Stack unwind information not available. Following frames may be wrong.
00 0164e9b4 006fbb82     0164e9e8 006fba3c 0164eaf8 ws7v6!SymbeditorFinalize+0x2a16
01 0164e9e0 00645ab6     00000113 00000001 00000000 ws7v6!Exceptionloginitialization$qqrv+0xd897e
02 0164e9f8 76192edb     000209da 00000113 00000001 ws7v6!Exceptionloginitialization$qqrv+0x228b2
eax=00000000 ebx=7fde0010 ecx=0000008a edx=00c9f7bc esi=006fbb70 edi=00000113
eip=0051e486 esp=0164e98c ebp=0164e9b4 iopl=0         nv up ei pl nz na po nc
cs=0023  ss=002b  ds=002b  es=002b  fs=0053  gs=002b             efl=00000202
ws7v6!SymbeditorFinalize+0x2a16:
0051e486 81e101000080    and     ecx,80000001h
 # ChildEBP RetAddr      Args to Child              
WARNING: Stack unwind information not available. Following frames may be wrong.
00 0164e9b4 006fbb82     0164e9e8 006fba3c 0164eaf8 ws7v6!SymbeditorFinalize+0x29f1
01 0164e9e0 00645ab6     00000113 00000001 00000000 ws7v6!Exceptionloginitialization$qqrv+0xd897e
02 0164e9f8 76192edb     000209da 00000113 00000001 ws7v6!Exceptionloginitialization$qqrv+0x228b2
eax=0164e9c4 ebx=7fde0010 ecx=051c0793 edx=08532da0 esi=006fbb70 edi=00000113
eip=0051e461 esp=0164e98c ebp=0164e9b4 iopl=0         nv up ei pl nz na pe cy
cs=0023  ss=002b  ds=002b  es=002b  fs=0053  gs=002b             efl=00000207
ws7v6!SymbeditorFinalize+0x29f1:
0051e461 e802c1fcff      call    ws7v6!DlgprjuFinalize+0xf86c (004ea568)
 # ChildEBP RetAddr      Args to Child              
WARNING: Stack unwind information not available. Following frames may be wrong.
00 0164e9b4 006fbb82     0164e9e8 006fba3c 0164eaf8 ws7v6!SymbeditorFinalize+0x2a16
01 0164e9e0 00645ab6     00000113 00000001 00000000 ws7v6!Exceptionloginitialization$qqrv+0xd897e
02 0164e9f8 76192edb     000209da 00000113 00000001 ws7v6!Exceptionloginitialization$qqrv+0x228b2
eax=00000000 ebx=7fde0010 ecx=0000008b edx=00c9f7bc esi=006fbb70 edi=00000113
eip=0051e486 esp=0164e98c ebp=0164e9b4 iopl=0         nv up ei pl nz na po nc
cs=0023  ss=002b  ds=002b  es=002b  fs=0053  gs=002b             efl=00000202
ws7v6!SymbeditorFinalize+0x2a16:
0051e486 81e101000080    and     ecx,80000001h
 # ChildEBP RetAddr      Args to Child              
WARNING: Stack unwind information not available. Following frames may be wrong.
00 0164e9b4 006fbb82     0164e9e8 006fba3c 0164eaf8 ws7v6!SymbeditorFinalize+0x29f1
01 0164e9e0 00645ab6     00000113 00000001 00000000 ws7v6!Exceptionloginitialization$qqrv+0xd897e
02 0164e9f8 76192edb     000209da 00000113 00000001 ws7v6!Exceptionloginitialization$qqrv+0x228b2
eax=0164e9c4 ebx=7fde0010 ecx=051c0793 edx=08532da0 esi=006fbb70 edi=00000113
eip=0051e461 esp=0164e98c ebp=0164e9b4 iopl=0         nv up ei pl nz na po cy
cs=0023  ss=002b  ds=002b  es=002b  fs=0053  gs=002b             efl=00000203
ws7v6!SymbeditorFinalize+0x29f1:
0051e461 e802c1fcff      call    ws7v6!DlgprjuFinalize+0xf86c (004ea568)
 # ChildEBP RetAddr      Args to Child              
WARNING: Stack unwind information not available. Following frames may be wrong.
00 0164e9b4 006fbb82     0164e9e8 006fba3c 0164eaf8 ws7v6!SymbeditorFinalize+0x2a16
01 0164e9e0 00645ab6     00000113 00000001 00000000 ws7v6!Exceptionloginitialization$qqrv+0xd897e
02 0164e9f8 76192edb     000209da 00000113 00000001 ws7v6!Exceptionloginitialization$qqrv+0x228b2
eax=00000000 ebx=7fde0010 ecx=0000008c edx=00c9f7bc esi=006fbb70 edi=00000113
eip=0051e486 esp=0164e98c ebp=0164e9b4 iopl=0         nv up ei pl nz na po nc
cs=0023  ss=002b  ds=002b  es=002b  fs=0053  gs=002b             efl=00000202
ws7v6!SymbeditorFinalize+0x2a16:
0051e486 81e101000080    and     ecx,80000001h
 # ChildEBP RetAddr      Args to Child              
WARNING: Stack unwind information not available. Following frames may be wrong.
00 0164e9b4 006fbb82     0164e9e8 006fba3c 0164eaf8 ws7v6!SymbeditorFinalize+0x29f1
01 0164e9e0 00645ab6     00000113 00000001 00000000 ws7v6!Exceptionloginitialization$qqrv+0xd897e
02 0164e9f8 76192edb     000209da 00000113 00000001 ws7v6!Exceptionloginitialization$qqrv+0x228b2
eax=0164e9c4 ebx=7fde0010 ecx=051c0793 edx=08532da0 esi=006fbb70 edi=00000113
eip=0051e461 esp=0164e98c ebp=0164e9b4 iopl=0         nv up ei pl nz na pe cy
cs=0023  ss=002b  ds=002b  es=002b  fs=0053  gs=002b             efl=00000207
ws7v6!SymbeditorFinalize+0x29f1:
0051e461 e802c1fcff      call    ws7v6!DlgprjuFinalize+0xf86c (004ea568)
 # ChildEBP RetAddr      Args to Child              
WARNING: Stack unwind information not available. Following frames may be wrong.
00 0164e9b4 006fbb82     0164e9e8 006fba3c 0164eaf8 ws7v6!SymbeditorFinalize+0x2a16
01 0164e9e0 00645ab6     00000113 00000001 00000000 ws7v6!Exceptionloginitialization$qqrv+0xd897e
02 0164e9f8 76192edb     000209da 00000113 00000001 ws7v6!Exceptionloginitialization$qqrv+0x228b2
eax=00000000 ebx=7fde0010 ecx=0000008d edx=00c9f7bc esi=006fbb70 edi=00000113
eip=0051e486 esp=0164e98c ebp=0164e9b4 iopl=0         nv up ei pl nz na po nc
cs=0023  ss=002b  ds=002b  es=002b  fs=0053  gs=002b             efl=00000202
ws7v6!SymbeditorFinalize+0x2a16:
0051e486 81e101000080    and     ecx,80000001h
 # ChildEBP RetAddr      Args to Child              
WARNING: Stack unwind information not available. Following frames may be wrong.
00 0164e9b4 006fbb82     0164e9e8 006fba3c 0164eaf8 ws7v6!SymbeditorFinalize+0x29f1
01 0164e9e0 00645ab6     00000113 00000001 00000000 ws7v6!Exceptionloginitialization$qqrv+0xd897e
02 0164e9f8 76192edb     000209da 00000113 00000001 ws7v6!Exceptionloginitialization$qqrv+0x228b2
eax=0164e9c4 ebx=7fde0010 ecx=051c0793 edx=08532da0 esi=006fbb70 edi=00000113
eip=0051e461 esp=0164e98c ebp=0164e9b4 iopl=0         nv up ei pl nz na pe cy
cs=0023  ss=002b  ds=002b  es=002b  fs=0053  gs=002b             efl=00000207
ws7v6!SymbeditorFinalize+0x29f1:
0051e461 e802c1fcff      call    ws7v6!DlgprjuFinalize+0xf86c (004ea568)
 # ChildEBP RetAddr      Args to Child              
WARNING: Stack unwind information not available. Following frames may be wrong.
00 0164e9b4 006fbb82     0164e9e8 006fba3c 0164eaf8 ws7v6!SymbeditorFinalize+0x2a16
01 0164e9e0 00645ab6     00000113 00000001 00000000 ws7v6!Exceptionloginitialization$qqrv+0xd897e
02 0164e9f8 76192edb     000209da 00000113 00000001 ws7v6!Exceptionloginitialization$qqrv+0x228b2
eax=00000000 ebx=7fde0010 ecx=0000008e edx=00c9f7bc esi=006fbb70 edi=00000113
eip=0051e486 esp=0164e98c ebp=0164e9b4 iopl=0         nv up ei pl nz na po nc
cs=0023  ss=002b  ds=002b  es=002b  fs=0053  gs=002b             efl=00000202
ws7v6!SymbeditorFinalize+0x2a16:
0051e486 81e101000080    and     ecx,80000001h
 # ChildEBP RetAddr      Args to Child              
WARNING: Stack unwind information not available. Following frames may be wrong.
00 0164e9b4 006fbb82     0164e9e8 006fba3c 0164eaf8 ws7v6!SymbeditorFinalize+0x29f1
01 0164e9e0 00645ab6     00000113 00000001 00000000 ws7v6!Exceptionloginitialization$qqrv+0xd897e
02 0164e9f8 76192edb     000209da 00000113 00000001 ws7v6!Exceptionloginitialization$qqrv+0x228b2
eax=0164e9c4 ebx=7fde0010 ecx=051c0793 edx=08532da0 esi=006fbb70 edi=00000113
eip=0051e461 esp=0164e98c ebp=0164e9b4 iopl=0         nv up ei pl nz na po cy
cs=0023  ss=002b  ds=002b  es=002b  fs=0053  gs=002b             efl=00000203
ws7v6!SymbeditorFinalize+0x29f1:
0051e461 e802c1fcff      call    ws7v6!DlgprjuFinalize+0xf86c (004ea568)
 # ChildEBP RetAddr      Args to Child              
WARNING: Stack unwind information not available. Following frames may be wrong.
00 0164e9b4 006fbb82     0164e9e8 006fba3c 0164eaf8 ws7v6!SymbeditorFinalize+0x2a16
01 0164e9e0 00645ab6     00000113 00000001 00000000 ws7v6!Exceptionloginitialization$qqrv+0xd897e
02 0164e9f8 76192edb     000209da 00000113 00000001 ws7v6!Exceptionloginitialization$qqrv+0x228b2
eax=00000000 ebx=7fde0010 ecx=0000008f edx=00c9f7bc esi=006fbb70 edi=00000113
eip=0051e486 esp=0164e98c ebp=0164e9b4 iopl=0         nv up ei pl nz na po nc
cs=0023  ss=002b  ds=002b  es=002b  fs=0053  gs=002b             efl=00000202
ws7v6!SymbeditorFinalize+0x2a16:
0051e486 81e101000080    and     ecx,80000001h
 # ChildEBP RetAddr      Args to Child              
WARNING: Stack unwind information not available. Following frames may be wrong.
00 0164e9b4 006fbb82     0164e9e8 006fba3c 0164eaf8 ws7v6!SymbeditorFinalize+0x29f1
01 0164e9e0 00645ab6     00000113 00000001 00000000 ws7v6!Exceptionloginitialization$qqrv+0xd897e
02 0164e9f8 76192edb     000209da 00000113 00000001 ws7v6!Exceptionloginitialization$qqrv+0x228b2
eax=0164e9c4 ebx=7fde0010 ecx=051c0793 edx=08532da0 esi=006fbb70 edi=00000113
eip=0051e461 esp=0164e98c ebp=0164e9b4 iopl=0         nv up ei pl nz ac pe cy
cs=0023  ss=002b  ds=002b  es=002b  fs=0053  gs=002b             efl=00000217
ws7v6!SymbeditorFinalize+0x29f1:
0051e461 e802c1fcff      call    ws7v6!DlgprjuFinalize+0xf86c (004ea568)
 # ChildEBP RetAddr      Args to Child              
WARNING: Stack unwind information not available. Following frames may be wrong.
00 0164e9b4 006fbb82     0164e9e8 006fba3c 0164eaf8 ws7v6!SymbeditorFinalize+0x2a16
01 0164e9e0 00645ab6     00000113 00000001 00000000 ws7v6!Exceptionloginitialization$qqrv+0xd897e
02 0164e9f8 76192edb     000209da 00000113 00000001 ws7v6!Exceptionloginitialization$qqrv+0x228b2
eax=00000000 ebx=7fde0010 ecx=00000090 edx=00c9f7bc esi=006fbb70 edi=00000113
eip=0051e486 esp=0164e98c ebp=0164e9b4 iopl=0         nv up ei pl nz na po nc
cs=0023  ss=002b  ds=002b  es=002b  fs=0053  gs=002b             efl=00000202
ws7v6!SymbeditorFinalize+0x2a16:
0051e486 81e101000080    and     ecx,80000001h
 # ChildEBP RetAddr      Args to Child              
WARNING: Stack unwind information not available. Following frames may be wrong.
00 0164e9b4 006fbb82     0164e9e8 006fba3c 0164eaf8 ws7v6!SymbeditorFinalize+0x29f1
01 0164e9e0 00645ab6     00000113 00000001 00000000 ws7v6!Exceptionloginitialization$qqrv+0xd897e
02 0164e9f8 76192edb     000209da 00000113 00000001 ws7v6!Exceptionloginitialization$qqrv+0x228b2
eax=0164e9c4 ebx=7fde0010 ecx=051c0793 edx=08532da0 esi=006fbb70 edi=00000113
eip=0051e461 esp=0164e98c ebp=0164e9b4 iopl=0         nv up ei pl nz na po cy
cs=0023  ss=002b  ds=002b  es=002b  fs=0053  gs=002b             efl=00000203
ws7v6!SymbeditorFinalize+0x29f1:
0051e461 e802c1fcff      call    ws7v6!DlgprjuFinalize+0xf86c (004ea568)
 # ChildEBP RetAddr      Args to Child              
WARNING: Stack unwind information not available. Following frames may be wrong.
00 0164e9b4 006fbb82     0164e9e8 006fba3c 0164eaf8 ws7v6!SymbeditorFinalize+0x2a16
01 0164e9e0 00645ab6     00000113 00000001 00000000 ws7v6!Exceptionloginitialization$qqrv+0xd897e
02 0164e9f8 76192edb     000209da 00000113 00000001 ws7v6!Exceptionloginitialization$qqrv+0x228b2
eax=00000000 ebx=7fde0010 ecx=00000091 edx=00c9f7bc esi=006fbb70 edi=00000113
eip=0051e486 esp=0164e98c ebp=0164e9b4 iopl=0         nv up ei pl nz na po nc
cs=0023  ss=002b  ds=002b  es=002b  fs=0053  gs=002b             efl=00000202
ws7v6!SymbeditorFinalize+0x2a16:
0051e486 81e101000080    and     ecx,80000001h
 # ChildEBP RetAddr      Args to Child              
WARNING: Stack unwind information not available. Following frames may be wrong.
00 0164e9b4 006fbb82     0164e9e8 006fba3c 0164eaf8 ws7v6!SymbeditorFinalize+0x29f1
01 0164e9e0 00645ab6     00000113 00000001 00000000 ws7v6!Exceptionloginitialization$qqrv+0xd897e
02 0164e9f8 76192edb     000209da 00000113 00000001 ws7v6!Exceptionloginitialization$qqrv+0x228b2
eax=0164e9c4 ebx=7fde0010 ecx=051c0793 edx=08532da0 esi=006fbb70 edi=00000113
eip=0051e461 esp=0164e98c ebp=0164e9b4 iopl=0         nv up ei pl nz na po cy
cs=0023  ss=002b  ds=002b  es=002b  fs=0053  gs=002b             efl=00000203
ws7v6!SymbeditorFinalize+0x29f1:
0051e461 e802c1fcff      call    ws7v6!DlgprjuFinalize+0xf86c (004ea568)
 # ChildEBP RetAddr      Args to Child              
WARNING: Stack unwind information not available. Following frames may be wrong.
00 0164e9b4 006fbb82     0164e9e8 006fba3c 0164eaf8 ws7v6!SymbeditorFinalize+0x2a16
01 0164e9e0 00645ab6     00000113 00000001 00000000 ws7v6!Exceptionloginitialization$qqrv+0xd897e
02 0164e9f8 76192edb     000209da 00000113 00000001 ws7v6!Exceptionloginitialization$qqrv+0x228b2
eax=00000000 ebx=7fde0010 ecx=00000092 edx=00c9f7bc esi=006fbb70 edi=00000113
eip=0051e486 esp=0164e98c ebp=0164e9b4 iopl=0         nv up ei pl nz na po nc
cs=0023  ss=002b  ds=002b  es=002b  fs=0053  gs=002b             efl=00000202
ws7v6!SymbeditorFinalize+0x2a16:
0051e486 81e101000080    and     ecx,80000001h
 # ChildEBP RetAddr      Args to Child              
WARNING: Stack unwind information not available. Following frames may be wrong.
00 0164e9b4 006fbb82     0164e9e8 006fba3c 0164eaf8 ws7v6!SymbeditorFinalize+0x29f1
01 0164e9e0 00645ab6     00000113 00000001 00000000 ws7v6!Exceptionloginitialization$qqrv+0xd897e
02 0164e9f8 76192edb     000209da 00000113 00000001 ws7v6!Exceptionloginitialization$qqrv+0x228b2
eax=0164e9c4 ebx=7fde0010 ecx=051c0793 edx=08532da0 esi=006fbb70 edi=00000113
eip=0051e461 esp=0164e98c ebp=0164e9b4 iopl=0         nv up ei pl nz na pe cy
cs=0023  ss=002b  ds=002b  es=002b  fs=0053  gs=002b             efl=00000207
ws7v6!SymbeditorFinalize+0x29f1:
0051e461 e802c1fcff      call    ws7v6!DlgprjuFinalize+0xf86c (004ea568)
 # ChildEBP RetAddr      Args to Child              
WARNING: Stack unwind information not available. Following frames may be wrong.
00 0164e9b4 006fbb82     0164e9e8 006fba3c 0164eaf8 ws7v6!SymbeditorFinalize+0x2a16
01 0164e9e0 00645ab6     00000113 00000001 00000000 ws7v6!Exceptionloginitialization$qqrv+0xd897e
02 0164e9f8 76192edb     000209da 00000113 00000001 ws7v6!Exceptionloginitialization$qqrv+0x228b2
eax=00000000 ebx=7fde0010 ecx=00000093 edx=00c9f7bc esi=006fbb70 edi=00000113
eip=0051e486 esp=0164e98c ebp=0164e9b4 iopl=0         nv up ei pl nz na po nc
cs=0023  ss=002b  ds=002b  es=002b  fs=0053  gs=002b             efl=00000202
ws7v6!SymbeditorFinalize+0x2a16:
0051e486 81e101000080    and     ecx,80000001h
 # ChildEBP RetAddr      Args to Child              
WARNING: Stack unwind information not available. Following frames may be wrong.
00 0164e9b4 006fbb82     0164e9e8 006fba3c 0164eaf8 ws7v6!SymbeditorFinalize+0x29f1
01 0164e9e0 00645ab6     00000113 00000001 00000000 ws7v6!Exceptionloginitialization$qqrv+0xd897e
02 0164e9f8 76192edb     000209da 00000113 00000001 ws7v6!Exceptionloginitialization$qqrv+0x228b2
eax=0164e9c4 ebx=7fde0010 ecx=051c0793 edx=08532da0 esi=006fbb70 edi=00000113
eip=0051e461 esp=0164e98c ebp=0164e9b4 iopl=0         nv up ei pl nz na po cy
cs=0023  ss=002b  ds=002b  es=002b  fs=0053  gs=002b             efl=00000203
ws7v6!SymbeditorFinalize+0x29f1:
0051e461 e802c1fcff      call    ws7v6!DlgprjuFinalize+0xf86c (004ea568)
 # ChildEBP RetAddr      Args to Child              
WARNING: Stack unwind information not available. Following frames may be wrong.
00 0164e9b4 006fbb82     0164e9e8 006fba3c 0164eaf8 ws7v6!SymbeditorFinalize+0x2a16
01 0164e9e0 00645ab6     00000113 00000001 00000000 ws7v6!Exceptionloginitialization$qqrv+0xd897e
02 0164e9f8 76192edb     000209da 00000113 00000001 ws7v6!Exceptionloginitialization$qqrv+0x228b2
eax=00000000 ebx=7fde0010 ecx=00000094 edx=00c9f7bc esi=006fbb70 edi=00000113
eip=0051e486 esp=0164e98c ebp=0164e9b4 iopl=0         nv up ei pl nz na po nc
cs=0023  ss=002b  ds=002b  es=002b  fs=0053  gs=002b             efl=00000202
ws7v6!SymbeditorFinalize+0x2a16:
0051e486 81e101000080    and     ecx,80000001h
 # ChildEBP RetAddr      Args to Child              
WARNING: Stack unwind information not available. Following frames may be wrong.
00 0164e9b4 006fbb82     0164e9e8 006fba3c 0164eaf8 ws7v6!SymbeditorFinalize+0x29f1
01 0164e9e0 00645ab6     00000113 00000001 00000000 ws7v6!Exceptionloginitialization$qqrv+0xd897e
02 0164e9f8 76192edb     000209da 00000113 00000001 ws7v6!Exceptionloginitialization$qqrv+0x228b2
eax=0164e9c4 ebx=7fde0010 ecx=051c0793 edx=08532da0 esi=006fbb70 edi=00000113
eip=0051e461 esp=0164e98c ebp=0164e9b4 iopl=0         nv up ei pl nz na pe cy
cs=0023  ss=002b  ds=002b  es=002b  fs=0053  gs=002b             efl=00000207
ws7v6!SymbeditorFinalize+0x29f1:
0051e461 e802c1fcff      call    ws7v6!DlgprjuFinalize+0xf86c (004ea568)
 # ChildEBP RetAddr      Args to Child              
WARNING: Stack unwind information not available. Following frames may be wrong.
00 0164e9b4 006fbb82     0164e9e8 006fba3c 0164eaf8 ws7v6!SymbeditorFinalize+0x2a16
01 0164e9e0 00645ab6     00000113 00000001 00000000 ws7v6!Exceptionloginitialization$qqrv+0xd897e
02 0164e9f8 76192edb     000209da 00000113 00000001 ws7v6!Exceptionloginitialization$qqrv+0x228b2
eax=00000000 ebx=7fde0010 ecx=00000095 edx=00c9f7bc esi=006fbb70 edi=00000113
eip=0051e486 esp=0164e98c ebp=0164e9b4 iopl=0         nv up ei pl nz na po nc
cs=0023  ss=002b  ds=002b  es=002b  fs=0053  gs=002b             efl=00000202
ws7v6!SymbeditorFinalize+0x2a16:
0051e486 81e101000080    and     ecx,80000001h
 # ChildEBP RetAddr      Args to Child              
WARNING: Stack unwind information not available. Following frames may be wrong.
00 0164e9b4 006fbb82     0164e9e8 006fba3c 0164eaf8 ws7v6!SymbeditorFinalize+0x29f1
01 0164e9e0 00645ab6     00000113 00000001 00000000 ws7v6!Exceptionloginitialization$qqrv+0xd897e
02 0164e9f8 76192edb     000209da 00000113 00000001 ws7v6!Exceptionloginitialization$qqrv+0x228b2
eax=0164e9c4 ebx=7fde0010 ecx=051c0793 edx=08532da0 esi=006fbb70 edi=00000113
eip=0051e461 esp=0164e98c ebp=0164e9b4 iopl=0         nv up ei pl nz na pe cy
cs=0023  ss=002b  ds=002b  es=002b  fs=0053  gs=002b             efl=00000207
ws7v6!SymbeditorFinalize+0x29f1:
0051e461 e802c1fcff      call    ws7v6!DlgprjuFinalize+0xf86c (004ea568)
 # ChildEBP RetAddr      Args to Child              
WARNING: Stack unwind information not available. Following frames may be wrong.
00 0164e9b4 006fbb82     0164e9e8 006fba3c 0164eaf8 ws7v6!SymbeditorFinalize+0x2a16
01 0164e9e0 00645ab6     00000113 00000001 00000000 ws7v6!Exceptionloginitialization$qqrv+0xd897e
02 0164e9f8 76192edb     000209da 00000113 00000001 ws7v6!Exceptionloginitialization$qqrv+0x228b2
eax=00000000 ebx=7fde0010 ecx=00000096 edx=00c9f7bc esi=006fbb70 edi=00000113
eip=0051e486 esp=0164e98c ebp=0164e9b4 iopl=0         nv up ei pl nz na po nc
cs=0023  ss=002b  ds=002b  es=002b  fs=0053  gs=002b             efl=00000202
ws7v6!SymbeditorFinalize+0x2a16:
0051e486 81e101000080    and     ecx,80000001h
 # ChildEBP RetAddr      Args to Child              
WARNING: Stack unwind information not available. Following frames may be wrong.
00 0164e9b4 006fbb82     0164e9e8 006fba3c 0164eaf8 ws7v6!SymbeditorFinalize+0x29f1
01 0164e9e0 00645ab6     00000113 00000001 00000000 ws7v6!Exceptionloginitialization$qqrv+0xd897e
02 0164e9f8 76192edb     000209da 00000113 00000001 ws7v6!Exceptionloginitialization$qqrv+0x228b2
eax=0164e9c4 ebx=7fde0010 ecx=051c0793 edx=08532da0 esi=006fbb70 edi=00000113
eip=0051e461 esp=0164e98c ebp=0164e9b4 iopl=0         nv up ei pl nz na po cy
cs=0023  ss=002b  ds=002b  es=002b  fs=0053  gs=002b             efl=00000203
ws7v6!SymbeditorFinalize+0x29f1:
0051e461 e802c1fcff      call    ws7v6!DlgprjuFinalize+0xf86c (004ea568)
 # ChildEBP RetAddr      Args to Child              
WARNING: Stack unwind information not available. Following frames may be wrong.
00 0164e9b4 006fbb82     0164e9e8 006fba3c 0164eaf8 ws7v6!SymbeditorFinalize+0x2a16
01 0164e9e0 00645ab6     00000113 00000001 00000000 ws7v6!Exceptionloginitialization$qqrv+0xd897e
02 0164e9f8 76192edb     000209da 00000113 00000001 ws7v6!Exceptionloginitialization$qqrv+0x228b2
eax=00000000 ebx=7fde0010 ecx=00000097 edx=00c9f7bc esi=006fbb70 edi=00000113
eip=0051e486 esp=0164e98c ebp=0164e9b4 iopl=0         nv up ei pl nz na po nc
cs=0023  ss=002b  ds=002b  es=002b  fs=0053  gs=002b             efl=00000202
ws7v6!SymbeditorFinalize+0x2a16:
0051e486 81e101000080    and     ecx,80000001h
 # ChildEBP RetAddr      Args to Child              
WARNING: Stack unwind information not available. Following frames may be wrong.
00 0164e9b4 006fbb82     0164e9e8 006fba3c 0164eaf8 ws7v6!SymbeditorFinalize+0x29f1
01 0164e9e0 00645ab6     00000113 00000001 00000000 ws7v6!Exceptionloginitialization$qqrv+0xd897e
02 0164e9f8 76192edb     000209da 00000113 00000001 ws7v6!Exceptionloginitialization$qqrv+0x228b2
eax=0164e9c4 ebx=7fde0010 ecx=051c0793 edx=08532da0 esi=006fbb70 edi=00000113
eip=0051e461 esp=0164e98c ebp=0164e9b4 iopl=0         nv up ei pl nz na po cy
cs=0023  ss=002b  ds=002b  es=002b  fs=0053  gs=002b             efl=00000203
ws7v6!SymbeditorFinalize+0x29f1:
0051e461 e802c1fcff      call    ws7v6!DlgprjuFinalize+0xf86c (004ea568)
 # ChildEBP RetAddr      Args to Child              
WARNING: Stack unwind information not available. Following frames may be wrong.
00 0164e9b4 006fbb82     0164e9e8 006fba3c 0164eaf8 ws7v6!SymbeditorFinalize+0x2a16
01 0164e9e0 00645ab6     00000113 00000001 00000000 ws7v6!Exceptionloginitialization$qqrv+0xd897e
02 0164e9f8 76192edb     000209da 00000113 00000001 ws7v6!Exceptionloginitialization$qqrv+0x228b2
eax=00000000 ebx=7fde0010 ecx=00000098 edx=00c9f7bc esi=006fbb70 edi=00000113
eip=0051e486 esp=0164e98c ebp=0164e9b4 iopl=0         nv up ei pl nz na po nc
cs=0023  ss=002b  ds=002b  es=002b  fs=0053  gs=002b             efl=00000202
ws7v6!SymbeditorFinalize+0x2a16:
0051e486 81e101000080    and     ecx,80000001h
 # ChildEBP RetAddr      Args to Child              
WARNING: Stack unwind information not available. Following frames may be wrong.
00 0164e9b4 006fbb82     0164e9e8 006fba3c 0164eaf8 ws7v6!SymbeditorFinalize+0x29f1
01 0164e9e0 00645ab6     00000113 00000001 00000000 ws7v6!Exceptionloginitialization$qqrv+0xd897e
02 0164e9f8 76192edb     000209da 00000113 00000001 ws7v6!Exceptionloginitialization$qqrv+0x228b2
eax=0164e9c4 ebx=7fde0010 ecx=051c0793 edx=08532da0 esi=006fbb70 edi=00000113
eip=0051e461 esp=0164e98c ebp=0164e9b4 iopl=0         nv up ei pl nz na pe cy
cs=0023  ss=002b  ds=002b  es=002b  fs=0053  gs=002b             efl=00000207
ws7v6!SymbeditorFinalize+0x29f1:
0051e461 e802c1fcff      call    ws7v6!DlgprjuFinalize+0xf86c (004ea568)
 # ChildEBP RetAddr      Args to Child              
WARNING: Stack unwind information not available. Following frames may be wrong.
00 0164e9b4 006fbb82     0164e9e8 006fba3c 0164eaf8 ws7v6!SymbeditorFinalize+0x2a16
01 0164e9e0 00645ab6     00000113 00000001 00000000 ws7v6!Exceptionloginitialization$qqrv+0xd897e
02 0164e9f8 76192edb     000209da 00000113 00000001 ws7v6!Exceptionloginitialization$qqrv+0x228b2
eax=00000000 ebx=7fde0010 ecx=00000099 edx=00c9f7bc esi=006fbb70 edi=00000113
eip=0051e486 esp=0164e98c ebp=0164e9b4 iopl=0         nv up ei pl nz na po nc
cs=0023  ss=002b  ds=002b  es=002b  fs=0053  gs=002b             efl=00000202
ws7v6!SymbeditorFinalize+0x2a16:
0051e486 81e101000080    and     ecx,80000001h
 # ChildEBP RetAddr      Args to Child              
WARNING: Stack unwind information not available. Following frames may be wrong.
00 0164e9b4 006fbb82     0164e9e8 006fba3c 0164eaf8 ws7v6!SymbeditorFinalize+0x29f1
01 0164e9e0 00645ab6     00000113 00000001 00000000 ws7v6!Exceptionloginitialization$qqrv+0xd897e
02 0164e9f8 76192edb     000209da 00000113 00000001 ws7v6!Exceptionloginitialization$qqrv+0x228b2
eax=0164e9c4 ebx=7fde0010 ecx=051c0793 edx=08532da0 esi=006fbb70 edi=00000113
eip=0051e461 esp=0164e98c ebp=0164e9b4 iopl=0         nv up ei pl nz na pe cy
cs=0023  ss=002b  ds=002b  es=002b  fs=0053  gs=002b             efl=00000207
ws7v6!SymbeditorFinalize+0x29f1:
0051e461 e802c1fcff      call    ws7v6!DlgprjuFinalize+0xf86c (004ea568)
 # ChildEBP RetAddr      Args to Child              
WARNING: Stack unwind information not available. Following frames may be wrong.
00 0164e9b4 006fbb82     0164e9e8 006fba3c 0164eaf8 ws7v6!SymbeditorFinalize+0x2a16
01 0164e9e0 00645ab6     00000113 00000001 00000000 ws7v6!Exceptionloginitialization$qqrv+0xd897e
02 0164e9f8 76192edb     000209da 00000113 00000001 ws7v6!Exceptionloginitialization$qqrv+0x228b2
eax=00000000 ebx=7fde0010 ecx=0000009a edx=00c9f7bc esi=006fbb70 edi=00000113
eip=0051e486 esp=0164e98c ebp=0164e9b4 iopl=0         nv up ei pl nz na po nc
cs=0023  ss=002b  ds=002b  es=002b  fs=0053  gs=002b             efl=00000202
ws7v6!SymbeditorFinalize+0x2a16:
0051e486 81e101000080    and     ecx,80000001h
 # ChildEBP RetAddr      Args to Child              
WARNING: Stack unwind information not available. Following frames may be wrong.
00 0164e9b4 006fbb82     0164e9e8 006fba3c 0164eaf8 ws7v6!SymbeditorFinalize+0x29f1
01 0164e9e0 00645ab6     00000113 00000001 00000000 ws7v6!Exceptionloginitialization$qqrv+0xd897e
02 0164e9f8 76192edb     000209da 00000113 00000001 ws7v6!Exceptionloginitialization$qqrv+0x228b2
eax=0164e9c4 ebx=7fde0010 ecx=051c0793 edx=08532da0 esi=006fbb70 edi=00000113
eip=0051e461 esp=0164e98c ebp=0164e9b4 iopl=0         nv up ei pl nz na po cy
cs=0023  ss=002b  ds=002b  es=002b  fs=0053  gs=002b             efl=00000203
ws7v6!SymbeditorFinalize+0x29f1:
0051e461 e802c1fcff      call    ws7v6!DlgprjuFinalize+0xf86c (004ea568)
 # ChildEBP RetAddr      Args to Child              
WARNING: Stack unwind information not available. Following frames may be wrong.
00 0164e9b4 006fbb82     0164e9e8 006fba3c 0164eaf8 ws7v6!SymbeditorFinalize+0x2a16
01 0164e9e0 00645ab6     00000113 00000001 00000000 ws7v6!Exceptionloginitialization$qqrv+0xd897e
02 0164e9f8 76192edb     000209da 00000113 00000001 ws7v6!Exceptionloginitialization$qqrv+0x228b2
eax=00000000 ebx=7fde0010 ecx=0000009b edx=00c9f7bc esi=006fbb70 edi=00000113
eip=0051e486 esp=0164e98c ebp=0164e9b4 iopl=0         nv up ei pl nz na po nc
cs=0023  ss=002b  ds=002b  es=002b  fs=0053  gs=002b             efl=00000202
ws7v6!SymbeditorFinalize+0x2a16:
0051e486 81e101000080    and     ecx,80000001h
 # ChildEBP RetAddr      Args to Child              
WARNING: Stack unwind information not available. Following frames may be wrong.
00 0164e9b4 006fbb82     0164e9e8 006fba3c 0164eaf8 ws7v6!SymbeditorFinalize+0x29f1
01 0164e9e0 00645ab6     00000113 00000001 00000000 ws7v6!Exceptionloginitialization$qqrv+0xd897e
02 0164e9f8 76192edb     000209da 00000113 00000001 ws7v6!Exceptionloginitialization$qqrv+0x228b2
eax=0164e9c4 ebx=7fde0010 ecx=051c0793 edx=08532da0 esi=006fbb70 edi=00000113
eip=0051e461 esp=0164e98c ebp=0164e9b4 iopl=0         nv up ei pl nz na pe cy
cs=0023  ss=002b  ds=002b  es=002b  fs=0053  gs=002b             efl=00000207
ws7v6!SymbeditorFinalize+0x29f1:
0051e461 e802c1fcff      call    ws7v6!DlgprjuFinalize+0xf86c (004ea568)
 # ChildEBP RetAddr      Args to Child              
WARNING: Stack unwind information not available. Following frames may be wrong.
00 0164e9b4 006fbb82     0164e9e8 006fba3c 0164eaf8 ws7v6!SymbeditorFinalize+0x2a16
01 0164e9e0 00645ab6     00000113 00000001 00000000 ws7v6!Exceptionloginitialization$qqrv+0xd897e
02 0164e9f8 76192edb     000209da 00000113 00000001 ws7v6!Exceptionloginitialization$qqrv+0x228b2
eax=00000000 ebx=7fde0010 ecx=0000009c edx=00c9f7bc esi=006fbb70 edi=00000113
eip=0051e486 esp=0164e98c ebp=0164e9b4 iopl=0         nv up ei pl nz na po nc
cs=0023  ss=002b  ds=002b  es=002b  fs=0053  gs=002b             efl=00000202
ws7v6!SymbeditorFinalize+0x2a16:
0051e486 81e101000080    and     ecx,80000001h
 # ChildEBP RetAddr      Args to Child              
WARNING: Stack unwind information not available. Following frames may be wrong.
00 0164e9b4 006fbb82     0164e9e8 006fba3c 0164eaf8 ws7v6!SymbeditorFinalize+0x29f1
01 0164e9e0 00645ab6     00000113 00000001 00000000 ws7v6!Exceptionloginitialization$qqrv+0xd897e
02 0164e9f8 76192edb     000209da 00000113 00000001 ws7v6!Exceptionloginitialization$qqrv+0x228b2
eax=0164e9c4 ebx=7fde0010 ecx=051c0793 edx=08532da0 esi=006fbb70 edi=00000113
eip=0051e461 esp=0164e98c ebp=0164e9b4 iopl=0         nv up ei pl nz na po cy
cs=0023  ss=002b  ds=002b  es=002b  fs=0053  gs=002b             efl=00000203
ws7v6!SymbeditorFinalize+0x29f1:
0051e461 e802c1fcff      call    ws7v6!DlgprjuFinalize+0xf86c (004ea568)
 # ChildEBP RetAddr      Args to Child              
WARNING: Stack unwind information not available. Following frames may be wrong.
00 0164e9b4 006fbb82     0164e9e8 006fba3c 0164eaf8 ws7v6!SymbeditorFinalize+0x2a16
01 0164e9e0 00645ab6     00000113 00000001 00000000 ws7v6!Exceptionloginitialization$qqrv+0xd897e
02 0164e9f8 76192edb     000209da 00000113 00000001 ws7v6!Exceptionloginitialization$qqrv+0x228b2
eax=00000000 ebx=7fde0010 ecx=0000009d edx=00c9f7bc esi=006fbb70 edi=00000113
eip=0051e486 esp=0164e98c ebp=0164e9b4 iopl=0         nv up ei pl nz na po nc
cs=0023  ss=002b  ds=002b  es=002b  fs=0053  gs=002b             efl=00000202
ws7v6!SymbeditorFinalize+0x2a16:
0051e486 81e101000080    and     ecx,80000001h
 # ChildEBP RetAddr      Args to Child              
WARNING: Stack unwind information not available. Following frames may be wrong.
00 0164e9b4 006fbb82     0164e9e8 006fba3c 0164eaf8 ws7v6!SymbeditorFinalize+0x29f1
01 0164e9e0 00645ab6     00000113 00000001 00000000 ws7v6!Exceptionloginitialization$qqrv+0xd897e
02 0164e9f8 76192edb     000209da 00000113 00000001 ws7v6!Exceptionloginitialization$qqrv+0x228b2
eax=0164e9c4 ebx=7fde0010 ecx=051c0793 edx=08532da0 esi=006fbb70 edi=00000113
eip=0051e461 esp=0164e98c ebp=0164e9b4 iopl=0         nv up ei pl nz na po cy
cs=0023  ss=002b  ds=002b  es=002b  fs=0053  gs=002b             efl=00000203
ws7v6!SymbeditorFinalize+0x29f1:
0051e461 e802c1fcff      call    ws7v6!DlgprjuFinalize+0xf86c (004ea568)
 # ChildEBP RetAddr      Args to Child              
WARNING: Stack unwind information not available. Following frames may be wrong.
00 0164e9b4 006fbb82     0164e9e8 006fba3c 0164eaf8 ws7v6!SymbeditorFinalize+0x2a16
01 0164e9e0 00645ab6     00000113 00000001 00000000 ws7v6!Exceptionloginitialization$qqrv+0xd897e
02 0164e9f8 76192edb     000209da 00000113 00000001 ws7v6!Exceptionloginitialization$qqrv+0x228b2
eax=00000000 ebx=7fde0010 ecx=0000009e edx=00c9f7bc esi=006fbb70 edi=00000113
eip=0051e486 esp=0164e98c ebp=0164e9b4 iopl=0         nv up ei pl nz na po nc
cs=0023  ss=002b  ds=002b  es=002b  fs=0053  gs=002b             efl=00000202
ws7v6!SymbeditorFinalize+0x2a16:
0051e486 81e101000080    and     ecx,80000001h
 # ChildEBP RetAddr      Args to Child              
WARNING: Stack unwind information not available. Following frames may be wrong.
00 0164e9b4 006fbb82     0164e9e8 006fba3c 0164eaf8 ws7v6!SymbeditorFinalize+0x29f1
01 0164e9e0 00645ab6     00000113 00000001 00000000 ws7v6!Exceptionloginitialization$qqrv+0xd897e
02 0164e9f8 76192edb     000209da 00000113 00000001 ws7v6!Exceptionloginitialization$qqrv+0x228b2
eax=0164e9c4 ebx=7fde0010 ecx=051c0793 edx=08532da0 esi=006fbb70 edi=00000113
eip=0051e461 esp=0164e98c ebp=0164e9b4 iopl=0         nv up ei pl nz na pe cy
cs=0023  ss=002b  ds=002b  es=002b  fs=0053  gs=002b             efl=00000207
ws7v6!SymbeditorFinalize+0x29f1:
0051e461 e802c1fcff      call    ws7v6!DlgprjuFinalize+0xf86c (004ea568)
 # ChildEBP RetAddr      Args to Child              
WARNING: Stack unwind information not available. Following frames may be wrong.
00 0164e9b4 006fbb82     0164e9e8 006fba3c 0164eaf8 ws7v6!SymbeditorFinalize+0x2a16
01 0164e9e0 00645ab6     00000113 00000001 00000000 ws7v6!Exceptionloginitialization$qqrv+0xd897e
02 0164e9f8 76192edb     000209da 00000113 00000001 ws7v6!Exceptionloginitialization$qqrv+0x228b2
eax=00000000 ebx=7fde0010 ecx=0000009f edx=00c9f7bc esi=006fbb70 edi=00000113
eip=0051e486 esp=0164e98c ebp=0164e9b4 iopl=0         nv up ei pl nz na po nc
cs=0023  ss=002b  ds=002b  es=002b  fs=0053  gs=002b             efl=00000202
ws7v6!SymbeditorFinalize+0x2a16:
0051e486 81e101000080    and     ecx,80000001h
 # ChildEBP RetAddr      Args to Child              
WARNING: Stack unwind information not available. Following frames may be wrong.
00 0164e9b4 006fbb82     0164e9e8 006fba3c 0164eaf8 ws7v6!SymbeditorFinalize+0x29f1
01 0164e9e0 00645ab6     00000113 00000001 00000000 ws7v6!Exceptionloginitialization$qqrv+0xd897e
02 0164e9f8 76192edb     000209da 00000113 00000001 ws7v6!Exceptionloginitialization$qqrv+0x228b2
eax=0164e9c4 ebx=7fde0010 ecx=051c0793 edx=08532da0 esi=006fbb70 edi=00000113
eip=0051e461 esp=0164e98c ebp=0164e9b4 iopl=0         nv up ei pl nz ac pe cy
cs=0023  ss=002b  ds=002b  es=002b  fs=0053  gs=002b             efl=00000217
ws7v6!SymbeditorFinalize+0x29f1:
0051e461 e802c1fcff      call    ws7v6!DlgprjuFinalize+0xf86c (004ea568)
 # ChildEBP RetAddr      Args to Child              
WARNING: Stack unwind information not available. Following frames may be wrong.
00 0164e9b4 006fbb82     0164e9e8 006fba3c 0164eaf8 ws7v6!SymbeditorFinalize+0x2a16
01 0164e9e0 00645ab6     00000113 00000001 00000000 ws7v6!Exceptionloginitialization$qqrv+0xd897e
02 0164e9f8 76192edb     000209da 00000113 00000001 ws7v6!Exceptionloginitialization$qqrv+0x228b2
eax=00000000 ebx=7fde0010 ecx=000000a0 edx=00c9f7bc esi=006fbb70 edi=00000113
eip=0051e486 esp=0164e98c ebp=0164e9b4 iopl=0         nv up ei pl nz na po nc
cs=0023  ss=002b  ds=002b  es=002b  fs=0053  gs=002b             efl=00000202
ws7v6!SymbeditorFinalize+0x2a16:
0051e486 81e101000080    and     ecx,80000001h
 # ChildEBP RetAddr      Args to Child              
WARNING: Stack unwind information not available. Following frames may be wrong.
00 0164e9b4 006fbb82     0164e9e8 006fba3c 0164eaf8 ws7v6!SymbeditorFinalize+0x29f1
01 0164e9e0 00645ab6     00000113 00000001 00000000 ws7v6!Exceptionloginitialization$qqrv+0xd897e
02 0164e9f8 76192edb     000209da 00000113 00000001 ws7v6!Exceptionloginitialization$qqrv+0x228b2
eax=0164e9c4 ebx=7fde0010 ecx=051c0793 edx=08532da0 esi=006fbb70 edi=00000113
eip=0051e461 esp=0164e98c ebp=0164e9b4 iopl=0         nv up ei pl nz na po cy
cs=0023  ss=002b  ds=002b  es=002b  fs=0053  gs=002b             efl=00000203
ws7v6!SymbeditorFinalize+0x29f1:
0051e461 e802c1fcff      call    ws7v6!DlgprjuFinalize+0xf86c (004ea568)
 # ChildEBP RetAddr      Args to Child              
WARNING: Stack unwind information not available. Following frames may be wrong.
00 0164e9b4 006fbb82     0164e9e8 006fba3c 0164eaf8 ws7v6!SymbeditorFinalize+0x2a16
01 0164e9e0 00645ab6     00000113 00000001 00000000 ws7v6!Exceptionloginitialization$qqrv+0xd897e
02 0164e9f8 76192edb     000209da 00000113 00000001 ws7v6!Exceptionloginitialization$qqrv+0x228b2
eax=00000000 ebx=7fde0010 ecx=000000a1 edx=00c9f7bc esi=006fbb70 edi=00000113
eip=0051e486 esp=0164e98c ebp=0164e9b4 iopl=0         nv up ei pl nz na po nc
cs=0023  ss=002b  ds=002b  es=002b  fs=0053  gs=002b             efl=00000202
ws7v6!SymbeditorFinalize+0x2a16:
0051e486 81e101000080    and     ecx,80000001h
 # ChildEBP RetAddr      Args to Child              
WARNING: Stack unwind information not available. Following frames may be wrong.
00 0164e9b4 006fbb82     0164e9e8 006fba3c 0164eaf8 ws7v6!SymbeditorFinalize+0x29f1
01 0164e9e0 00645ab6     00000113 00000001 00000000 ws7v6!Exceptionloginitialization$qqrv+0xd897e
02 0164e9f8 76192edb     000209da 00000113 00000001 ws7v6!Exceptionloginitialization$qqrv+0x228b2
eax=0164e9c4 ebx=7fde0010 ecx=051c0793 edx=08532da0 esi=006fbb70 edi=00000113
eip=0051e461 esp=0164e98c ebp=0164e9b4 iopl=0         nv up ei pl nz na po cy
cs=0023  ss=002b  ds=002b  es=002b  fs=0053  gs=002b             efl=00000203
ws7v6!SymbeditorFinalize+0x29f1:
0051e461 e802c1fcff      call    ws7v6!DlgprjuFinalize+0xf86c (004ea568)
 # ChildEBP RetAddr      Args to Child              
WARNING: Stack unwind information not available. Following frames may be wrong.
00 0164e9b4 006fbb82     0164e9e8 006fba3c 0164eaf8 ws7v6!SymbeditorFinalize+0x2a16
01 0164e9e0 00645ab6     00000113 00000001 00000000 ws7v6!Exceptionloginitialization$qqrv+0xd897e
02 0164e9f8 76192edb     000209da 00000113 00000001 ws7v6!Exceptionloginitialization$qqrv+0x228b2
eax=00000000 ebx=7fde0010 ecx=000000a2 edx=00c9f7bc esi=006fbb70 edi=00000113
eip=0051e486 esp=0164e98c ebp=0164e9b4 iopl=0         nv up ei pl nz na po nc
cs=0023  ss=002b  ds=002b  es=002b  fs=0053  gs=002b             efl=00000202
ws7v6!SymbeditorFinalize+0x2a16:
0051e486 81e101000080    and     ecx,80000001h
 # ChildEBP RetAddr      Args to Child              
WARNING: Stack unwind information not available. Following frames may be wrong.
00 0164e9b4 006fbb82     0164e9e8 006fba3c 0164eaf8 ws7v6!SymbeditorFinalize+0x29f1
01 0164e9e0 00645ab6     00000113 00000001 00000000 ws7v6!Exceptionloginitialization$qqrv+0xd897e
02 0164e9f8 76192edb     000209da 00000113 00000001 ws7v6!Exceptionloginitialization$qqrv+0x228b2
eax=0164e9c4 ebx=7fde0010 ecx=051c0793 edx=08532da0 esi=006fbb70 edi=00000113
eip=0051e461 esp=0164e98c ebp=0164e9b4 iopl=0         nv up ei pl nz na pe cy
cs=0023  ss=002b  ds=002b  es=002b  fs=0053  gs=002b             efl=00000207
ws7v6!SymbeditorFinalize+0x29f1:
0051e461 e802c1fcff      call    ws7v6!DlgprjuFinalize+0xf86c (004ea568)
 # ChildEBP RetAddr      Args to Child              
WARNING: Stack unwind information not available. Following frames may be wrong.
00 0164e9b4 006fbb82     0164e9e8 006fba3c 0164eaf8 ws7v6!SymbeditorFinalize+0x2a16
01 0164e9e0 00645ab6     00000113 00000001 00000000 ws7v6!Exceptionloginitialization$qqrv+0xd897e
02 0164e9f8 76192edb     000209da 00000113 00000001 ws7v6!Exceptionloginitialization$qqrv+0x228b2
eax=00000000 ebx=7fde0010 ecx=000000a3 edx=00c9f7bc esi=006fbb70 edi=00000113
eip=0051e486 esp=0164e98c ebp=0164e9b4 iopl=0         nv up ei pl nz na po nc
cs=0023  ss=002b  ds=002b  es=002b  fs=0053  gs=002b             efl=00000202
ws7v6!SymbeditorFinalize+0x2a16:
0051e486 81e101000080    and     ecx,80000001h
 # ChildEBP RetAddr      Args to Child              
WARNING: Stack unwind information not available. Following frames may be wrong.
00 0164e9b4 006fbb82     0164e9e8 006fba3c 0164eaf8 ws7v6!SymbeditorFinalize+0x29f1
01 0164e9e0 00645ab6     00000113 00000001 00000000 ws7v6!Exceptionloginitialization$qqrv+0xd897e
02 0164e9f8 76192edb     000209da 00000113 00000001 ws7v6!Exceptionloginitialization$qqrv+0x228b2
eax=0164e9c4 ebx=7fde0010 ecx=051c0793 edx=08532da0 esi=006fbb70 edi=00000113
eip=0051e461 esp=0164e98c ebp=0164e9b4 iopl=0         nv up ei pl nz na po cy
cs=0023  ss=002b  ds=002b  es=002b  fs=0053  gs=002b             efl=00000203
ws7v6!SymbeditorFinalize+0x29f1:
0051e461 e802c1fcff      call    ws7v6!DlgprjuFinalize+0xf86c (004ea568)
 # ChildEBP RetAddr      Args to Child              
WARNING: Stack unwind information not available. Following frames may be wrong.
00 0164e9b4 006fbb82     0164e9e8 006fba3c 0164eaf8 ws7v6!SymbeditorFinalize+0x2a16
01 0164e9e0 00645ab6     00000113 00000001 00000000 ws7v6!Exceptionloginitialization$qqrv+0xd897e
02 0164e9f8 76192edb     000209da 00000113 00000001 ws7v6!Exceptionloginitialization$qqrv+0x228b2
eax=00000000 ebx=7fde0010 ecx=000000a4 edx=00c9f7bc esi=006fbb70 edi=00000113
eip=0051e486 esp=0164e98c ebp=0164e9b4 iopl=0         nv up ei pl nz na po nc
cs=0023  ss=002b  ds=002b  es=002b  fs=0053  gs=002b             efl=00000202
ws7v6!SymbeditorFinalize+0x2a16:
0051e486 81e101000080    and     ecx,80000001h
 # ChildEBP RetAddr      Args to Child              
WARNING: Stack unwind information not available. Following frames may be wrong.
00 0164e9b4 006fbb82     0164e9e8 006fba3c 0164eaf8 ws7v6!SymbeditorFinalize+0x29f1
01 0164e9e0 00645ab6     00000113 00000001 00000000 ws7v6!Exceptionloginitialization$qqrv+0xd897e
02 0164e9f8 76192edb     000209da 00000113 00000001 ws7v6!Exceptionloginitialization$qqrv+0x228b2
eax=0164e9c4 ebx=7fde0010 ecx=051c0793 edx=08532da0 esi=006fbb70 edi=00000113
eip=0051e461 esp=0164e98c ebp=0164e9b4 iopl=0         nv up ei pl nz na pe cy
cs=0023  ss=002b  ds=002b  es=002b  fs=0053  gs=002b             efl=00000207
ws7v6!SymbeditorFinalize+0x29f1:
0051e461 e802c1fcff      call    ws7v6!DlgprjuFinalize+0xf86c (004ea568)
 # ChildEBP RetAddr      Args to Child              
WARNING: Stack unwind information not available. Following frames may be wrong.
00 0164e9b4 006fbb82     0164e9e8 006fba3c 0164eaf8 ws7v6!SymbeditorFinalize+0x2a16
01 0164e9e0 00645ab6     00000113 00000001 00000000 ws7v6!Exceptionloginitialization$qqrv+0xd897e
02 0164e9f8 76192edb     000209da 00000113 00000001 ws7v6!Exceptionloginitialization$qqrv+0x228b2
eax=00000000 ebx=7fde0010 ecx=000000a5 edx=00c9f7bc esi=006fbb70 edi=00000113
eip=0051e486 esp=0164e98c ebp=0164e9b4 iopl=0         nv up ei pl nz na po nc
cs=0023  ss=002b  ds=002b  es=002b  fs=0053  gs=002b             efl=00000202
ws7v6!SymbeditorFinalize+0x2a16:
0051e486 81e101000080    and     ecx,80000001h
 # ChildEBP RetAddr      Args to Child              
WARNING: Stack unwind information not available. Following frames may be wrong.
00 0164e9b4 006fbb82     0164e9e8 006fba3c 0164eaf8 ws7v6!SymbeditorFinalize+0x29f1
01 0164e9e0 00645ab6     00000113 00000001 00000000 ws7v6!Exceptionloginitialization$qqrv+0xd897e
02 0164e9f8 76192edb     000209da 00000113 00000001 ws7v6!Exceptionloginitialization$qqrv+0x228b2
eax=0164e9c4 ebx=7fde0010 ecx=051c0793 edx=08532da0 esi=006fbb70 edi=00000113
eip=0051e461 esp=0164e98c ebp=0164e9b4 iopl=0         nv up ei pl nz na pe cy
cs=0023  ss=002b  ds=002b  es=002b  fs=0053  gs=002b             efl=00000207
ws7v6!SymbeditorFinalize+0x29f1:
0051e461 e802c1fcff      call    ws7v6!DlgprjuFinalize+0xf86c (004ea568)
 # ChildEBP RetAddr      Args to Child              
WARNING: Stack unwind information not available. Following frames may be wrong.
00 0164e9b4 006fbb82     0164e9e8 006fba3c 0164eaf8 ws7v6!SymbeditorFinalize+0x2a16
01 0164e9e0 00645ab6     00000113 00000001 00000000 ws7v6!Exceptionloginitialization$qqrv+0xd897e
02 0164e9f8 76192edb     000209da 00000113 00000001 ws7v6!Exceptionloginitialization$qqrv+0x228b2
eax=00000000 ebx=7fde0010 ecx=000000a6 edx=00c9f7bc esi=006fbb70 edi=00000113
eip=0051e486 esp=0164e98c ebp=0164e9b4 iopl=0         nv up ei pl nz na po nc
cs=0023  ss=002b  ds=002b  es=002b  fs=0053  gs=002b             efl=00000202
ws7v6!SymbeditorFinalize+0x2a16:
0051e486 81e101000080    and     ecx,80000001h
 # ChildEBP RetAddr      Args to Child              
WARNING: Stack unwind information not available. Following frames may be wrong.
00 0164e9b4 006fbb82     0164e9e8 006fba3c 0164eaf8 ws7v6!SymbeditorFinalize+0x29f1
01 0164e9e0 00645ab6     00000113 00000001 00000000 ws7v6!Exceptionloginitialization$qqrv+0xd897e
02 0164e9f8 76192edb     000209da 00000113 00000001 ws7v6!Exceptionloginitialization$qqrv+0x228b2
eax=0164e9c4 ebx=7fde0010 ecx=051c0793 edx=08532da0 esi=006fbb70 edi=00000113
eip=0051e461 esp=0164e98c ebp=0164e9b4 iopl=0         nv up ei pl nz na po cy
cs=0023  ss=002b  ds=002b  es=002b  fs=0053  gs=002b             efl=00000203
ws7v6!SymbeditorFinalize+0x29f1:
0051e461 e802c1fcff      call    ws7v6!DlgprjuFinalize+0xf86c (004ea568)
 # ChildEBP RetAddr      Args to Child              
WARNING: Stack unwind information not available. Following frames may be wrong.
00 0164e9b4 006fbb82     0164e9e8 006fba3c 0164eaf8 ws7v6!SymbeditorFinalize+0x2a16
01 0164e9e0 00645ab6     00000113 00000001 00000000 ws7v6!Exceptionloginitialization$qqrv+0xd897e
02 0164e9f8 76192edb     000209da 00000113 00000001 ws7v6!Exceptionloginitialization$qqrv+0x228b2
eax=00000000 ebx=7fde0010 ecx=000000a7 edx=00c9f7bc esi=006fbb70 edi=00000113
eip=0051e486 esp=0164e98c ebp=0164e9b4 iopl=0         nv up ei pl nz na po nc
cs=0023  ss=002b  ds=002b  es=002b  fs=0053  gs=002b             efl=00000202
ws7v6!SymbeditorFinalize+0x2a16:
0051e486 81e101000080    and     ecx,80000001h
 # ChildEBP RetAddr      Args to Child              
WARNING: Stack unwind information not available. Following frames may be wrong.
00 0164e9b4 006fbb82     0164e9e8 006fba3c 0164eaf8 ws7v6!SymbeditorFinalize+0x29f1
01 0164e9e0 00645ab6     00000113 00000001 00000000 ws7v6!Exceptionloginitialization$qqrv+0xd897e
02 0164e9f8 76192edb     000209da 00000113 00000001 ws7v6!Exceptionloginitialization$qqrv+0x228b2
eax=0164e9c4 ebx=7fde0010 ecx=051c0793 edx=08532da0 esi=006fbb70 edi=00000113
eip=0051e461 esp=0164e98c ebp=0164e9b4 iopl=0         nv up ei pl nz na po cy
cs=0023  ss=002b  ds=002b  es=002b  fs=0053  gs=002b             efl=00000203
ws7v6!SymbeditorFinalize+0x29f1:
0051e461 e802c1fcff      call    ws7v6!DlgprjuFinalize+0xf86c (004ea568)
 # ChildEBP RetAddr      Args to Child              
WARNING: Stack unwind information not available. Following frames may be wrong.
00 0164e9b4 006fbb82     0164e9e8 006fba3c 0164eaf8 ws7v6!SymbeditorFinalize+0x2a16
01 0164e9e0 00645ab6     00000113 00000001 00000000 ws7v6!Exceptionloginitialization$qqrv+0xd897e
02 0164e9f8 76192edb     000209da 00000113 00000001 ws7v6!Exceptionloginitialization$qqrv+0x228b2
eax=00000000 ebx=7fde0010 ecx=000000a8 edx=00c9f7bc esi=006fbb70 edi=00000113
eip=0051e486 esp=0164e98c ebp=0164e9b4 iopl=0         nv up ei pl nz na po nc
cs=0023  ss=002b  ds=002b  es=002b  fs=0053  gs=002b             efl=00000202
ws7v6!SymbeditorFinalize+0x2a16:
0051e486 81e101000080    and     ecx,80000001h
 # ChildEBP RetAddr      Args to Child              
WARNING: Stack unwind information not available. Following frames may be wrong.
00 0164e9b4 006fbb82     0164e9e8 006fba3c 0164eaf8 ws7v6!SymbeditorFinalize+0x29f1
01 0164e9e0 00645ab6     00000113 00000001 00000000 ws7v6!Exceptionloginitialization$qqrv+0xd897e
02 0164e9f8 76192edb     000209da 00000113 00000001 ws7v6!Exceptionloginitialization$qqrv+0x228b2
eax=0164e9c4 ebx=7fde0010 ecx=051c0793 edx=08532da0 esi=006fbb70 edi=00000113
eip=0051e461 esp=0164e98c ebp=0164e9b4 iopl=0         nv up ei pl nz na pe cy
cs=0023  ss=002b  ds=002b  es=002b  fs=0053  gs=002b             efl=00000207
ws7v6!SymbeditorFinalize+0x29f1:
0051e461 e802c1fcff      call    ws7v6!DlgprjuFinalize+0xf86c (004ea568)
 # ChildEBP RetAddr      Args to Child              
WARNING: Stack unwind information not available. Following frames may be wrong.
00 0164e9b4 006fbb82     0164e9e8 006fba3c 0164eaf8 ws7v6!SymbeditorFinalize+0x2a16
01 0164e9e0 00645ab6     00000113 00000001 00000000 ws7v6!Exceptionloginitialization$qqrv+0xd897e
02 0164e9f8 76192edb     000209da 00000113 00000001 ws7v6!Exceptionloginitialization$qqrv+0x228b2
eax=00000000 ebx=7fde0010 ecx=000000a9 edx=00c9f7bc esi=006fbb70 edi=00000113
eip=0051e486 esp=0164e98c ebp=0164e9b4 iopl=0         nv up ei pl nz na po nc
cs=0023  ss=002b  ds=002b  es=002b  fs=0053  gs=002b             efl=00000202
ws7v6!SymbeditorFinalize+0x2a16:
0051e486 81e101000080    and     ecx,80000001h
 # ChildEBP RetAddr      Args to Child              
WARNING: Stack unwind information not available. Following frames may be wrong.
00 0164e9b4 006fbb82     0164e9e8 006fba3c 0164eaf8 ws7v6!SymbeditorFinalize+0x29f1
01 0164e9e0 00645ab6     00000113 00000001 00000000 ws7v6!Exceptionloginitialization$qqrv+0xd897e
02 0164e9f8 76192edb     000209da 00000113 00000001 ws7v6!Exceptionloginitialization$qqrv+0x228b2
eax=0164e9c4 ebx=7fde0010 ecx=051c0793 edx=08532da0 esi=006fbb70 edi=00000113
eip=0051e461 esp=0164e98c ebp=0164e9b4 iopl=0         nv up ei pl nz na pe cy
cs=0023  ss=002b  ds=002b  es=002b  fs=0053  gs=002b             efl=00000207
ws7v6!SymbeditorFinalize+0x29f1:
0051e461 e802c1fcff      call    ws7v6!DlgprjuFinalize+0xf86c (004ea568)
 # ChildEBP RetAddr      Args to Child              
WARNING: Stack unwind information not available. Following frames may be wrong.
00 0164e9b4 006fbb82     0164e9e8 006fba3c 0164eaf8 ws7v6!SymbeditorFinalize+0x2a16
01 0164e9e0 00645ab6     00000113 00000001 00000000 ws7v6!Exceptionloginitialization$qqrv+0xd897e
02 0164e9f8 76192edb     000209da 00000113 00000001 ws7v6!Exceptionloginitialization$qqrv+0x228b2
eax=00000000 ebx=7fde0010 ecx=000000aa edx=00c9f7bc esi=006fbb70 edi=00000113
eip=0051e486 esp=0164e98c ebp=0164e9b4 iopl=0         nv up ei pl nz na po nc
cs=0023  ss=002b  ds=002b  es=002b  fs=0053  gs=002b             efl=00000202
ws7v6!SymbeditorFinalize+0x2a16:
0051e486 81e101000080    and     ecx,80000001h
 # ChildEBP RetAddr      Args to Child              
WARNING: Stack unwind information not available. Following frames may be wrong.
00 0164e9b4 006fbb82     0164e9e8 006fba3c 0164eaf8 ws7v6!SymbeditorFinalize+0x29f1
01 0164e9e0 00645ab6     00000113 00000001 00000000 ws7v6!Exceptionloginitialization$qqrv+0xd897e
02 0164e9f8 76192edb     000209da 00000113 00000001 ws7v6!Exceptionloginitialization$qqrv+0x228b2
eax=0164e9c4 ebx=7fde0010 ecx=051c0793 edx=08532da0 esi=006fbb70 edi=00000113
eip=0051e461 esp=0164e98c ebp=0164e9b4 iopl=0         nv up ei pl nz na po cy
cs=0023  ss=002b  ds=002b  es=002b  fs=0053  gs=002b             efl=00000203
ws7v6!SymbeditorFinalize+0x29f1:
0051e461 e802c1fcff      call    ws7v6!DlgprjuFinalize+0xf86c (004ea568)
 # ChildEBP RetAddr      Args to Child              
WARNING: Stack unwind information not available. Following frames may be wrong.
00 0164e9b4 006fbb82     0164e9e8 006fba3c 0164eaf8 ws7v6!SymbeditorFinalize+0x2a16
01 0164e9e0 00645ab6     00000113 00000001 00000000 ws7v6!Exceptionloginitialization$qqrv+0xd897e
02 0164e9f8 76192edb     000209da 00000113 00000001 ws7v6!Exceptionloginitialization$qqrv+0x228b2
eax=00000000 ebx=7fde0010 ecx=000000ab edx=00c9f7bc esi=006fbb70 edi=00000113
eip=0051e486 esp=0164e98c ebp=0164e9b4 iopl=0         nv up ei pl nz na po nc
cs=0023  ss=002b  ds=002b  es=002b  fs=0053  gs=002b             efl=00000202
ws7v6!SymbeditorFinalize+0x2a16:
0051e486 81e101000080    and     ecx,80000001h
 # ChildEBP RetAddr      Args to Child              
WARNING: Stack unwind information not available. Following frames may be wrong.
00 0164e9b4 006fbb82     0164e9e8 006fba3c 0164eaf8 ws7v6!SymbeditorFinalize+0x29f1
01 0164e9e0 00645ab6     00000113 00000001 00000000 ws7v6!Exceptionloginitialization$qqrv+0xd897e
02 0164e9f8 76192edb     000209da 00000113 00000001 ws7v6!Exceptionloginitialization$qqrv+0x228b2
eax=0164e9c4 ebx=7fde0010 ecx=051c0793 edx=08532da0 esi=006fbb70 edi=00000113
eip=0051e461 esp=0164e98c ebp=0164e9b4 iopl=0         nv up ei pl nz na pe cy
cs=0023  ss=002b  ds=002b  es=002b  fs=0053  gs=002b             efl=00000207
ws7v6!SymbeditorFinalize+0x29f1:
0051e461 e802c1fcff      call    ws7v6!DlgprjuFinalize+0xf86c (004ea568)
 # ChildEBP RetAddr      Args to Child              
WARNING: Stack unwind information not available. Following frames may be wrong.
00 0164e9b4 006fbb82     0164e9e8 006fba3c 0164eaf8 ws7v6!SymbeditorFinalize+0x2a16
01 0164e9e0 00645ab6     00000113 00000001 00000000 ws7v6!Exceptionloginitialization$qqrv+0xd897e
02 0164e9f8 76192edb     000209da 00000113 00000001 ws7v6!Exceptionloginitialization$qqrv+0x228b2
eax=00000000 ebx=7fde0010 ecx=000000ac edx=00c9f7bc esi=006fbb70 edi=00000113
eip=0051e486 esp=0164e98c ebp=0164e9b4 iopl=0         nv up ei pl nz na po nc
cs=0023  ss=002b  ds=002b  es=002b  fs=0053  gs=002b             efl=00000202
ws7v6!SymbeditorFinalize+0x2a16:
0051e486 81e101000080    and     ecx,80000001h
 # ChildEBP RetAddr      Args to Child              
WARNING: Stack unwind information not available. Following frames may be wrong.
00 0164e9b4 006fbb82     0164e9e8 006fba3c 0164eaf8 ws7v6!SymbeditorFinalize+0x29f1
01 0164e9e0 00645ab6     00000113 00000001 00000000 ws7v6!Exceptionloginitialization$qqrv+0xd897e
02 0164e9f8 76192edb     000209da 00000113 00000001 ws7v6!Exceptionloginitialization$qqrv+0x228b2
eax=0164e9c4 ebx=7fde0010 ecx=051c0793 edx=08532da0 esi=006fbb70 edi=00000113
eip=0051e461 esp=0164e98c ebp=0164e9b4 iopl=0         nv up ei pl nz na po cy
cs=0023  ss=002b  ds=002b  es=002b  fs=0053  gs=002b             efl=00000203
ws7v6!SymbeditorFinalize+0x29f1:
0051e461 e802c1fcff      call    ws7v6!DlgprjuFinalize+0xf86c (004ea568)
 # ChildEBP RetAddr      Args to Child              
WARNING: Stack unwind information not available. Following frames may be wrong.
00 0164e9b4 006fbb82     0164e9e8 006fba3c 0164eaf8 ws7v6!SymbeditorFinalize+0x2a16
01 0164e9e0 00645ab6     00000113 00000001 00000000 ws7v6!Exceptionloginitialization$qqrv+0xd897e
02 0164e9f8 76192edb     000209da 00000113 00000001 ws7v6!Exceptionloginitialization$qqrv+0x228b2
eax=00000000 ebx=7fde0010 ecx=000000ad edx=00c9f7bc esi=006fbb70 edi=00000113
eip=0051e486 esp=0164e98c ebp=0164e9b4 iopl=0         nv up ei pl nz na po nc
cs=0023  ss=002b  ds=002b  es=002b  fs=0053  gs=002b             efl=00000202
ws7v6!SymbeditorFinalize+0x2a16:
0051e486 81e101000080    and     ecx,80000001h
 # ChildEBP RetAddr      Args to Child              
WARNING: Stack unwind information not available. Following frames may be wrong.
00 0164e9b4 006fbb82     0164e9e8 006fba3c 0164eaf8 ws7v6!SymbeditorFinalize+0x29f1
01 0164e9e0 00645ab6     00000113 00000001 00000000 ws7v6!Exceptionloginitialization$qqrv+0xd897e
02 0164e9f8 76192edb     000209da 00000113 00000001 ws7v6!Exceptionloginitialization$qqrv+0x228b2
eax=0164e9c4 ebx=7fde0010 ecx=051c0793 edx=08532da0 esi=006fbb70 edi=00000113
eip=0051e461 esp=0164e98c ebp=0164e9b4 iopl=0         nv up ei pl nz na po cy
cs=0023  ss=002b  ds=002b  es=002b  fs=0053  gs=002b             efl=00000203
ws7v6!SymbeditorFinalize+0x29f1:
0051e461 e802c1fcff      call    ws7v6!DlgprjuFinalize+0xf86c (004ea568)
 # ChildEBP RetAddr      Args to Child              
WARNING: Stack unwind information not available. Following frames may be wrong.
00 0164e9b4 006fbb82     0164e9e8 006fba3c 0164eaf8 ws7v6!SymbeditorFinalize+0x2a16
01 0164e9e0 00645ab6     00000113 00000001 00000000 ws7v6!Exceptionloginitialization$qqrv+0xd897e
02 0164e9f8 76192edb     000209da 00000113 00000001 ws7v6!Exceptionloginitialization$qqrv+0x228b2
eax=00000000 ebx=7fde0010 ecx=000000ae edx=00c9f7bc esi=006fbb70 edi=00000113
eip=0051e486 esp=0164e98c ebp=0164e9b4 iopl=0         nv up ei pl nz na po nc
cs=0023  ss=002b  ds=002b  es=002b  fs=0053  gs=002b             efl=00000202
ws7v6!SymbeditorFinalize+0x2a16:
0051e486 81e101000080    and     ecx,80000001h
 # ChildEBP RetAddr      Args to Child              
WARNING: Stack unwind information not available. Following frames may be wrong.
00 0164e9b4 006fbb82     0164e9e8 006fba3c 0164eaf8 ws7v6!SymbeditorFinalize+0x29f1
01 0164e9e0 00645ab6     00000113 00000001 00000000 ws7v6!Exceptionloginitialization$qqrv+0xd897e
02 0164e9f8 76192edb     000209da 00000113 00000001 ws7v6!Exceptionloginitialization$qqrv+0x228b2
eax=0164e9c4 ebx=7fde0010 ecx=051c0793 edx=08532da0 esi=006fbb70 edi=00000113
eip=0051e461 esp=0164e98c ebp=0164e9b4 iopl=0         nv up ei pl nz na pe cy
cs=0023  ss=002b  ds=002b  es=002b  fs=0053  gs=002b             efl=00000207
ws7v6!SymbeditorFinalize+0x29f1:
0051e461 e802c1fcff      call    ws7v6!DlgprjuFinalize+0xf86c (004ea568)
 # ChildEBP RetAddr      Args to Child              
WARNING: Stack unwind information not available. Following frames may be wrong.
00 0164e9b4 006fbb82     0164e9e8 006fba3c 0164eaf8 ws7v6!SymbeditorFinalize+0x2a16
01 0164e9e0 00645ab6     00000113 00000001 00000000 ws7v6!Exceptionloginitialization$qqrv+0xd897e
02 0164e9f8 76192edb     000209da 00000113 00000001 ws7v6!Exceptionloginitialization$qqrv+0x228b2
eax=00000000 ebx=7fde0010 ecx=000000af edx=00c9f7bc esi=006fbb70 edi=00000113
eip=0051e486 esp=0164e98c ebp=0164e9b4 iopl=0         nv up ei pl nz na po nc
cs=0023  ss=002b  ds=002b  es=002b  fs=0053  gs=002b             efl=00000202
ws7v6!SymbeditorFinalize+0x2a16:
0051e486 81e101000080    and     ecx,80000001h
 # ChildEBP RetAddr      Args to Child              
WARNING: Stack unwind information not available. Following frames may be wrong.
00 0164e9b4 006fbb82     0164e9e8 006fba3c 0164eaf8 ws7v6!SymbeditorFinalize+0x29f1
01 0164e9e0 00645ab6     00000113 00000001 00000000 ws7v6!Exceptionloginitialization$qqrv+0xd897e
02 0164e9f8 76192edb     000209da 00000113 00000001 ws7v6!Exceptionloginitialization$qqrv+0x228b2
eax=0164e9c4 ebx=7fde0010 ecx=051c0793 edx=08532da0 esi=006fbb70 edi=00000113
eip=0051e461 esp=0164e98c ebp=0164e9b4 iopl=0         nv up ei pl nz ac po cy
cs=0023  ss=002b  ds=002b  es=002b  fs=0053  gs=002b             efl=00000213
ws7v6!SymbeditorFinalize+0x29f1:
0051e461 e802c1fcff      call    ws7v6!DlgprjuFinalize+0xf86c (004ea568)
 # ChildEBP RetAddr      Args to Child              
WARNING: Stack unwind information not available. Following frames may be wrong.
00 0164e9b4 006fbb82     0164e9e8 006fba3c 0164eaf8 ws7v6!SymbeditorFinalize+0x2a16
01 0164e9e0 00645ab6     00000113 00000001 00000000 ws7v6!Exceptionloginitialization$qqrv+0xd897e
02 0164e9f8 76192edb     000209da 00000113 00000001 ws7v6!Exceptionloginitialization$qqrv+0x228b2
eax=00000000 ebx=7fde0010 ecx=000000b0 edx=00c9f7bc esi=006fbb70 edi=00000113
eip=0051e486 esp=0164e98c ebp=0164e9b4 iopl=0         nv up ei pl nz na po nc
cs=0023  ss=002b  ds=002b  es=002b  fs=0053  gs=002b             efl=00000202
ws7v6!SymbeditorFinalize+0x2a16:
0051e486 81e101000080    and     ecx,80000001h
 # ChildEBP RetAddr      Args to Child              
WARNING: Stack unwind information not available. Following frames may be wrong.
00 0164e9b4 006fbb82     0164e9e8 006fba3c 0164eaf8 ws7v6!SymbeditorFinalize+0x29f1
01 0164e9e0 00645ab6     00000113 00000001 00000000 ws7v6!Exceptionloginitialization$qqrv+0xd897e
02 0164e9f8 76192edb     000209da 00000113 00000001 ws7v6!Exceptionloginitialization$qqrv+0x228b2
eax=0164e9c4 ebx=7fde0010 ecx=051c0793 edx=08532da0 esi=006fbb70 edi=00000113
eip=0051e461 esp=0164e98c ebp=0164e9b4 iopl=0         nv up ei pl nz na pe cy
cs=0023  ss=002b  ds=002b  es=002b  fs=0053  gs=002b             efl=00000207
ws7v6!SymbeditorFinalize+0x29f1:
0051e461 e802c1fcff      call    ws7v6!DlgprjuFinalize+0xf86c (004ea568)
 # ChildEBP RetAddr      Args to Child              
WARNING: Stack unwind information not available. Following frames may be wrong.
00 0164e9b4 006fbb82     0164e9e8 006fba3c 0164eaf8 ws7v6!SymbeditorFinalize+0x2a16
01 0164e9e0 00645ab6     00000113 00000001 00000000 ws7v6!Exceptionloginitialization$qqrv+0xd897e
02 0164e9f8 76192edb     000209da 00000113 00000001 ws7v6!Exceptionloginitialization$qqrv+0x228b2
eax=00000000 ebx=7fde0010 ecx=000000b1 edx=00c9f7bc esi=006fbb70 edi=00000113
eip=0051e486 esp=0164e98c ebp=0164e9b4 iopl=0         nv up ei pl nz na po nc
cs=0023  ss=002b  ds=002b  es=002b  fs=0053  gs=002b             efl=00000202
ws7v6!SymbeditorFinalize+0x2a16:
0051e486 81e101000080    and     ecx,80000001h
 # ChildEBP RetAddr      Args to Child              
WARNING: Stack unwind information not available. Following frames may be wrong.
00 0164e9b4 006fbb82     0164e9e8 006fba3c 0164eaf8 ws7v6!SymbeditorFinalize+0x29f1
01 0164e9e0 00645ab6     00000113 00000001 00000000 ws7v6!Exceptionloginitialization$qqrv+0xd897e
02 0164e9f8 76192edb     000209da 00000113 00000001 ws7v6!Exceptionloginitialization$qqrv+0x228b2
eax=0164e9c4 ebx=7fde0010 ecx=051c0793 edx=08532da0 esi=006fbb70 edi=00000113
eip=0051e461 esp=0164e98c ebp=0164e9b4 iopl=0         nv up ei pl nz na pe cy
cs=0023  ss=002b  ds=002b  es=002b  fs=0053  gs=002b             efl=00000207
ws7v6!SymbeditorFinalize+0x29f1:
0051e461 e802c1fcff      call    ws7v6!DlgprjuFinalize+0xf86c (004ea568)
 # ChildEBP RetAddr      Args to Child              
WARNING: Stack unwind information not available. Following frames may be wrong.
00 0164e9b4 006fbb82     0164e9e8 006fba3c 0164eaf8 ws7v6!SymbeditorFinalize+0x2a16
01 0164e9e0 00645ab6     00000113 00000001 00000000 ws7v6!Exceptionloginitialization$qqrv+0xd897e
02 0164e9f8 76192edb     000209da 00000113 00000001 ws7v6!Exceptionloginitialization$qqrv+0x228b2
eax=00000000 ebx=7fde0010 ecx=000000b2 edx=00c9f7bc esi=006fbb70 edi=00000113
eip=0051e486 esp=0164e98c ebp=0164e9b4 iopl=0         nv up ei pl nz na po nc
cs=0023  ss=002b  ds=002b  es=002b  fs=0053  gs=002b             efl=00000202
ws7v6!SymbeditorFinalize+0x2a16:
0051e486 81e101000080    and     ecx,80000001h
 # ChildEBP RetAddr      Args to Child              
WARNING: Stack unwind information not available. Following frames may be wrong.
00 0164e9b4 006fbb82     0164e9e8 006fba3c 0164eaf8 ws7v6!SymbeditorFinalize+0x29f1
01 0164e9e0 00645ab6     00000113 00000001 00000000 ws7v6!Exceptionloginitialization$qqrv+0xd897e
02 0164e9f8 76192edb     000209da 00000113 00000001 ws7v6!Exceptionloginitialization$qqrv+0x228b2
eax=0164e9c4 ebx=7fde0010 ecx=051c0793 edx=08532da0 esi=006fbb70 edi=00000113
eip=0051e461 esp=0164e98c ebp=0164e9b4 iopl=0         nv up ei pl nz na po cy
cs=0023  ss=002b  ds=002b  es=002b  fs=0053  gs=002b             efl=00000203
ws7v6!SymbeditorFinalize+0x29f1:
0051e461 e802c1fcff      call    ws7v6!DlgprjuFinalize+0xf86c (004ea568)
 # ChildEBP RetAddr      Args to Child              
WARNING: Stack unwind information not available. Following frames may be wrong.
00 0164e9b4 006fbb82     0164e9e8 006fba3c 0164eaf8 ws7v6!SymbeditorFinalize+0x2a16
01 0164e9e0 00645ab6     00000113 00000001 00000000 ws7v6!Exceptionloginitialization$qqrv+0xd897e
02 0164e9f8 76192edb     000209da 00000113 00000001 ws7v6!Exceptionloginitialization$qqrv+0x228b2
eax=00000000 ebx=7fde0010 ecx=000000b3 edx=00c9f7bc esi=006fbb70 edi=00000113
eip=0051e486 esp=0164e98c ebp=0164e9b4 iopl=0         nv up ei pl nz na po nc
cs=0023  ss=002b  ds=002b  es=002b  fs=0053  gs=002b             efl=00000202
ws7v6!SymbeditorFinalize+0x2a16:
0051e486 81e101000080    and     ecx,80000001h
 # ChildEBP RetAddr      Args to Child              
WARNING: Stack unwind information not available. Following frames may be wrong.
00 0164e9b4 006fbb82     0164e9e8 006fba3c 0164eaf8 ws7v6!SymbeditorFinalize+0x29f1
01 0164e9e0 00645ab6     00000113 00000001 00000000 ws7v6!Exceptionloginitialization$qqrv+0xd897e
02 0164e9f8 76192edb     000209da 00000113 00000001 ws7v6!Exceptionloginitialization$qqrv+0x228b2
eax=0164e9c4 ebx=7fde0010 ecx=051c0793 edx=08532da0 esi=006fbb70 edi=00000113
eip=0051e461 esp=0164e98c ebp=0164e9b4 iopl=0         nv up ei pl nz na pe cy
cs=0023  ss=002b  ds=002b  es=002b  fs=0053  gs=002b             efl=00000207
ws7v6!SymbeditorFinalize+0x29f1:
0051e461 e802c1fcff      call    ws7v6!DlgprjuFinalize+0xf86c (004ea568)
 # ChildEBP RetAddr      Args to Child              
WARNING: Stack unwind information not available. Following frames may be wrong.
00 0164e9b4 006fbb82     0164e9e8 006fba3c 0164eaf8 ws7v6!SymbeditorFinalize+0x2a16
01 0164e9e0 00645ab6     00000113 00000001 00000000 ws7v6!Exceptionloginitialization$qqrv+0xd897e
02 0164e9f8 76192edb     000209da 00000113 00000001 ws7v6!Exceptionloginitialization$qqrv+0x228b2
eax=00000000 ebx=7fde0010 ecx=000000b4 edx=00c9f7bc esi=006fbb70 edi=00000113
eip=0051e486 esp=0164e98c ebp=0164e9b4 iopl=0         nv up ei pl nz na po nc
cs=0023  ss=002b  ds=002b  es=002b  fs=0053  gs=002b             efl=00000202
ws7v6!SymbeditorFinalize+0x2a16:
0051e486 81e101000080    and     ecx,80000001h
 # ChildEBP RetAddr      Args to Child              
WARNING: Stack unwind information not available. Following frames may be wrong.
00 0164e9b4 006fbb82     0164e9e8 006fba3c 0164eaf8 ws7v6!SymbeditorFinalize+0x29f1
01 0164e9e0 00645ab6     00000113 00000001 00000000 ws7v6!Exceptionloginitialization$qqrv+0xd897e
02 0164e9f8 76192edb     000209da 00000113 00000001 ws7v6!Exceptionloginitialization$qqrv+0x228b2
eax=0164e9c4 ebx=7fde0010 ecx=051c0793 edx=08532da0 esi=006fbb70 edi=00000113
eip=0051e461 esp=0164e98c ebp=0164e9b4 iopl=0         nv up ei pl nz na po cy
cs=0023  ss=002b  ds=002b  es=002b  fs=0053  gs=002b             efl=00000203
ws7v6!SymbeditorFinalize+0x29f1:
0051e461 e802c1fcff      call    ws7v6!DlgprjuFinalize+0xf86c (004ea568)
 # ChildEBP RetAddr      Args to Child              
WARNING: Stack unwind information not available. Following frames may be wrong.
00 0164e9b4 006fbb82     0164e9e8 006fba3c 0164eaf8 ws7v6!SymbeditorFinalize+0x2a16
01 0164e9e0 00645ab6     00000113 00000001 00000000 ws7v6!Exceptionloginitialization$qqrv+0xd897e
02 0164e9f8 76192edb     000209da 00000113 00000001 ws7v6!Exceptionloginitialization$qqrv+0x228b2
eax=00000000 ebx=7fde0010 ecx=000000b5 edx=00c9f7bc esi=006fbb70 edi=00000113
eip=0051e486 esp=0164e98c ebp=0164e9b4 iopl=0         nv up ei pl nz na po nc
cs=0023  ss=002b  ds=002b  es=002b  fs=0053  gs=002b             efl=00000202
ws7v6!SymbeditorFinalize+0x2a16:
0051e486 81e101000080    and     ecx,80000001h
 # ChildEBP RetAddr      Args to Child              
WARNING: Stack unwind information not available. Following frames may be wrong.
00 0164e9b4 006fbb82     0164e9e8 006fba3c 0164eaf8 ws7v6!SymbeditorFinalize+0x29f1
01 0164e9e0 00645ab6     00000113 00000001 00000000 ws7v6!Exceptionloginitialization$qqrv+0xd897e
02 0164e9f8 76192edb     000209da 00000113 00000001 ws7v6!Exceptionloginitialization$qqrv+0x228b2
eax=0164e9c4 ebx=7fde0010 ecx=051c0793 edx=08532da0 esi=006fbb70 edi=00000113
eip=0051e461 esp=0164e98c ebp=0164e9b4 iopl=0         nv up ei pl nz na po cy
cs=0023  ss=002b  ds=002b  es=002b  fs=0053  gs=002b             efl=00000203
ws7v6!SymbeditorFinalize+0x29f1:
0051e461 e802c1fcff      call    ws7v6!DlgprjuFinalize+0xf86c (004ea568)
 # ChildEBP RetAddr      Args to Child              
WARNING: Stack unwind information not available. Following frames may be wrong.
00 0164e9b4 006fbb82     0164e9e8 006fba3c 0164eaf8 ws7v6!SymbeditorFinalize+0x2a16
01 0164e9e0 00645ab6     00000113 00000001 00000000 ws7v6!Exceptionloginitialization$qqrv+0xd897e
02 0164e9f8 76192edb     000209da 00000113 00000001 ws7v6!Exceptionloginitialization$qqrv+0x228b2
eax=00000000 ebx=7fde0010 ecx=000000b6 edx=00c9f7bc esi=006fbb70 edi=00000113
eip=0051e486 esp=0164e98c ebp=0164e9b4 iopl=0         nv up ei pl nz na po nc
cs=0023  ss=002b  ds=002b  es=002b  fs=0053  gs=002b             efl=00000202
ws7v6!SymbeditorFinalize+0x2a16:
0051e486 81e101000080    and     ecx,80000001h
 # ChildEBP RetAddr      Args to Child              
WARNING: Stack unwind information not available. Following frames may be wrong.
00 0164e9b4 006fbb82     0164e9e8 006fba3c 0164eaf8 ws7v6!SymbeditorFinalize+0x29f1
01 0164e9e0 00645ab6     00000113 00000001 00000000 ws7v6!Exceptionloginitialization$qqrv+0xd897e
02 0164e9f8 76192edb     000209da 00000113 00000001 ws7v6!Exceptionloginitialization$qqrv+0x228b2
eax=0164e9c4 ebx=7fde0010 ecx=051c0793 edx=08532da0 esi=006fbb70 edi=00000113
eip=0051e461 esp=0164e98c ebp=0164e9b4 iopl=0         nv up ei pl nz na pe cy
cs=0023  ss=002b  ds=002b  es=002b  fs=0053  gs=002b             efl=00000207
ws7v6!SymbeditorFinalize+0x29f1:
0051e461 e802c1fcff      call    ws7v6!DlgprjuFinalize+0xf86c (004ea568)
 # ChildEBP RetAddr      Args to Child              
WARNING: Stack unwind information not available. Following frames may be wrong.
00 0164e9b4 006fbb82     0164e9e8 006fba3c 0164eaf8 ws7v6!SymbeditorFinalize+0x2a16
01 0164e9e0 00645ab6     00000113 00000001 00000000 ws7v6!Exceptionloginitialization$qqrv+0xd897e
02 0164e9f8 76192edb     000209da 00000113 00000001 ws7v6!Exceptionloginitialization$qqrv+0x228b2
eax=00000000 ebx=7fde0010 ecx=000000b7 edx=00c9f7bc esi=006fbb70 edi=00000113
eip=0051e486 esp=0164e98c ebp=0164e9b4 iopl=0         nv up ei pl nz na po nc
cs=0023  ss=002b  ds=002b  es=002b  fs=0053  gs=002b             efl=00000202
ws7v6!SymbeditorFinalize+0x2a16:
0051e486 81e101000080    and     ecx,80000001h
 # ChildEBP RetAddr      Args to Child              
WARNING: Stack unwind information not available. Following frames may be wrong.
00 0164e9b4 006fbb82     0164e9e8 006fba3c 0164eaf8 ws7v6!SymbeditorFinalize+0x29f1
01 0164e9e0 00645ab6     00000113 00000001 00000000 ws7v6!Exceptionloginitialization$qqrv+0xd897e
02 0164e9f8 76192edb     000209da 00000113 00000001 ws7v6!Exceptionloginitialization$qqrv+0x228b2
eax=0164e9c4 ebx=7fde0010 ecx=051c0793 edx=08532da0 esi=006fbb70 edi=00000113
eip=0051e461 esp=0164e98c ebp=0164e9b4 iopl=0         nv up ei pl nz na pe cy
cs=0023  ss=002b  ds=002b  es=002b  fs=0053  gs=002b             efl=00000207
ws7v6!SymbeditorFinalize+0x29f1:
0051e461 e802c1fcff      call    ws7v6!DlgprjuFinalize+0xf86c (004ea568)
 # ChildEBP RetAddr      Args to Child              
WARNING: Stack unwind information not available. Following frames may be wrong.
00 0164e9b4 006fbb82     0164e9e8 006fba3c 0164eaf8 ws7v6!SymbeditorFinalize+0x2a16
01 0164e9e0 00645ab6     00000113 00000001 00000000 ws7v6!Exceptionloginitialization$qqrv+0xd897e
02 0164e9f8 76192edb     000209da 00000113 00000001 ws7v6!Exceptionloginitialization$qqrv+0x228b2
eax=00000000 ebx=7fde0010 ecx=000000b8 edx=00c9f7bc esi=006fbb70 edi=00000113
eip=0051e486 esp=0164e98c ebp=0164e9b4 iopl=0         nv up ei pl nz na po nc
cs=0023  ss=002b  ds=002b  es=002b  fs=0053  gs=002b             efl=00000202
ws7v6!SymbeditorFinalize+0x2a16:
0051e486 81e101000080    and     ecx,80000001h
 # ChildEBP RetAddr      Args to Child              
WARNING: Stack unwind information not available. Following frames may be wrong.
00 0164e9b4 006fbb82     0164e9e8 006fba3c 0164eaf8 ws7v6!SymbeditorFinalize+0x29f1
01 0164e9e0 00645ab6     00000113 00000001 00000000 ws7v6!Exceptionloginitialization$qqrv+0xd897e
02 0164e9f8 76192edb     000209da 00000113 00000001 ws7v6!Exceptionloginitialization$qqrv+0x228b2
eax=0164e9c4 ebx=7fde0010 ecx=051c0793 edx=08532da0 esi=006fbb70 edi=00000113
eip=0051e461 esp=0164e98c ebp=0164e9b4 iopl=0         nv up ei pl nz na po cy
cs=0023  ss=002b  ds=002b  es=002b  fs=0053  gs=002b             efl=00000203
ws7v6!SymbeditorFinalize+0x29f1:
0051e461 e802c1fcff      call    ws7v6!DlgprjuFinalize+0xf86c (004ea568)
 # ChildEBP RetAddr      Args to Child              
WARNING: Stack unwind information not available. Following frames may be wrong.
00 0164e9b4 006fbb82     0164e9e8 006fba3c 0164eaf8 ws7v6!SymbeditorFinalize+0x2a16
01 0164e9e0 00645ab6     00000113 00000001 00000000 ws7v6!Exceptionloginitialization$qqrv+0xd897e
02 0164e9f8 76192edb     000209da 00000113 00000001 ws7v6!Exceptionloginitialization$qqrv+0x228b2
eax=00000000 ebx=7fde0010 ecx=000000b9 edx=00c9f7bc esi=006fbb70 edi=00000113
eip=0051e486 esp=0164e98c ebp=0164e9b4 iopl=0         nv up ei pl nz na po nc
cs=0023  ss=002b  ds=002b  es=002b  fs=0053  gs=002b             efl=00000202
ws7v6!SymbeditorFinalize+0x2a16:
0051e486 81e101000080    and     ecx,80000001h
 # ChildEBP RetAddr      Args to Child              
WARNING: Stack unwind information not available. Following frames may be wrong.
00 0164e9b4 006fbb82     0164e9e8 006fba3c 0164eaf8 ws7v6!SymbeditorFinalize+0x29f1
01 0164e9e0 00645ab6     00000113 00000001 00000000 ws7v6!Exceptionloginitialization$qqrv+0xd897e
02 0164e9f8 76192edb     000209da 00000113 00000001 ws7v6!Exceptionloginitialization$qqrv+0x228b2
eax=0164e9c4 ebx=7fde0010 ecx=051c0793 edx=08532da0 esi=006fbb70 edi=00000113
eip=0051e461 esp=0164e98c ebp=0164e9b4 iopl=0         nv up ei pl nz na po cy
cs=0023  ss=002b  ds=002b  es=002b  fs=0053  gs=002b             efl=00000203
ws7v6!SymbeditorFinalize+0x29f1:
0051e461 e802c1fcff      call    ws7v6!DlgprjuFinalize+0xf86c (004ea568)
 # ChildEBP RetAddr      Args to Child              
WARNING: Stack unwind information not available. Following frames may be wrong.
00 0164e9b4 006fbb82     0164e9e8 006fba3c 0164eaf8 ws7v6!SymbeditorFinalize+0x2a16
01 0164e9e0 00645ab6     00000113 00000001 00000000 ws7v6!Exceptionloginitialization$qqrv+0xd897e
02 0164e9f8 76192edb     000209da 00000113 00000001 ws7v6!Exceptionloginitialization$qqrv+0x228b2
eax=00000000 ebx=7fde0010 ecx=000000ba edx=00c9f7bc esi=006fbb70 edi=00000113
eip=0051e486 esp=0164e98c ebp=0164e9b4 iopl=0         nv up ei pl nz na po nc
cs=0023  ss=002b  ds=002b  es=002b  fs=0053  gs=002b             efl=00000202
ws7v6!SymbeditorFinalize+0x2a16:
0051e486 81e101000080    and     ecx,80000001h
 # ChildEBP RetAddr      Args to Child              
WARNING: Stack unwind information not available. Following frames may be wrong.
00 0164e9b4 006fbb82     0164e9e8 006fba3c 0164eaf8 ws7v6!SymbeditorFinalize+0x29f1
01 0164e9e0 00645ab6     00000113 00000001 00000000 ws7v6!Exceptionloginitialization$qqrv+0xd897e
02 0164e9f8 76192edb     000209da 00000113 00000001 ws7v6!Exceptionloginitialization$qqrv+0x228b2
eax=0164e9c4 ebx=7fde0010 ecx=051c0793 edx=08532da0 esi=006fbb70 edi=00000113
eip=0051e461 esp=0164e98c ebp=0164e9b4 iopl=0         nv up ei pl nz na pe cy
cs=0023  ss=002b  ds=002b  es=002b  fs=0053  gs=002b             efl=00000207
ws7v6!SymbeditorFinalize+0x29f1:
0051e461 e802c1fcff      call    ws7v6!DlgprjuFinalize+0xf86c (004ea568)
 # ChildEBP RetAddr      Args to Child              
WARNING: Stack unwind information not available. Following frames may be wrong.
00 0164e9b4 006fbb82     0164e9e8 006fba3c 0164eaf8 ws7v6!SymbeditorFinalize+0x2a16
01 0164e9e0 00645ab6     00000113 00000001 00000000 ws7v6!Exceptionloginitialization$qqrv+0xd897e
02 0164e9f8 76192edb     000209da 00000113 00000001 ws7v6!Exceptionloginitialization$qqrv+0x228b2
eax=00000000 ebx=7fde0010 ecx=000000bb edx=00c9f7bc esi=006fbb70 edi=00000113
eip=0051e486 esp=0164e98c ebp=0164e9b4 iopl=0         nv up ei pl nz na po nc
cs=0023  ss=002b  ds=002b  es=002b  fs=0053  gs=002b             efl=00000202
ws7v6!SymbeditorFinalize+0x2a16:
0051e486 81e101000080    and     ecx,80000001h
 # ChildEBP RetAddr      Args to Child              
WARNING: Stack unwind information not available. Following frames may be wrong.
00 0164e9b4 006fbb82     0164e9e8 006fba3c 0164eaf8 ws7v6!SymbeditorFinalize+0x29f1
01 0164e9e0 00645ab6     00000113 00000001 00000000 ws7v6!Exceptionloginitialization$qqrv+0xd897e
02 0164e9f8 76192edb     000209da 00000113 00000001 ws7v6!Exceptionloginitialization$qqrv+0x228b2
eax=0164e9c4 ebx=7fde0010 ecx=051c0793 edx=08532da0 esi=006fbb70 edi=00000113
eip=0051e461 esp=0164e98c ebp=0164e9b4 iopl=0         nv up ei pl nz na po cy
cs=0023  ss=002b  ds=002b  es=002b  fs=0053  gs=002b             efl=00000203
ws7v6!SymbeditorFinalize+0x29f1:
0051e461 e802c1fcff      call    ws7v6!DlgprjuFinalize+0xf86c (004ea568)
 # ChildEBP RetAddr      Args to Child              
WARNING: Stack unwind information not available. Following frames may be wrong.
00 0164e9b4 006fbb82     0164e9e8 006fba3c 0164eaf8 ws7v6!SymbeditorFinalize+0x2a16
01 0164e9e0 00645ab6     00000113 00000001 00000000 ws7v6!Exceptionloginitialization$qqrv+0xd897e
02 0164e9f8 76192edb     000209da 00000113 00000001 ws7v6!Exceptionloginitialization$qqrv+0x228b2
eax=00000000 ebx=7fde0010 ecx=000000bc edx=00c9f7bc esi=006fbb70 edi=00000113
eip=0051e486 esp=0164e98c ebp=0164e9b4 iopl=0         nv up ei pl nz na po nc
cs=0023  ss=002b  ds=002b  es=002b  fs=0053  gs=002b             efl=00000202
ws7v6!SymbeditorFinalize+0x2a16:
0051e486 81e101000080    and     ecx,80000001h
 # ChildEBP RetAddr      Args to Child              
WARNING: Stack unwind information not available. Following frames may be wrong.
00 0164e9b4 006fbb82     0164e9e8 006fba3c 0164eaf8 ws7v6!SymbeditorFinalize+0x29f1
01 0164e9e0 00645ab6     00000113 00000001 00000000 ws7v6!Exceptionloginitialization$qqrv+0xd897e
02 0164e9f8 76192edb     000209da 00000113 00000001 ws7v6!Exceptionloginitialization$qqrv+0x228b2
eax=0164e9c4 ebx=7fde0010 ecx=051c0793 edx=08532da0 esi=006fbb70 edi=00000113
eip=0051e461 esp=0164e98c ebp=0164e9b4 iopl=0         nv up ei pl nz na pe cy
cs=0023  ss=002b  ds=002b  es=002b  fs=0053  gs=002b             efl=00000207
ws7v6!SymbeditorFinalize+0x29f1:
0051e461 e802c1fcff      call    ws7v6!DlgprjuFinalize+0xf86c (004ea568)
 # ChildEBP RetAddr      Args to Child              
WARNING: Stack unwind information not available. Following frames may be wrong.
00 0164e9b4 006fbb82     0164e9e8 006fba3c 0164eaf8 ws7v6!SymbeditorFinalize+0x2a16
01 0164e9e0 00645ab6     00000113 00000001 00000000 ws7v6!Exceptionloginitialization$qqrv+0xd897e
02 0164e9f8 76192edb     000209da 00000113 00000001 ws7v6!Exceptionloginitialization$qqrv+0x228b2
eax=00000000 ebx=7fde0010 ecx=000000bd edx=00c9f7bc esi=006fbb70 edi=00000113
eip=0051e486 esp=0164e98c ebp=0164e9b4 iopl=0         nv up ei pl nz na po nc
cs=0023  ss=002b  ds=002b  es=002b  fs=0053  gs=002b             efl=00000202
ws7v6!SymbeditorFinalize+0x2a16:
0051e486 81e101000080    and     ecx,80000001h
 # ChildEBP RetAddr      Args to Child              
WARNING: Stack unwind information not available. Following frames may be wrong.
00 0164e9b4 006fbb82     0164e9e8 006fba3c 0164eaf8 ws7v6!SymbeditorFinalize+0x29f1
01 0164e9e0 00645ab6     00000113 00000001 00000000 ws7v6!Exceptionloginitialization$qqrv+0xd897e
02 0164e9f8 76192edb     000209da 00000113 00000001 ws7v6!Exceptionloginitialization$qqrv+0x228b2
eax=0164e9c4 ebx=7fde0010 ecx=051c0793 edx=08532da0 esi=006fbb70 edi=00000113
eip=0051e461 esp=0164e98c ebp=0164e9b4 iopl=0         nv up ei pl nz na pe cy
cs=0023  ss=002b  ds=002b  es=002b  fs=0053  gs=002b             efl=00000207
ws7v6!SymbeditorFinalize+0x29f1:
0051e461 e802c1fcff      call    ws7v6!DlgprjuFinalize+0xf86c (004ea568)
 # ChildEBP RetAddr      Args to Child              
WARNING: Stack unwind information not available. Following frames may be wrong.
00 0164e9b4 006fbb82     0164e9e8 006fba3c 0164eaf8 ws7v6!SymbeditorFinalize+0x2a16
01 0164e9e0 00645ab6     00000113 00000001 00000000 ws7v6!Exceptionloginitialization$qqrv+0xd897e
02 0164e9f8 76192edb     000209da 00000113 00000001 ws7v6!Exceptionloginitialization$qqrv+0x228b2
eax=00000000 ebx=7fde0010 ecx=000000be edx=00c9f7bc esi=006fbb70 edi=00000113
eip=0051e486 esp=0164e98c ebp=0164e9b4 iopl=0         nv up ei pl nz na po nc
cs=0023  ss=002b  ds=002b  es=002b  fs=0053  gs=002b             efl=00000202
ws7v6!SymbeditorFinalize+0x2a16:
0051e486 81e101000080    and     ecx,80000001h
 # ChildEBP RetAddr      Args to Child              
WARNING: Stack unwind information not available. Following frames may be wrong.
00 0164e9b4 006fbb82     0164e9e8 006fba3c 0164eaf8 ws7v6!SymbeditorFinalize+0x29f1
01 0164e9e0 00645ab6     00000113 00000001 00000000 ws7v6!Exceptionloginitialization$qqrv+0xd897e
02 0164e9f8 76192edb     000209da 00000113 00000001 ws7v6!Exceptionloginitialization$qqrv+0x228b2
eax=0164e9c4 ebx=7fde0010 ecx=051c0793 edx=08532da0 esi=006fbb70 edi=00000113
eip=0051e461 esp=0164e98c ebp=0164e9b4 iopl=0         nv up ei pl nz na po cy
cs=0023  ss=002b  ds=002b  es=002b  fs=0053  gs=002b             efl=00000203
ws7v6!SymbeditorFinalize+0x29f1:
0051e461 e802c1fcff      call    ws7v6!DlgprjuFinalize+0xf86c (004ea568)
 # ChildEBP RetAddr      Args to Child              
WARNING: Stack unwind information not available. Following frames may be wrong.
00 0164e9b4 006fbb82     0164e9e8 006fba3c 0164eaf8 ws7v6!SymbeditorFinalize+0x2a16
01 0164e9e0 00645ab6     00000113 00000001 00000000 ws7v6!Exceptionloginitialization$qqrv+0xd897e
02 0164e9f8 76192edb     000209da 00000113 00000001 ws7v6!Exceptionloginitialization$qqrv+0x228b2
eax=00000000 ebx=7fde0010 ecx=000000bf edx=00c9f7bc esi=006fbb70 edi=00000113
eip=0051e486 esp=0164e98c ebp=0164e9b4 iopl=0         nv up ei pl nz na po nc
cs=0023  ss=002b  ds=002b  es=002b  fs=0053  gs=002b             efl=00000202
ws7v6!SymbeditorFinalize+0x2a16:
0051e486 81e101000080    and     ecx,80000001h
 # ChildEBP RetAddr      Args to Child              
WARNING: Stack unwind information not available. Following frames may be wrong.
00 0164e9b4 006fbb82     0164e9e8 006fba3c 0164eaf8 ws7v6!SymbeditorFinalize+0x29f1
01 0164e9e0 00645ab6     00000113 00000001 00000000 ws7v6!Exceptionloginitialization$qqrv+0xd897e
02 0164e9f8 76192edb     000209da 00000113 00000001 ws7v6!Exceptionloginitialization$qqrv+0x228b2
eax=0164e9c4 ebx=7fde0010 ecx=051c0793 edx=08532da0 esi=006fbb70 edi=00000113
eip=0051e461 esp=0164e98c ebp=0164e9b4 iopl=0         nv up ei pl nz ac pe cy
cs=0023  ss=002b  ds=002b  es=002b  fs=0053  gs=002b             efl=00000217
ws7v6!SymbeditorFinalize+0x29f1:
0051e461 e802c1fcff      call    ws7v6!DlgprjuFinalize+0xf86c (004ea568)
 # ChildEBP RetAddr      Args to Child              
WARNING: Stack unwind information not available. Following frames may be wrong.
00 0164e9b4 006fbb82     0164e9e8 006fba3c 0164eaf8 ws7v6!SymbeditorFinalize+0x2a16
01 0164e9e0 00645ab6     00000113 00000001 00000000 ws7v6!Exceptionloginitialization$qqrv+0xd897e
02 0164e9f8 76192edb     000209da 00000113 00000001 ws7v6!Exceptionloginitialization$qqrv+0x228b2
eax=00000000 ebx=7fde0010 ecx=000000c0 edx=00c9f7bc esi=006fbb70 edi=00000113
eip=0051e486 esp=0164e98c ebp=0164e9b4 iopl=0         nv up ei pl nz na po nc
cs=0023  ss=002b  ds=002b  es=002b  fs=0053  gs=002b             efl=00000202
ws7v6!SymbeditorFinalize+0x2a16:
0051e486 81e101000080    and     ecx,80000001h
 # ChildEBP RetAddr      Args to Child              
WARNING: Stack unwind information not available. Following frames may be wrong.
00 0164e9b4 006fbb82     0164e9e8 006fba3c 0164eaf8 ws7v6!SymbeditorFinalize+0x29f1
01 0164e9e0 00645ab6     00000113 00000001 00000000 ws7v6!Exceptionloginitialization$qqrv+0xd897e
02 0164e9f8 76192edb     000209da 00000113 00000001 ws7v6!Exceptionloginitialization$qqrv+0x228b2
eax=0164e9c4 ebx=7fde0010 ecx=051c0793 edx=08532da0 esi=006fbb70 edi=00000113
eip=0051e461 esp=0164e98c ebp=0164e9b4 iopl=0         nv up ei pl nz na po cy
cs=0023  ss=002b  ds=002b  es=002b  fs=0053  gs=002b             efl=00000203
ws7v6!SymbeditorFinalize+0x29f1:
0051e461 e802c1fcff      call    ws7v6!DlgprjuFinalize+0xf86c (004ea568)
 # ChildEBP RetAddr      Args to Child              
WARNING: Stack unwind information not available. Following frames may be wrong.
00 0164e9b4 006fbb82     0164e9e8 006fba3c 0164eaf8 ws7v6!SymbeditorFinalize+0x2a16
01 0164e9e0 00645ab6     00000113 00000001 00000000 ws7v6!Exceptionloginitialization$qqrv+0xd897e
02 0164e9f8 76192edb     000209da 00000113 00000001 ws7v6!Exceptionloginitialization$qqrv+0x228b2
eax=00000000 ebx=7fde0010 ecx=000000c1 edx=00c9f7bc esi=006fbb70 edi=00000113
eip=0051e486 esp=0164e98c ebp=0164e9b4 iopl=0         nv up ei pl nz na po nc
cs=0023  ss=002b  ds=002b  es=002b  fs=0053  gs=002b             efl=00000202
ws7v6!SymbeditorFinalize+0x2a16:
0051e486 81e101000080    and     ecx,80000001h
 # ChildEBP RetAddr      Args to Child              
WARNING: Stack unwind information not available. Following frames may be wrong.
00 0164e9b4 006fbb82     0164e9e8 006fba3c 0164eaf8 ws7v6!SymbeditorFinalize+0x29f1
01 0164e9e0 00645ab6     00000113 00000001 00000000 ws7v6!Exceptionloginitialization$qqrv+0xd897e
02 0164e9f8 76192edb     000209da 00000113 00000001 ws7v6!Exceptionloginitialization$qqrv+0x228b2
eax=0164e9c4 ebx=7fde0010 ecx=051c0793 edx=08532da0 esi=006fbb70 edi=00000113
eip=0051e461 esp=0164e98c ebp=0164e9b4 iopl=0         nv up ei pl nz na po cy
cs=0023  ss=002b  ds=002b  es=002b  fs=0053  gs=002b             efl=00000203
ws7v6!SymbeditorFinalize+0x29f1:
0051e461 e802c1fcff      call    ws7v6!DlgprjuFinalize+0xf86c (004ea568)
 # ChildEBP RetAddr      Args to Child              
WARNING: Stack unwind information not available. Following frames may be wrong.
00 0164e9b4 006fbb82     0164e9e8 006fba3c 0164eaf8 ws7v6!SymbeditorFinalize+0x2a16
01 0164e9e0 00645ab6     00000113 00000001 00000000 ws7v6!Exceptionloginitialization$qqrv+0xd897e
02 0164e9f8 76192edb     000209da 00000113 00000001 ws7v6!Exceptionloginitialization$qqrv+0x228b2
eax=00000000 ebx=7fde0010 ecx=000000c2 edx=00c9f7bc esi=006fbb70 edi=00000113
eip=0051e486 esp=0164e98c ebp=0164e9b4 iopl=0         nv up ei pl nz na po nc
cs=0023  ss=002b  ds=002b  es=002b  fs=0053  gs=002b             efl=00000202
ws7v6!SymbeditorFinalize+0x2a16:
0051e486 81e101000080    and     ecx,80000001h
 # ChildEBP RetAddr      Args to Child              
WARNING: Stack unwind information not available. Following frames may be wrong.
00 0164e9b4 006fbb82     0164e9e8 006fba3c 0164eaf8 ws7v6!SymbeditorFinalize+0x29f1
01 0164e9e0 00645ab6     00000113 00000001 00000000 ws7v6!Exceptionloginitialization$qqrv+0xd897e
02 0164e9f8 76192edb     000209da 00000113 00000001 ws7v6!Exceptionloginitialization$qqrv+0x228b2
eax=0164e9c4 ebx=7fde0010 ecx=051c0793 edx=08532da0 esi=006fbb70 edi=00000113
eip=0051e461 esp=0164e98c ebp=0164e9b4 iopl=0         nv up ei pl nz na pe cy
cs=0023  ss=002b  ds=002b  es=002b  fs=0053  gs=002b             efl=00000207
ws7v6!SymbeditorFinalize+0x29f1:
0051e461 e802c1fcff      call    ws7v6!DlgprjuFinalize+0xf86c (004ea568)
 # ChildEBP RetAddr      Args to Child              
WARNING: Stack unwind information not available. Following frames may be wrong.
00 0164e9b4 006fbb82     0164e9e8 006fba3c 0164eaf8 ws7v6!SymbeditorFinalize+0x2a16
01 0164e9e0 00645ab6     00000113 00000001 00000000 ws7v6!Exceptionloginitialization$qqrv+0xd897e
02 0164e9f8 76192edb     000209da 00000113 00000001 ws7v6!Exceptionloginitialization$qqrv+0x228b2
eax=00000000 ebx=7fde0010 ecx=000000c3 edx=00c9f7bc esi=006fbb70 edi=00000113
eip=0051e486 esp=0164e98c ebp=0164e9b4 iopl=0         nv up ei pl nz na po nc
cs=0023  ss=002b  ds=002b  es=002b  fs=0053  gs=002b             efl=00000202
ws7v6!SymbeditorFinalize+0x2a16:
0051e486 81e101000080    and     ecx,80000001h
 # ChildEBP RetAddr      Args to Child              
WARNING: Stack unwind information not available. Following frames may be wrong.
00 0164e9b4 006fbb82     0164e9e8 006fba3c 0164eaf8 ws7v6!SymbeditorFinalize+0x29f1
01 0164e9e0 00645ab6     00000113 00000001 00000000 ws7v6!Exceptionloginitialization$qqrv+0xd897e
02 0164e9f8 76192edb     000209da 00000113 00000001 ws7v6!Exceptionloginitialization$qqrv+0x228b2
eax=0164e9c4 ebx=7fde0010 ecx=051c0793 edx=08532da0 esi=006fbb70 edi=00000113
eip=0051e461 esp=0164e98c ebp=0164e9b4 iopl=0         nv up ei pl nz na po cy
cs=0023  ss=002b  ds=002b  es=002b  fs=0053  gs=002b             efl=00000203
ws7v6!SymbeditorFinalize+0x29f1:
0051e461 e802c1fcff      call    ws7v6!DlgprjuFinalize+0xf86c (004ea568)
 # ChildEBP RetAddr      Args to Child              
WARNING: Stack unwind information not available. Following frames may be wrong.
00 0164e9b4 006fbb82     0164e9e8 006fba3c 0164eaf8 ws7v6!SymbeditorFinalize+0x2a16
01 0164e9e0 00645ab6     00000113 00000001 00000000 ws7v6!Exceptionloginitialization$qqrv+0xd897e
02 0164e9f8 76192edb     000209da 00000113 00000001 ws7v6!Exceptionloginitialization$qqrv+0x228b2
eax=00000000 ebx=7fde0010 ecx=000000c4 edx=00c9f7bc esi=006fbb70 edi=00000113
eip=0051e486 esp=0164e98c ebp=0164e9b4 iopl=0         nv up ei pl nz na po nc
cs=0023  ss=002b  ds=002b  es=002b  fs=0053  gs=002b             efl=00000202
ws7v6!SymbeditorFinalize+0x2a16:
0051e486 81e101000080    and     ecx,80000001h
 # ChildEBP RetAddr      Args to Child              
WARNING: Stack unwind information not available. Following frames may be wrong.
00 0164e9b4 006fbb82     0164e9e8 006fba3c 0164eaf8 ws7v6!SymbeditorFinalize+0x29f1
01 0164e9e0 00645ab6     00000113 00000001 00000000 ws7v6!Exceptionloginitialization$qqrv+0xd897e
02 0164e9f8 76192edb     000209da 00000113 00000001 ws7v6!Exceptionloginitialization$qqrv+0x228b2
eax=0164e9c4 ebx=7fde0010 ecx=051c0793 edx=08532da0 esi=006fbb70 edi=00000113
eip=0051e461 esp=0164e98c ebp=0164e9b4 iopl=0         nv up ei pl nz na pe cy
cs=0023  ss=002b  ds=002b  es=002b  fs=0053  gs=002b             efl=00000207
ws7v6!SymbeditorFinalize+0x29f1:
0051e461 e802c1fcff      call    ws7v6!DlgprjuFinalize+0xf86c (004ea568)
 # ChildEBP RetAddr      Args to Child              
WARNING: Stack unwind information not available. Following frames may be wrong.
00 0164e9b4 006fbb82     0164e9e8 006fba3c 0164eaf8 ws7v6!SymbeditorFinalize+0x2a16
01 0164e9e0 00645ab6     00000113 00000001 00000000 ws7v6!Exceptionloginitialization$qqrv+0xd897e
02 0164e9f8 76192edb     000209da 00000113 00000001 ws7v6!Exceptionloginitialization$qqrv+0x228b2
eax=00000000 ebx=7fde0010 ecx=000000c5 edx=00c9f7bc esi=006fbb70 edi=00000113
eip=0051e486 esp=0164e98c ebp=0164e9b4 iopl=0         nv up ei pl nz na po nc
cs=0023  ss=002b  ds=002b  es=002b  fs=0053  gs=002b             efl=00000202
ws7v6!SymbeditorFinalize+0x2a16:
0051e486 81e101000080    and     ecx,80000001h
 # ChildEBP RetAddr      Args to Child              
WARNING: Stack unwind information not available. Following frames may be wrong.
00 0164e9b4 006fbb82     0164e9e8 006fba3c 0164eaf8 ws7v6!SymbeditorFinalize+0x29f1
01 0164e9e0 00645ab6     00000113 00000001 00000000 ws7v6!Exceptionloginitialization$qqrv+0xd897e
02 0164e9f8 76192edb     000209da 00000113 00000001 ws7v6!Exceptionloginitialization$qqrv+0x228b2
eax=0164e9c4 ebx=7fde0010 ecx=051c0793 edx=08532da0 esi=006fbb70 edi=00000113
eip=0051e461 esp=0164e98c ebp=0164e9b4 iopl=0         nv up ei pl nz na pe cy
cs=0023  ss=002b  ds=002b  es=002b  fs=0053  gs=002b             efl=00000207
ws7v6!SymbeditorFinalize+0x29f1:
0051e461 e802c1fcff      call    ws7v6!DlgprjuFinalize+0xf86c (004ea568)
 # ChildEBP RetAddr      Args to Child              
WARNING: Stack unwind information not available. Following frames may be wrong.
00 0164e9b4 006fbb82     0164e9e8 006fba3c 0164eaf8 ws7v6!SymbeditorFinalize+0x2a16
01 0164e9e0 00645ab6     00000113 00000001 00000000 ws7v6!Exceptionloginitialization$qqrv+0xd897e
02 0164e9f8 76192edb     000209da 00000113 00000001 ws7v6!Exceptionloginitialization$qqrv+0x228b2
eax=00000000 ebx=7fde0010 ecx=000000c6 edx=00c9f7bc esi=006fbb70 edi=00000113
eip=0051e486 esp=0164e98c ebp=0164e9b4 iopl=0         nv up ei pl nz na po nc
cs=0023  ss=002b  ds=002b  es=002b  fs=0053  gs=002b             efl=00000202
ws7v6!SymbeditorFinalize+0x2a16:
0051e486 81e101000080    and     ecx,80000001h
 # ChildEBP RetAddr      Args to Child              
WARNING: Stack unwind information not available. Following frames may be wrong.
00 0164e9b4 006fbb82     0164e9e8 006fba3c 0164eaf8 ws7v6!SymbeditorFinalize+0x29f1
01 0164e9e0 00645ab6     00000113 00000001 00000000 ws7v6!Exceptionloginitialization$qqrv+0xd897e
02 0164e9f8 76192edb     000209da 00000113 00000001 ws7v6!Exceptionloginitialization$qqrv+0x228b2
eax=0164e9c4 ebx=7fde0010 ecx=051c0793 edx=08532da0 esi=006fbb70 edi=00000113
eip=0051e461 esp=0164e98c ebp=0164e9b4 iopl=0         nv up ei pl nz na po cy
cs=0023  ss=002b  ds=002b  es=002b  fs=0053  gs=002b             efl=00000203
ws7v6!SymbeditorFinalize+0x29f1:
0051e461 e802c1fcff      call    ws7v6!DlgprjuFinalize+0xf86c (004ea568)
 # ChildEBP RetAddr      Args to Child              
WARNING: Stack unwind information not available. Following frames may be wrong.
00 0164e9b4 006fbb82     0164e9e8 006fba3c 0164eaf8 ws7v6!SymbeditorFinalize+0x2a16
01 0164e9e0 00645ab6     00000113 00000001 00000000 ws7v6!Exceptionloginitialization$qqrv+0xd897e
02 0164e9f8 76192edb     000209da 00000113 00000001 ws7v6!Exceptionloginitialization$qqrv+0x228b2
eax=00000000 ebx=7fde0010 ecx=000000c7 edx=00c9f7bc esi=006fbb70 edi=00000113
eip=0051e486 esp=0164e98c ebp=0164e9b4 iopl=0         nv up ei pl nz na po nc
cs=0023  ss=002b  ds=002b  es=002b  fs=0053  gs=002b             efl=00000202
ws7v6!SymbeditorFinalize+0x2a16:
0051e486 81e101000080    and     ecx,80000001h
 # ChildEBP RetAddr      Args to Child              
WARNING: Stack unwind information not available. Following frames may be wrong.
00 0164e9b4 006fbb82     0164e9e8 006fba3c 0164eaf8 ws7v6!SymbeditorFinalize+0x29f1
01 0164e9e0 00645ab6     00000113 00000001 00000000 ws7v6!Exceptionloginitialization$qqrv+0xd897e
02 0164e9f8 76192edb     000209da 00000113 00000001 ws7v6!Exceptionloginitialization$qqrv+0x228b2
eax=0164e9c4 ebx=7fde0010 ecx=051c0793 edx=08532da0 esi=006fbb70 edi=00000113
eip=0051e461 esp=0164e98c ebp=0164e9b4 iopl=0         nv up ei pl nz na po cy
cs=0023  ss=002b  ds=002b  es=002b  fs=0053  gs=002b             efl=00000203
ws7v6!SymbeditorFinalize+0x29f1:
0051e461 e802c1fcff      call    ws7v6!DlgprjuFinalize+0xf86c (004ea568)
 # ChildEBP RetAddr      Args to Child              
WARNING: Stack unwind information not available. Following frames may be wrong.
00 0164e9b4 006fbb82     0164e9e8 006fba3c 0164eaf8 ws7v6!SymbeditorFinalize+0x2a16
01 0164e9e0 00645ab6     00000113 00000001 00000000 ws7v6!Exceptionloginitialization$qqrv+0xd897e
02 0164e9f8 76192edb     000209da 00000113 00000001 ws7v6!Exceptionloginitialization$qqrv+0x228b2
eax=00000000 ebx=7fde0010 ecx=000000c8 edx=00c9f7bc esi=006fbb70 edi=00000113
eip=0051e486 esp=0164e98c ebp=0164e9b4 iopl=0         nv up ei pl nz na po nc
cs=0023  ss=002b  ds=002b  es=002b  fs=0053  gs=002b             efl=00000202
ws7v6!SymbeditorFinalize+0x2a16:
0051e486 81e101000080    and     ecx,80000001h
 # ChildEBP RetAddr      Args to Child              
WARNING: Stack unwind information not available. Following frames may be wrong.
00 0164e9b4 006fbb82     0164e9e8 006fba3c 0164eaf8 ws7v6!SymbeditorFinalize+0x29f1
01 0164e9e0 00645ab6     00000113 00000001 00000000 ws7v6!Exceptionloginitialization$qqrv+0xd897e
02 0164e9f8 76192edb     000209da 00000113 00000001 ws7v6!Exceptionloginitialization$qqrv+0x228b2
eax=0164e9c4 ebx=7fde0010 ecx=051c0793 edx=08532da0 esi=006fbb70 edi=00000113
eip=0051e461 esp=0164e98c ebp=0164e9b4 iopl=0         nv up ei pl nz na pe cy
cs=0023  ss=002b  ds=002b  es=002b  fs=0053  gs=002b             efl=00000207
ws7v6!SymbeditorFinalize+0x29f1:
0051e461 e802c1fcff      call    ws7v6!DlgprjuFinalize+0xf86c (004ea568)
 # ChildEBP RetAddr      Args to Child              
WARNING: Stack unwind information not available. Following frames may be wrong.
00 0164e9b4 006fbb82     0164e9e8 006fba3c 0164eaf8 ws7v6!SymbeditorFinalize+0x2a16
01 0164e9e0 00645ab6     00000113 00000001 00000000 ws7v6!Exceptionloginitialization$qqrv+0xd897e
02 0164e9f8 76192edb     000209da 00000113 00000001 ws7v6!Exceptionloginitialization$qqrv+0x228b2
eax=00000000 ebx=7fde0010 ecx=000000c9 edx=00c9f7bc esi=006fbb70 edi=00000113
eip=0051e486 esp=0164e98c ebp=0164e9b4 iopl=0         nv up ei pl nz na po nc
cs=0023  ss=002b  ds=002b  es=002b  fs=0053  gs=002b             efl=00000202
ws7v6!SymbeditorFinalize+0x2a16:
0051e486 81e101000080    and     ecx,80000001h
 # ChildEBP RetAddr      Args to Child              
WARNING: Stack unwind information not available. Following frames may be wrong.
00 0164e9b4 006fbb82     0164e9e8 006fba3c 0164eaf8 ws7v6!SymbeditorFinalize+0x29f1
01 0164e9e0 00645ab6     00000113 00000001 00000000 ws7v6!Exceptionloginitialization$qqrv+0xd897e
02 0164e9f8 76192edb     000209da 00000113 00000001 ws7v6!Exceptionloginitialization$qqrv+0x228b2
eax=0164e9c4 ebx=7fde0010 ecx=051c0793 edx=08532da0 esi=006fbb70 edi=00000113
eip=0051e461 esp=0164e98c ebp=0164e9b4 iopl=0         nv up ei pl nz na pe cy
cs=0023  ss=002b  ds=002b  es=002b  fs=0053  gs=002b             efl=00000207
ws7v6!SymbeditorFinalize+0x29f1:
0051e461 e802c1fcff      call    ws7v6!DlgprjuFinalize+0xf86c (004ea568)
 # ChildEBP RetAddr      Args to Child              
WARNING: Stack unwind information not available. Following frames may be wrong.
00 0164e9b4 006fbb82     0164e9e8 006fba3c 0164eaf8 ws7v6!SymbeditorFinalize+0x2a16
01 0164e9e0 00645ab6     00000113 00000001 00000000 ws7v6!Exceptionloginitialization$qqrv+0xd897e
02 0164e9f8 76192edb     000209da 00000113 00000001 ws7v6!Exceptionloginitialization$qqrv+0x228b2
eax=00000000 ebx=7fde0010 ecx=000000ca edx=00c9f7bc esi=006fbb70 edi=00000113
eip=0051e486 esp=0164e98c ebp=0164e9b4 iopl=0         nv up ei pl nz na po nc
cs=0023  ss=002b  ds=002b  es=002b  fs=0053  gs=002b             efl=00000202
ws7v6!SymbeditorFinalize+0x2a16:
0051e486 81e101000080    and     ecx,80000001h
 # ChildEBP RetAddr      Args to Child              
WARNING: Stack unwind information not available. Following frames may be wrong.
00 0164e9b4 006fbb82     0164e9e8 006fba3c 0164eaf8 ws7v6!SymbeditorFinalize+0x29f1
01 0164e9e0 00645ab6     00000113 00000001 00000000 ws7v6!Exceptionloginitialization$qqrv+0xd897e
02 0164e9f8 76192edb     000209da 00000113 00000001 ws7v6!Exceptionloginitialization$qqrv+0x228b2
eax=0164e9c4 ebx=7fde0010 ecx=051c0793 edx=08532da0 esi=006fbb70 edi=00000113
eip=0051e461 esp=0164e98c ebp=0164e9b4 iopl=0         nv up ei pl nz na po cy
cs=0023  ss=002b  ds=002b  es=002b  fs=0053  gs=002b             efl=00000203
ws7v6!SymbeditorFinalize+0x29f1:
0051e461 e802c1fcff      call    ws7v6!DlgprjuFinalize+0xf86c (004ea568)
 # ChildEBP RetAddr      Args to Child              
WARNING: Stack unwind information not available. Following frames may be wrong.
00 0164e9b4 006fbb82     0164e9e8 006fba3c 0164eaf8 ws7v6!SymbeditorFinalize+0x2a16
01 0164e9e0 00645ab6     00000113 00000001 00000000 ws7v6!Exceptionloginitialization$qqrv+0xd897e
02 0164e9f8 76192edb     000209da 00000113 00000001 ws7v6!Exceptionloginitialization$qqrv+0x228b2
eax=00000000 ebx=7fde0010 ecx=000000cb edx=00c9f7bc esi=006fbb70 edi=00000113
eip=0051e486 esp=0164e98c ebp=0164e9b4 iopl=0         nv up ei pl nz na po nc
cs=0023  ss=002b  ds=002b  es=002b  fs=0053  gs=002b             efl=00000202
ws7v6!SymbeditorFinalize+0x2a16:
0051e486 81e101000080    and     ecx,80000001h
 # ChildEBP RetAddr      Args to Child              
WARNING: Stack unwind information not available. Following frames may be wrong.
00 0164e9b4 006fbb82     0164e9e8 006fba3c 0164eaf8 ws7v6!SymbeditorFinalize+0x29f1
01 0164e9e0 00645ab6     00000113 00000001 00000000 ws7v6!Exceptionloginitialization$qqrv+0xd897e
02 0164e9f8 76192edb     000209da 00000113 00000001 ws7v6!Exceptionloginitialization$qqrv+0x228b2
eax=0164e9c4 ebx=7fde0010 ecx=051c0793 edx=08532da0 esi=006fbb70 edi=00000113
eip=0051e461 esp=0164e98c ebp=0164e9b4 iopl=0         nv up ei pl nz na pe cy
cs=0023  ss=002b  ds=002b  es=002b  fs=0053  gs=002b             efl=00000207
ws7v6!SymbeditorFinalize+0x29f1:
0051e461 e802c1fcff      call    ws7v6!DlgprjuFinalize+0xf86c (004ea568)
 # ChildEBP RetAddr      Args to Child              
WARNING: Stack unwind information not available. Following frames may be wrong.
00 0164e9b4 006fbb82     0164e9e8 006fba3c 0164eaf8 ws7v6!SymbeditorFinalize+0x2a16
01 0164e9e0 00645ab6     00000113 00000001 00000000 ws7v6!Exceptionloginitialization$qqrv+0xd897e
02 0164e9f8 76192edb     000209da 00000113 00000001 ws7v6!Exceptionloginitialization$qqrv+0x228b2
eax=00000000 ebx=7fde0010 ecx=000000cc edx=00c9f7bc esi=006fbb70 edi=00000113
eip=0051e486 esp=0164e98c ebp=0164e9b4 iopl=0         nv up ei pl nz na po nc
cs=0023  ss=002b  ds=002b  es=002b  fs=0053  gs=002b             efl=00000202
ws7v6!SymbeditorFinalize+0x2a16:
0051e486 81e101000080    and     ecx,80000001h
 # ChildEBP RetAddr      Args to Child              
WARNING: Stack unwind information not available. Following frames may be wrong.
00 0164e9b4 006fbb82     0164e9e8 006fba3c 0164eaf8 ws7v6!SymbeditorFinalize+0x29f1
01 0164e9e0 00645ab6     00000113 00000001 00000000 ws7v6!Exceptionloginitialization$qqrv+0xd897e
02 0164e9f8 76192edb     000209da 00000113 00000001 ws7v6!Exceptionloginitialization$qqrv+0x228b2
eax=0164e9c4 ebx=7fde0010 ecx=051c0793 edx=08532da0 esi=006fbb70 edi=00000113
eip=0051e461 esp=0164e98c ebp=0164e9b4 iopl=0         nv up ei pl nz na po cy
cs=0023  ss=002b  ds=002b  es=002b  fs=0053  gs=002b             efl=00000203
ws7v6!SymbeditorFinalize+0x29f1:
0051e461 e802c1fcff      call    ws7v6!DlgprjuFinalize+0xf86c (004ea568)
 # ChildEBP RetAddr      Args to Child              
WARNING: Stack unwind information not available. Following frames may be wrong.
00 0164e9b4 006fbb82     0164e9e8 006fba3c 0164eaf8 ws7v6!SymbeditorFinalize+0x2a16
01 0164e9e0 00645ab6     00000113 00000001 00000000 ws7v6!Exceptionloginitialization$qqrv+0xd897e
02 0164e9f8 76192edb     000209da 00000113 00000001 ws7v6!Exceptionloginitialization$qqrv+0x228b2
eax=00000000 ebx=7fde0010 ecx=000000cd edx=00c9f7bc esi=006fbb70 edi=00000113
eip=0051e486 esp=0164e98c ebp=0164e9b4 iopl=0         nv up ei pl nz na po nc
cs=0023  ss=002b  ds=002b  es=002b  fs=0053  gs=002b             efl=00000202
ws7v6!SymbeditorFinalize+0x2a16:
0051e486 81e101000080    and     ecx,80000001h
 # ChildEBP RetAddr      Args to Child              
WARNING: Stack unwind information not available. Following frames may be wrong.
00 0164e9b4 006fbb82     0164e9e8 006fba3c 0164eaf8 ws7v6!SymbeditorFinalize+0x29f1
01 0164e9e0 00645ab6     00000113 00000001 00000000 ws7v6!Exceptionloginitialization$qqrv+0xd897e
02 0164e9f8 76192edb     000209da 00000113 00000001 ws7v6!Exceptionloginitialization$qqrv+0x228b2
eax=0164e9c4 ebx=7fde0010 ecx=051c0793 edx=08532da0 esi=006fbb70 edi=00000113
eip=0051e461 esp=0164e98c ebp=0164e9b4 iopl=0         nv up ei pl nz na po cy
cs=0023  ss=002b  ds=002b  es=002b  fs=0053  gs=002b             efl=00000203
ws7v6!SymbeditorFinalize+0x29f1:
0051e461 e802c1fcff      call    ws7v6!DlgprjuFinalize+0xf86c (004ea568)
 # ChildEBP RetAddr      Args to Child              
WARNING: Stack unwind information not available. Following frames may be wrong.
00 0164e9b4 006fbb82     0164e9e8 006fba3c 0164eaf8 ws7v6!SymbeditorFinalize+0x2a16
01 0164e9e0 00645ab6     00000113 00000001 00000000 ws7v6!Exceptionloginitialization$qqrv+0xd897e
02 0164e9f8 76192edb     000209da 00000113 00000001 ws7v6!Exceptionloginitialization$qqrv+0x228b2
eax=00000000 ebx=7fde0010 ecx=000000ce edx=00c9f7bc esi=006fbb70 edi=00000113
eip=0051e486 esp=0164e98c ebp=0164e9b4 iopl=0         nv up ei pl nz na po nc
cs=0023  ss=002b  ds=002b  es=002b  fs=0053  gs=002b             efl=00000202
ws7v6!SymbeditorFinalize+0x2a16:
0051e486 81e101000080    and     ecx,80000001h
 # ChildEBP RetAddr      Args to Child              
WARNING: Stack unwind information not available. Following frames may be wrong.
00 0164e9b4 006fbb82     0164e9e8 006fba3c 0164eaf8 ws7v6!SymbeditorFinalize+0x29f1
01 0164e9e0 00645ab6     00000113 00000001 00000000 ws7v6!Exceptionloginitialization$qqrv+0xd897e
02 0164e9f8 76192edb     000209da 00000113 00000001 ws7v6!Exceptionloginitialization$qqrv+0x228b2
eax=0164e9c4 ebx=7fde0010 ecx=051c0793 edx=08532da0 esi=006fbb70 edi=00000113
eip=0051e461 esp=0164e98c ebp=0164e9b4 iopl=0         nv up ei pl nz na pe cy
cs=0023  ss=002b  ds=002b  es=002b  fs=0053  gs=002b             efl=00000207
ws7v6!SymbeditorFinalize+0x29f1:
0051e461 e802c1fcff      call    ws7v6!DlgprjuFinalize+0xf86c (004ea568)
 # ChildEBP RetAddr      Args to Child              
WARNING: Stack unwind information not available. Following frames may be wrong.
00 0164e9b4 006fbb82     0164e9e8 006fba3c 0164eaf8 ws7v6!SymbeditorFinalize+0x2a16
01 0164e9e0 00645ab6     00000113 00000001 00000000 ws7v6!Exceptionloginitialization$qqrv+0xd897e
02 0164e9f8 76192edb     000209da 00000113 00000001 ws7v6!Exceptionloginitialization$qqrv+0x228b2
eax=00000000 ebx=7fde0010 ecx=000000cf edx=00c9f7bc esi=006fbb70 edi=00000113
eip=0051e486 esp=0164e98c ebp=0164e9b4 iopl=0         nv up ei pl nz na po nc
cs=0023  ss=002b  ds=002b  es=002b  fs=0053  gs=002b             efl=00000202
ws7v6!SymbeditorFinalize+0x2a16:
0051e486 81e101000080    and     ecx,80000001h
 # ChildEBP RetAddr      Args to Child              
WARNING: Stack unwind information not available. Following frames may be wrong.
00 0164e9b4 006fbb82     0164e9e8 006fba3c 0164eaf8 ws7v6!SymbeditorFinalize+0x29f1
01 0164e9e0 00645ab6     00000113 00000001 00000000 ws7v6!Exceptionloginitialization$qqrv+0xd897e
02 0164e9f8 76192edb     000209da 00000113 00000001 ws7v6!Exceptionloginitialization$qqrv+0x228b2
eax=0164e9c4 ebx=7fde0010 ecx=051c0793 edx=08532da0 esi=006fbb70 edi=00000113
eip=0051e461 esp=0164e98c ebp=0164e9b4 iopl=0         nv up ei pl nz ac po cy
cs=0023  ss=002b  ds=002b  es=002b  fs=0053  gs=002b             efl=00000213
ws7v6!SymbeditorFinalize+0x29f1:
0051e461 e802c1fcff      call    ws7v6!DlgprjuFinalize+0xf86c (004ea568)
 # ChildEBP RetAddr      Args to Child              
WARNING: Stack unwind information not available. Following frames may be wrong.
00 0164e9b4 006fbb82     0164e9e8 006fba3c 0164eaf8 ws7v6!SymbeditorFinalize+0x2a16
01 0164e9e0 00645ab6     00000113 00000001 00000000 ws7v6!Exceptionloginitialization$qqrv+0xd897e
02 0164e9f8 76192edb     000209da 00000113 00000001 ws7v6!Exceptionloginitialization$qqrv+0x228b2
eax=00000000 ebx=7fde0010 ecx=000000d0 edx=00c9f7bc esi=006fbb70 edi=00000113
eip=0051e486 esp=0164e98c ebp=0164e9b4 iopl=0         nv up ei pl nz na po nc
cs=0023  ss=002b  ds=002b  es=002b  fs=0053  gs=002b             efl=00000202
ws7v6!SymbeditorFinalize+0x2a16:
0051e486 81e101000080    and     ecx,80000001h
 # ChildEBP RetAddr      Args to Child              
WARNING: Stack unwind information not available. Following frames may be wrong.
00 0164e9b4 006fbb82     0164e9e8 006fba3c 0164eaf8 ws7v6!SymbeditorFinalize+0x29f1
01 0164e9e0 00645ab6     00000113 00000001 00000000 ws7v6!Exceptionloginitialization$qqrv+0xd897e
02 0164e9f8 76192edb     000209da 00000113 00000001 ws7v6!Exceptionloginitialization$qqrv+0x228b2
eax=0164e9c4 ebx=7fde0010 ecx=051c0793 edx=08532da0 esi=006fbb70 edi=00000113
eip=0051e461 esp=0164e98c ebp=0164e9b4 iopl=0         nv up ei pl nz na pe cy
cs=0023  ss=002b  ds=002b  es=002b  fs=0053  gs=002b             efl=00000207
ws7v6!SymbeditorFinalize+0x29f1:
0051e461 e802c1fcff      call    ws7v6!DlgprjuFinalize+0xf86c (004ea568)
 # ChildEBP RetAddr      Args to Child              
WARNING: Stack unwind information not available. Following frames may be wrong.
00 0164e9b4 006fbb82     0164e9e8 006fba3c 0164eaf8 ws7v6!SymbeditorFinalize+0x2a16
01 0164e9e0 00645ab6     00000113 00000001 00000000 ws7v6!Exceptionloginitialization$qqrv+0xd897e
02 0164e9f8 76192edb     000209da 00000113 00000001 ws7v6!Exceptionloginitialization$qqrv+0x228b2
eax=00000000 ebx=7fde0010 ecx=000000d1 edx=00c9f7bc esi=006fbb70 edi=00000113
eip=0051e486 esp=0164e98c ebp=0164e9b4 iopl=0         nv up ei pl nz na po nc
cs=0023  ss=002b  ds=002b  es=002b  fs=0053  gs=002b             efl=00000202
ws7v6!SymbeditorFinalize+0x2a16:
0051e486 81e101000080    and     ecx,80000001h
 # ChildEBP RetAddr      Args to Child              
WARNING: Stack unwind information not available. Following frames may be wrong.
00 0164e9b4 006fbb82     0164e9e8 006fba3c 0164eaf8 ws7v6!SymbeditorFinalize+0x29f1
01 0164e9e0 00645ab6     00000113 00000001 00000000 ws7v6!Exceptionloginitialization$qqrv+0xd897e
02 0164e9f8 76192edb     000209da 00000113 00000001 ws7v6!Exceptionloginitialization$qqrv+0x228b2
eax=0164e9c4 ebx=7fde0010 ecx=051c0793 edx=08532da0 esi=006fbb70 edi=00000113
eip=0051e461 esp=0164e98c ebp=0164e9b4 iopl=0         nv up ei pl nz na pe cy
cs=0023  ss=002b  ds=002b  es=002b  fs=0053  gs=002b             efl=00000207
ws7v6!SymbeditorFinalize+0x29f1:
0051e461 e802c1fcff      call    ws7v6!DlgprjuFinalize+0xf86c (004ea568)
 # ChildEBP RetAddr      Args to Child              
WARNING: Stack unwind information not available. Following frames may be wrong.
00 0164e9b4 006fbb82     0164e9e8 006fba3c 0164eaf8 ws7v6!SymbeditorFinalize+0x2a16
01 0164e9e0 00645ab6     00000113 00000001 00000000 ws7v6!Exceptionloginitialization$qqrv+0xd897e
02 0164e9f8 76192edb     000209da 00000113 00000001 ws7v6!Exceptionloginitialization$qqrv+0x228b2
eax=00000000 ebx=7fde0010 ecx=000000d2 edx=00c9f7bc esi=006fbb70 edi=00000113
eip=0051e486 esp=0164e98c ebp=0164e9b4 iopl=0         nv up ei pl nz na po nc
cs=0023  ss=002b  ds=002b  es=002b  fs=0053  gs=002b             efl=00000202
ws7v6!SymbeditorFinalize+0x2a16:
0051e486 81e101000080    and     ecx,80000001h
 # ChildEBP RetAddr      Args to Child              
WARNING: Stack unwind information not available. Following frames may be wrong.
00 0164e9b4 006fbb82     0164e9e8 006fba3c 0164eaf8 ws7v6!SymbeditorFinalize+0x29f1
01 0164e9e0 00645ab6     00000113 00000001 00000000 ws7v6!Exceptionloginitialization$qqrv+0xd897e
02 0164e9f8 76192edb     000209da 00000113 00000001 ws7v6!Exceptionloginitialization$qqrv+0x228b2
eax=0164e9c4 ebx=7fde0010 ecx=051c0793 edx=08532da0 esi=006fbb70 edi=00000113
eip=0051e461 esp=0164e98c ebp=0164e9b4 iopl=0         nv up ei pl nz na po cy
cs=0023  ss=002b  ds=002b  es=002b  fs=0053  gs=002b             efl=00000203
ws7v6!SymbeditorFinalize+0x29f1:
0051e461 e802c1fcff      call    ws7v6!DlgprjuFinalize+0xf86c (004ea568)
 # ChildEBP RetAddr      Args to Child              
WARNING: Stack unwind information not available. Following frames may be wrong.
00 0164e9b4 006fbb82     0164e9e8 006fba3c 0164eaf8 ws7v6!SymbeditorFinalize+0x2a16
01 0164e9e0 00645ab6     00000113 00000001 00000000 ws7v6!Exceptionloginitialization$qqrv+0xd897e
02 0164e9f8 76192edb     000209da 00000113 00000001 ws7v6!Exceptionloginitialization$qqrv+0x228b2
eax=00000000 ebx=7fde0010 ecx=000000d3 edx=00c9f7bc esi=006fbb70 edi=00000113
eip=0051e486 esp=0164e98c ebp=0164e9b4 iopl=0         nv up ei pl nz na po nc
cs=0023  ss=002b  ds=002b  es=002b  fs=0053  gs=002b             efl=00000202
ws7v6!SymbeditorFinalize+0x2a16:
0051e486 81e101000080    and     ecx,80000001h
 # ChildEBP RetAddr      Args to Child              
WARNING: Stack unwind information not available. Following frames may be wrong.
00 0164e9b4 006fbb82     0164e9e8 006fba3c 0164eaf8 ws7v6!SymbeditorFinalize+0x29f1
01 0164e9e0 00645ab6     00000113 00000001 00000000 ws7v6!Exceptionloginitialization$qqrv+0xd897e
02 0164e9f8 76192edb     000209da 00000113 00000001 ws7v6!Exceptionloginitialization$qqrv+0x228b2
eax=0164e9c4 ebx=7fde0010 ecx=051c0793 edx=08532da0 esi=006fbb70 edi=00000113
eip=0051e461 esp=0164e98c ebp=0164e9b4 iopl=0         nv up ei pl nz na pe cy
cs=0023  ss=002b  ds=002b  es=002b  fs=0053  gs=002b             efl=00000207
ws7v6!SymbeditorFinalize+0x29f1:
0051e461 e802c1fcff      call    ws7v6!DlgprjuFinalize+0xf86c (004ea568)
 # ChildEBP RetAddr      Args to Child              
WARNING: Stack unwind information not available. Following frames may be wrong.
00 0164e9b4 006fbb82     0164e9e8 006fba3c 0164eaf8 ws7v6!SymbeditorFinalize+0x2a16
01 0164e9e0 00645ab6     00000113 00000001 00000000 ws7v6!Exceptionloginitialization$qqrv+0xd897e
02 0164e9f8 76192edb     000209da 00000113 00000001 ws7v6!Exceptionloginitialization$qqrv+0x228b2
eax=00000000 ebx=7fde0010 ecx=000000d4 edx=00c9f7bc esi=006fbb70 edi=00000113
eip=0051e486 esp=0164e98c ebp=0164e9b4 iopl=0         nv up ei pl nz na po nc
cs=0023  ss=002b  ds=002b  es=002b  fs=0053  gs=002b             efl=00000202
ws7v6!SymbeditorFinalize+0x2a16:
0051e486 81e101000080    and     ecx,80000001h
 # ChildEBP RetAddr      Args to Child              
WARNING: Stack unwind information not available. Following frames may be wrong.
00 0164e9b4 006fbb82     0164e9e8 006fba3c 0164eaf8 ws7v6!SymbeditorFinalize+0x29f1
01 0164e9e0 00645ab6     00000113 00000001 00000000 ws7v6!Exceptionloginitialization$qqrv+0xd897e
02 0164e9f8 76192edb     000209da 00000113 00000001 ws7v6!Exceptionloginitialization$qqrv+0x228b2
eax=0164e9c4 ebx=7fde0010 ecx=051c0793 edx=08532da0 esi=006fbb70 edi=00000113
eip=0051e461 esp=0164e98c ebp=0164e9b4 iopl=0         nv up ei pl nz na po cy
cs=0023  ss=002b  ds=002b  es=002b  fs=0053  gs=002b             efl=00000203
ws7v6!SymbeditorFinalize+0x29f1:
0051e461 e802c1fcff      call    ws7v6!DlgprjuFinalize+0xf86c (004ea568)
 # ChildEBP RetAddr      Args to Child              
WARNING: Stack unwind information not available. Following frames may be wrong.
00 0164e9b4 006fbb82     0164e9e8 006fba3c 0164eaf8 ws7v6!SymbeditorFinalize+0x2a16
01 0164e9e0 00645ab6     00000113 00000001 00000000 ws7v6!Exceptionloginitialization$qqrv+0xd897e
02 0164e9f8 76192edb     000209da 00000113 00000001 ws7v6!Exceptionloginitialization$qqrv+0x228b2
eax=00000000 ebx=7fde0010 ecx=000000d5 edx=00c9f7bc esi=006fbb70 edi=00000113
eip=0051e486 esp=0164e98c ebp=0164e9b4 iopl=0         nv up ei pl nz na po nc
cs=0023  ss=002b  ds=002b  es=002b  fs=0053  gs=002b             efl=00000202
ws7v6!SymbeditorFinalize+0x2a16:
0051e486 81e101000080    and     ecx,80000001h
 # ChildEBP RetAddr      Args to Child              
WARNING: Stack unwind information not available. Following frames may be wrong.
00 0164e9b4 006fbb82     0164e9e8 006fba3c 0164eaf8 ws7v6!SymbeditorFinalize+0x29f1
01 0164e9e0 00645ab6     00000113 00000001 00000000 ws7v6!Exceptionloginitialization$qqrv+0xd897e
02 0164e9f8 76192edb     000209da 00000113 00000001 ws7v6!Exceptionloginitialization$qqrv+0x228b2
eax=0164e9c4 ebx=7fde0010 ecx=051c0793 edx=08532da0 esi=006fbb70 edi=00000113
eip=0051e461 esp=0164e98c ebp=0164e9b4 iopl=0         nv up ei pl nz na po cy
cs=0023  ss=002b  ds=002b  es=002b  fs=0053  gs=002b             efl=00000203
ws7v6!SymbeditorFinalize+0x29f1:
0051e461 e802c1fcff      call    ws7v6!DlgprjuFinalize+0xf86c (004ea568)
 # ChildEBP RetAddr      Args to Child              
WARNING: Stack unwind information not available. Following frames may be wrong.
00 0164e9b4 006fbb82     0164e9e8 006fba3c 0164eaf8 ws7v6!SymbeditorFinalize+0x2a16
01 0164e9e0 00645ab6     00000113 00000001 00000000 ws7v6!Exceptionloginitialization$qqrv+0xd897e
02 0164e9f8 76192edb     000209da 00000113 00000001 ws7v6!Exceptionloginitialization$qqrv+0x228b2
eax=00000000 ebx=7fde0010 ecx=000000d6 edx=00c9f7bc esi=006fbb70 edi=00000113
eip=0051e486 esp=0164e98c ebp=0164e9b4 iopl=0         nv up ei pl nz na po nc
cs=0023  ss=002b  ds=002b  es=002b  fs=0053  gs=002b             efl=00000202
ws7v6!SymbeditorFinalize+0x2a16:
0051e486 81e101000080    and     ecx,80000001h
 # ChildEBP RetAddr      Args to Child              
WARNING: Stack unwind information not available. Following frames may be wrong.
00 0164e9b4 006fbb82     0164e9e8 006fba3c 0164eaf8 ws7v6!SymbeditorFinalize+0x29f1
01 0164e9e0 00645ab6     00000113 00000001 00000000 ws7v6!Exceptionloginitialization$qqrv+0xd897e
02 0164e9f8 76192edb     000209da 00000113 00000001 ws7v6!Exceptionloginitialization$qqrv+0x228b2
eax=0164e9c4 ebx=7fde0010 ecx=051c0793 edx=08532da0 esi=006fbb70 edi=00000113
eip=0051e461 esp=0164e98c ebp=0164e9b4 iopl=0         nv up ei pl nz na pe cy
cs=0023  ss=002b  ds=002b  es=002b  fs=0053  gs=002b             efl=00000207
ws7v6!SymbeditorFinalize+0x29f1:
0051e461 e802c1fcff      call    ws7v6!DlgprjuFinalize+0xf86c (004ea568)
 # ChildEBP RetAddr      Args to Child              
WARNING: Stack unwind information not available. Following frames may be wrong.
00 0164e9b4 006fbb82     0164e9e8 006fba3c 0164eaf8 ws7v6!SymbeditorFinalize+0x2a16
01 0164e9e0 00645ab6     00000113 00000001 00000000 ws7v6!Exceptionloginitialization$qqrv+0xd897e
02 0164e9f8 76192edb     000209da 00000113 00000001 ws7v6!Exceptionloginitialization$qqrv+0x228b2
eax=00000000 ebx=7fde0010 ecx=000000d7 edx=00c9f7bc esi=006fbb70 edi=00000113
eip=0051e486 esp=0164e98c ebp=0164e9b4 iopl=0         nv up ei pl nz na po nc
cs=0023  ss=002b  ds=002b  es=002b  fs=0053  gs=002b             efl=00000202
ws7v6!SymbeditorFinalize+0x2a16:
0051e486 81e101000080    and     ecx,80000001h
 # ChildEBP RetAddr      Args to Child              
WARNING: Stack unwind information not available. Following frames may be wrong.
00 0164e9b4 006fbb82     0164e9e8 006fba3c 0164eaf8 ws7v6!SymbeditorFinalize+0x29f1
01 0164e9e0 00645ab6     00000113 00000001 00000000 ws7v6!Exceptionloginitialization$qqrv+0xd897e
02 0164e9f8 76192edb     000209da 00000113 00000001 ws7v6!Exceptionloginitialization$qqrv+0x228b2
eax=0164e9c4 ebx=7fde0010 ecx=051c0793 edx=08532da0 esi=006fbb70 edi=00000113
eip=0051e461 esp=0164e98c ebp=0164e9b4 iopl=0         nv up ei pl nz na pe cy
cs=0023  ss=002b  ds=002b  es=002b  fs=0053  gs=002b             efl=00000207
ws7v6!SymbeditorFinalize+0x29f1:
0051e461 e802c1fcff      call    ws7v6!DlgprjuFinalize+0xf86c (004ea568)
 # ChildEBP RetAddr      Args to Child              
WARNING: Stack unwind information not available. Following frames may be wrong.
00 0164e9b4 006fbb82     0164e9e8 006fba3c 0164eaf8 ws7v6!SymbeditorFinalize+0x2a16
01 0164e9e0 00645ab6     00000113 00000001 00000000 ws7v6!Exceptionloginitialization$qqrv+0xd897e
02 0164e9f8 76192edb     000209da 00000113 00000001 ws7v6!Exceptionloginitialization$qqrv+0x228b2
eax=00000000 ebx=7fde0010 ecx=000000d8 edx=00c9f7bc esi=006fbb70 edi=00000113
eip=0051e486 esp=0164e98c ebp=0164e9b4 iopl=0         nv up ei pl nz na po nc
cs=0023  ss=002b  ds=002b  es=002b  fs=0053  gs=002b             efl=00000202
ws7v6!SymbeditorFinalize+0x2a16:
0051e486 81e101000080    and     ecx,80000001h
 # ChildEBP RetAddr      Args to Child              
WARNING: Stack unwind information not available. Following frames may be wrong.
00 0164e9b4 006fbb82     0164e9e8 006fba3c 0164eaf8 ws7v6!SymbeditorFinalize+0x29f1
01 0164e9e0 00645ab6     00000113 00000001 00000000 ws7v6!Exceptionloginitialization$qqrv+0xd897e
02 0164e9f8 76192edb     000209da 00000113 00000001 ws7v6!Exceptionloginitialization$qqrv+0x228b2
eax=0164e9c4 ebx=7fde0010 ecx=051c0793 edx=08532da0 esi=006fbb70 edi=00000113
eip=0051e461 esp=0164e98c ebp=0164e9b4 iopl=0         nv up ei pl nz na po cy
cs=0023  ss=002b  ds=002b  es=002b  fs=0053  gs=002b             efl=00000203
ws7v6!SymbeditorFinalize+0x29f1:
0051e461 e802c1fcff      call    ws7v6!DlgprjuFinalize+0xf86c (004ea568)
 # ChildEBP RetAddr      Args to Child              
WARNING: Stack unwind information not available. Following frames may be wrong.
00 0164e9b4 006fbb82     0164e9e8 006fba3c 0164eaf8 ws7v6!SymbeditorFinalize+0x2a16
01 0164e9e0 00645ab6     00000113 00000001 00000000 ws7v6!Exceptionloginitialization$qqrv+0xd897e
02 0164e9f8 76192edb     000209da 00000113 00000001 ws7v6!Exceptionloginitialization$qqrv+0x228b2
eax=00000000 ebx=7fde0010 ecx=000000d9 edx=00c9f7bc esi=006fbb70 edi=00000113
eip=0051e486 esp=0164e98c ebp=0164e9b4 iopl=0         nv up ei pl nz na po nc
cs=0023  ss=002b  ds=002b  es=002b  fs=0053  gs=002b             efl=00000202
ws7v6!SymbeditorFinalize+0x2a16:
0051e486 81e101000080    and     ecx,80000001h
 # ChildEBP RetAddr      Args to Child              
WARNING: Stack unwind information not available. Following frames may be wrong.
00 0164e9b4 006fbb82     0164e9e8 006fba3c 0164eaf8 ws7v6!SymbeditorFinalize+0x29f1
01 0164e9e0 00645ab6     00000113 00000001 00000000 ws7v6!Exceptionloginitialization$qqrv+0xd897e
02 0164e9f8 76192edb     000209da 00000113 00000001 ws7v6!Exceptionloginitialization$qqrv+0x228b2
eax=0164e9c4 ebx=7fde0010 ecx=051c0793 edx=08532da0 esi=006fbb70 edi=00000113
eip=0051e461 esp=0164e98c ebp=0164e9b4 iopl=0         nv up ei pl nz na po cy
cs=0023  ss=002b  ds=002b  es=002b  fs=0053  gs=002b             efl=00000203
ws7v6!SymbeditorFinalize+0x29f1:
0051e461 e802c1fcff      call    ws7v6!DlgprjuFinalize+0xf86c (004ea568)
 # ChildEBP RetAddr      Args to Child              
WARNING: Stack unwind information not available. Following frames may be wrong.
00 0164e9b4 006fbb82     0164e9e8 006fba3c 0164eaf8 ws7v6!SymbeditorFinalize+0x2a16
01 0164e9e0 00645ab6     00000113 00000001 00000000 ws7v6!Exceptionloginitialization$qqrv+0xd897e
02 0164e9f8 76192edb     000209da 00000113 00000001 ws7v6!Exceptionloginitialization$qqrv+0x228b2
eax=00000000 ebx=7fde0010 ecx=000000da edx=00c9f7bc esi=006fbb70 edi=00000113
eip=0051e486 esp=0164e98c ebp=0164e9b4 iopl=0         nv up ei pl nz na po nc
cs=0023  ss=002b  ds=002b  es=002b  fs=0053  gs=002b             efl=00000202
ws7v6!SymbeditorFinalize+0x2a16:
0051e486 81e101000080    and     ecx,80000001h
 # ChildEBP RetAddr      Args to Child              
WARNING: Stack unwind information not available. Following frames may be wrong.
00 0164e9b4 006fbb82     0164e9e8 006fba3c 0164eaf8 ws7v6!SymbeditorFinalize+0x29f1
01 0164e9e0 00645ab6     00000113 00000001 00000000 ws7v6!Exceptionloginitialization$qqrv+0xd897e
02 0164e9f8 76192edb     000209da 00000113 00000001 ws7v6!Exceptionloginitialization$qqrv+0x228b2
eax=0164e9c4 ebx=7fde0010 ecx=051c0793 edx=08532da0 esi=006fbb70 edi=00000113
eip=0051e461 esp=0164e98c ebp=0164e9b4 iopl=0         nv up ei pl nz na pe cy
cs=0023  ss=002b  ds=002b  es=002b  fs=0053  gs=002b             efl=00000207
ws7v6!SymbeditorFinalize+0x29f1:
0051e461 e802c1fcff      call    ws7v6!DlgprjuFinalize+0xf86c (004ea568)
 # ChildEBP RetAddr      Args to Child              
WARNING: Stack unwind information not available. Following frames may be wrong.
00 0164e9b4 006fbb82     0164e9e8 006fba3c 0164eaf8 ws7v6!SymbeditorFinalize+0x2a16
01 0164e9e0 00645ab6     00000113 00000001 00000000 ws7v6!Exceptionloginitialization$qqrv+0xd897e
02 0164e9f8 76192edb     000209da 00000113 00000001 ws7v6!Exceptionloginitialization$qqrv+0x228b2
eax=00000000 ebx=7fde0010 ecx=000000db edx=00c9f7bc esi=006fbb70 edi=00000113
eip=0051e486 esp=0164e98c ebp=0164e9b4 iopl=0         nv up ei pl nz na po nc
cs=0023  ss=002b  ds=002b  es=002b  fs=0053  gs=002b             efl=00000202
ws7v6!SymbeditorFinalize+0x2a16:
0051e486 81e101000080    and     ecx,80000001h
 # ChildEBP RetAddr      Args to Child              
WARNING: Stack unwind information not available. Following frames may be wrong.
00 0164e9b4 006fbb82     0164e9e8 006fba3c 0164eaf8 ws7v6!SymbeditorFinalize+0x29f1
01 0164e9e0 00645ab6     00000113 00000001 00000000 ws7v6!Exceptionloginitialization$qqrv+0xd897e
02 0164e9f8 76192edb     000209da 00000113 00000001 ws7v6!Exceptionloginitialization$qqrv+0x228b2
eax=0164e9c4 ebx=7fde0010 ecx=051c0793 edx=08532da0 esi=006fbb70 edi=00000113
eip=0051e461 esp=0164e98c ebp=0164e9b4 iopl=0         nv up ei pl nz na po cy
cs=0023  ss=002b  ds=002b  es=002b  fs=0053  gs=002b             efl=00000203
ws7v6!SymbeditorFinalize+0x29f1:
0051e461 e802c1fcff      call    ws7v6!DlgprjuFinalize+0xf86c (004ea568)
 # ChildEBP RetAddr      Args to Child              
WARNING: Stack unwind information not available. Following frames may be wrong.
00 0164e9b4 006fbb82     0164e9e8 006fba3c 0164eaf8 ws7v6!SymbeditorFinalize+0x2a16
01 0164e9e0 00645ab6     00000113 00000001 00000000 ws7v6!Exceptionloginitialization$qqrv+0xd897e
02 0164e9f8 76192edb     000209da 00000113 00000001 ws7v6!Exceptionloginitialization$qqrv+0x228b2
eax=00000000 ebx=7fde0010 ecx=000000dc edx=00c9f7bc esi=006fbb70 edi=00000113
eip=0051e486 esp=0164e98c ebp=0164e9b4 iopl=0         nv up ei pl nz na po nc
cs=0023  ss=002b  ds=002b  es=002b  fs=0053  gs=002b             efl=00000202
ws7v6!SymbeditorFinalize+0x2a16:
0051e486 81e101000080    and     ecx,80000001h
 # ChildEBP RetAddr      Args to Child              
WARNING: Stack unwind information not available. Following frames may be wrong.
00 0164e9b4 006fbb82     0164e9e8 006fba3c 0164eaf8 ws7v6!SymbeditorFinalize+0x29f1
01 0164e9e0 00645ab6     00000113 00000001 00000000 ws7v6!Exceptionloginitialization$qqrv+0xd897e
02 0164e9f8 76192edb     000209da 00000113 00000001 ws7v6!Exceptionloginitialization$qqrv+0x228b2
eax=0164e9c4 ebx=7fde0010 ecx=051c0793 edx=08532da0 esi=006fbb70 edi=00000113
eip=0051e461 esp=0164e98c ebp=0164e9b4 iopl=0         nv up ei pl nz na pe cy
cs=0023  ss=002b  ds=002b  es=002b  fs=0053  gs=002b             efl=00000207
ws7v6!SymbeditorFinalize+0x29f1:
0051e461 e802c1fcff      call    ws7v6!DlgprjuFinalize+0xf86c (004ea568)
 # ChildEBP RetAddr      Args to Child              
WARNING: Stack unwind information not available. Following frames may be wrong.
00 0164e9b4 006fbb82     0164e9e8 006fba3c 0164eaf8 ws7v6!SymbeditorFinalize+0x2a16
01 0164e9e0 00645ab6     00000113 00000001 00000000 ws7v6!Exceptionloginitialization$qqrv+0xd897e
02 0164e9f8 76192edb     000209da 00000113 00000001 ws7v6!Exceptionloginitialization$qqrv+0x228b2
eax=00000000 ebx=7fde0010 ecx=000000dd edx=00c9f7bc esi=006fbb70 edi=00000113
eip=0051e486 esp=0164e98c ebp=0164e9b4 iopl=0         nv up ei pl nz na po nc
cs=0023  ss=002b  ds=002b  es=002b  fs=0053  gs=002b             efl=00000202
ws7v6!SymbeditorFinalize+0x2a16:
0051e486 81e101000080    and     ecx,80000001h
 # ChildEBP RetAddr      Args to Child              
WARNING: Stack unwind information not available. Following frames may be wrong.
00 0164e9b4 006fbb82     0164e9e8 006fba3c 0164eaf8 ws7v6!SymbeditorFinalize+0x29f1
01 0164e9e0 00645ab6     00000113 00000001 00000000 ws7v6!Exceptionloginitialization$qqrv+0xd897e
02 0164e9f8 76192edb     000209da 00000113 00000001 ws7v6!Exceptionloginitialization$qqrv+0x228b2
eax=0164e9c4 ebx=7fde0010 ecx=051c0793 edx=08532da0 esi=006fbb70 edi=00000113
eip=0051e461 esp=0164e98c ebp=0164e9b4 iopl=0         nv up ei pl nz na pe cy
cs=0023  ss=002b  ds=002b  es=002b  fs=0053  gs=002b             efl=00000207
ws7v6!SymbeditorFinalize+0x29f1:
0051e461 e802c1fcff      call    ws7v6!DlgprjuFinalize+0xf86c (004ea568)
 # ChildEBP RetAddr      Args to Child              
WARNING: Stack unwind information not available. Following frames may be wrong.
00 0164e9b4 006fbb82     0164e9e8 006fba3c 0164eaf8 ws7v6!SymbeditorFinalize+0x2a16
01 0164e9e0 00645ab6     00000113 00000001 00000000 ws7v6!Exceptionloginitialization$qqrv+0xd897e
02 0164e9f8 76192edb     000209da 00000113 00000001 ws7v6!Exceptionloginitialization$qqrv+0x228b2
eax=00000000 ebx=7fde0010 ecx=000000de edx=00c9f7bc esi=006fbb70 edi=00000113
eip=0051e486 esp=0164e98c ebp=0164e9b4 iopl=0         nv up ei pl nz na po nc
cs=0023  ss=002b  ds=002b  es=002b  fs=0053  gs=002b             efl=00000202
ws7v6!SymbeditorFinalize+0x2a16:
0051e486 81e101000080    and     ecx,80000001h
 # ChildEBP RetAddr      Args to Child              
WARNING: Stack unwind information not available. Following frames may be wrong.
00 0164e9b4 006fbb82     0164e9e8 006fba3c 0164eaf8 ws7v6!SymbeditorFinalize+0x29f1
01 0164e9e0 00645ab6     00000113 00000001 00000000 ws7v6!Exceptionloginitialization$qqrv+0xd897e
02 0164e9f8 76192edb     000209da 00000113 00000001 ws7v6!Exceptionloginitialization$qqrv+0x228b2
eax=0164e9c4 ebx=7fde0010 ecx=051c0793 edx=08532da0 esi=006fbb70 edi=00000113
eip=0051e461 esp=0164e98c ebp=0164e9b4 iopl=0         nv up ei pl nz na po cy
cs=0023  ss=002b  ds=002b  es=002b  fs=0053  gs=002b             efl=00000203
ws7v6!SymbeditorFinalize+0x29f1:
0051e461 e802c1fcff      call    ws7v6!DlgprjuFinalize+0xf86c (004ea568)
 # ChildEBP RetAddr      Args to Child              
WARNING: Stack unwind information not available. Following frames may be wrong.
00 0164e9b4 006fbb82     0164e9e8 006fba3c 0164eaf8 ws7v6!SymbeditorFinalize+0x2a16
01 0164e9e0 00645ab6     00000113 00000001 00000000 ws7v6!Exceptionloginitialization$qqrv+0xd897e
02 0164e9f8 76192edb     000209da 00000113 00000001 ws7v6!Exceptionloginitialization$qqrv+0x228b2
eax=00000000 ebx=7fde0010 ecx=000000df edx=00c9f7bc esi=006fbb70 edi=00000113
eip=0051e486 esp=0164e98c ebp=0164e9b4 iopl=0         nv up ei pl nz na po nc
cs=0023  ss=002b  ds=002b  es=002b  fs=0053  gs=002b             efl=00000202
ws7v6!SymbeditorFinalize+0x2a16:
0051e486 81e101000080    and     ecx,80000001h
 # ChildEBP RetAddr      Args to Child              
WARNING: Stack unwind information not available. Following frames may be wrong.
00 0164e9b4 006fbb82     0164e9e8 006fba3c 0164eaf8 ws7v6!SymbeditorFinalize+0x29f1
01 0164e9e0 00645ab6     00000113 00000001 00000000 ws7v6!Exceptionloginitialization$qqrv+0xd897e
02 0164e9f8 76192edb     000209da 00000113 00000001 ws7v6!Exceptionloginitialization$qqrv+0x228b2
eax=0164e9c4 ebx=7fde0010 ecx=051c0793 edx=08532da0 esi=006fbb70 edi=00000113
eip=0051e461 esp=0164e98c ebp=0164e9b4 iopl=0         nv up ei pl nz ac po cy
cs=0023  ss=002b  ds=002b  es=002b  fs=0053  gs=002b             efl=00000213
ws7v6!SymbeditorFinalize+0x29f1:
0051e461 e802c1fcff      call    ws7v6!DlgprjuFinalize+0xf86c (004ea568)
 # ChildEBP RetAddr      Args to Child              
WARNING: Stack unwind information not available. Following frames may be wrong.
00 0164e9b4 006fbb82     0164e9e8 006fba3c 0164eaf8 ws7v6!SymbeditorFinalize+0x2a16
01 0164e9e0 00645ab6     00000113 00000001 00000000 ws7v6!Exceptionloginitialization$qqrv+0xd897e
02 0164e9f8 76192edb     000209da 00000113 00000001 ws7v6!Exceptionloginitialization$qqrv+0x228b2
eax=00000000 ebx=7fde0010 ecx=000000e0 edx=00c9f7bc esi=006fbb70 edi=00000113
eip=0051e486 esp=0164e98c ebp=0164e9b4 iopl=0         nv up ei pl nz na po nc
cs=0023  ss=002b  ds=002b  es=002b  fs=0053  gs=002b             efl=00000202
ws7v6!SymbeditorFinalize+0x2a16:
0051e486 81e101000080    and     ecx,80000001h
 # ChildEBP RetAddr      Args to Child              
WARNING: Stack unwind information not available. Following frames may be wrong.
00 0164e9b4 006fbb82     0164e9e8 006fba3c 0164eaf8 ws7v6!SymbeditorFinalize+0x29f1
01 0164e9e0 00645ab6     00000113 00000001 00000000 ws7v6!Exceptionloginitialization$qqrv+0xd897e
02 0164e9f8 76192edb     000209da 00000113 00000001 ws7v6!Exceptionloginitialization$qqrv+0x228b2
eax=0164e9c4 ebx=7fde0010 ecx=051c0793 edx=08532da0 esi=006fbb70 edi=00000113
eip=0051e461 esp=0164e98c ebp=0164e9b4 iopl=0         nv up ei pl nz na pe cy
cs=0023  ss=002b  ds=002b  es=002b  fs=0053  gs=002b             efl=00000207
ws7v6!SymbeditorFinalize+0x29f1:
0051e461 e802c1fcff      call    ws7v6!DlgprjuFinalize+0xf86c (004ea568)
 # ChildEBP RetAddr      Args to Child              
WARNING: Stack unwind information not available. Following frames may be wrong.
00 0164e9b4 006fbb82     0164e9e8 006fba3c 0164eaf8 ws7v6!SymbeditorFinalize+0x2a16
01 0164e9e0 00645ab6     00000113 00000001 00000000 ws7v6!Exceptionloginitialization$qqrv+0xd897e
02 0164e9f8 76192edb     000209da 00000113 00000001 ws7v6!Exceptionloginitialization$qqrv+0x228b2
eax=00000000 ebx=7fde0010 ecx=000000e1 edx=00c9f7bc esi=006fbb70 edi=00000113
eip=0051e486 esp=0164e98c ebp=0164e9b4 iopl=0         nv up ei pl nz na po nc
cs=0023  ss=002b  ds=002b  es=002b  fs=0053  gs=002b             efl=00000202
ws7v6!SymbeditorFinalize+0x2a16:
0051e486 81e101000080    and     ecx,80000001h
 # ChildEBP RetAddr      Args to Child              
WARNING: Stack unwind information not available. Following frames may be wrong.
00 0164e9b4 006fbb82     0164e9e8 006fba3c 0164eaf8 ws7v6!SymbeditorFinalize+0x29f1
01 0164e9e0 00645ab6     00000113 00000001 00000000 ws7v6!Exceptionloginitialization$qqrv+0xd897e
02 0164e9f8 76192edb     000209da 00000113 00000001 ws7v6!Exceptionloginitialization$qqrv+0x228b2
eax=0164e9c4 ebx=7fde0010 ecx=051c0793 edx=08532da0 esi=006fbb70 edi=00000113
eip=0051e461 esp=0164e98c ebp=0164e9b4 iopl=0         nv up ei pl nz na pe cy
cs=0023  ss=002b  ds=002b  es=002b  fs=0053  gs=002b             efl=00000207
ws7v6!SymbeditorFinalize+0x29f1:
0051e461 e802c1fcff      call    ws7v6!DlgprjuFinalize+0xf86c (004ea568)
 # ChildEBP RetAddr      Args to Child              
WARNING: Stack unwind information not available. Following frames may be wrong.
00 0164e9b4 006fbb82     0164e9e8 006fba3c 0164eaf8 ws7v6!SymbeditorFinalize+0x2a16
01 0164e9e0 00645ab6     00000113 00000001 00000000 ws7v6!Exceptionloginitialization$qqrv+0xd897e
02 0164e9f8 76192edb     000209da 00000113 00000001 ws7v6!Exceptionloginitialization$qqrv+0x228b2
eax=00000000 ebx=7fde0010 ecx=000000e2 edx=00c9f7bc esi=006fbb70 edi=00000113
eip=0051e486 esp=0164e98c ebp=0164e9b4 iopl=0         nv up ei pl nz na po nc
cs=0023  ss=002b  ds=002b  es=002b  fs=0053  gs=002b             efl=00000202
ws7v6!SymbeditorFinalize+0x2a16:
0051e486 81e101000080    and     ecx,80000001h
 # ChildEBP RetAddr      Args to Child              
WARNING: Stack unwind information not available. Following frames may be wrong.
00 0164e9b4 006fbb82     0164e9e8 006fba3c 0164eaf8 ws7v6!SymbeditorFinalize+0x29f1
01 0164e9e0 00645ab6     00000113 00000001 00000000 ws7v6!Exceptionloginitialization$qqrv+0xd897e
02 0164e9f8 76192edb     000209da 00000113 00000001 ws7v6!Exceptionloginitialization$qqrv+0x228b2
eax=0164e9c4 ebx=7fde0010 ecx=051c0793 edx=08532da0 esi=006fbb70 edi=00000113
eip=0051e461 esp=0164e98c ebp=0164e9b4 iopl=0         nv up ei pl nz na po cy
cs=0023  ss=002b  ds=002b  es=002b  fs=0053  gs=002b             efl=00000203
ws7v6!SymbeditorFinalize+0x29f1:
0051e461 e802c1fcff      call    ws7v6!DlgprjuFinalize+0xf86c (004ea568)
 # ChildEBP RetAddr      Args to Child              
WARNING: Stack unwind information not available. Following frames may be wrong.
00 0164e9b4 006fbb82     0164e9e8 006fba3c 0164eaf8 ws7v6!SymbeditorFinalize+0x2a16
01 0164e9e0 00645ab6     00000113 00000001 00000000 ws7v6!Exceptionloginitialization$qqrv+0xd897e
02 0164e9f8 76192edb     000209da 00000113 00000001 ws7v6!Exceptionloginitialization$qqrv+0x228b2
eax=00000000 ebx=7fde0010 ecx=000000e3 edx=00c9f7bc esi=006fbb70 edi=00000113
eip=0051e486 esp=0164e98c ebp=0164e9b4 iopl=0         nv up ei pl nz na po nc
cs=0023  ss=002b  ds=002b  es=002b  fs=0053  gs=002b             efl=00000202
ws7v6!SymbeditorFinalize+0x2a16:
0051e486 81e101000080    and     ecx,80000001h
(1860.3078): Break instruction exception - code 80000003 (first chance)
eax=00211000 ebx=00000000 ecx=770cdca0 edx=770cdca0 esi=770cdca0 edi=770cdca0
eip=77094d30 esp=129cff44 ebp=129cff70 iopl=0         nv up ei pl zr na pe nc
cs=0023  ss=002b  ds=002b  es=002b  fs=0053  gs=002b             efl=00000246
ntdll!DbgBreakPoint:
77094d30 cc              int     3
