ba r 4 00c075b8 "kv 3; r; g"
0:028> NEXT MEMORY
NEXT MEMORY
       ^ Syntax error in 'NEXT MEMORY'
0:028> g
g
SetContext failed, 0x80070005
MachineInfo::SetContext failed - Thread: 0AAFC810  Handle: cf8  Id: 5354 - Error == 0x80070005
 # ChildEBP RetAddr      Args to Child              
WARNING: Stack unwind information not available. Following frames may be wrong.
00 0164dce8 0067850d     000004e4 0164e79c 006268cf ws7v6!Exceptionloginitialization$qqrv+0x504d5
01 0164dd34 005df093     089ac406 00000015 089abf30 ws7v6!Exceptionloginitialization$qqrv+0x55309
02 0164e7a8 005e02e2     00000000 089ac406 00000015 ws7v6!FupeditorfFinalize+0xb83
eax=00000100 ebx=00c075b8 ecx=00000001 edx=00000003 esi=0164cce4 edi=00000007
eip=006736d9 esp=0164ccb4 ebp=0164dce8 iopl=0         nv up ei pl zr na pe nc
cs=0023  ss=002b  ds=002b  es=002b  fs=0053  gs=002b             efl=00000246
ws7v6!Exceptionloginitialization$qqrv+0x504d5:
006736d9 749f            je      ws7v6!Exceptionloginitialization$qqrv+0x50476 (0067367a) [br=1]
 # ChildEBP RetAddr      Args to Child              
WARNING: Stack unwind information not available. Following frames may be wrong.
00 0164dce8 0067850d     000004e4 0164e79c 006268cf ws7v6!Exceptionloginitialization$qqrv+0x504c8
01 0164dd34 005df093     089ac406 00000015 089abf30 ws7v6!Exceptionloginitialization$qqrv+0x55309
02 0164e7a8 005e02e2     00000000 089ac406 00000015 ws7v6!FupeditorfFinalize+0xb83
eax=089e1370 ebx=00c075b8 ecx=12302070 edx=089dc2b0 esi=0164cce4 edi=00000007
eip=006736cc esp=0164ccb4 ebp=0164dce8 iopl=0         nv up ei pl zr na pe nc
cs=0023  ss=002b  ds=002b  es=002b  fs=0053  gs=002b             efl=00000246
ws7v6!Exceptionloginitialization$qqrv+0x504c8:
006736cc 5b              pop     ebx
 # ChildEBP RetAddr      Args to Child              
WARNING: Stack unwind information not available. Following frames may be wrong.
00 0164dd34 005df0c2     089ac406 00000015 089abf30 ws7v6!Exceptionloginitialization$qqrv+0x50855
01 0164e7a8 005e02e2     00000000 089ac406 00000015 ws7v6!FupeditorfFinalize+0xbb2
02 0164e7e0 005e08ba     00008195 089abf30 0164e9e8 ws7v6!FupeditorfFinalize+0x1dd2
eax=00000100 ebx=00c075b8 ecx=089e1370 edx=089dc2b0 esi=00000002 edi=0164e068
eip=00673a59 esp=0164dd14 ebp=0164dd34 iopl=0         nv up ei pl zr na pe nc
cs=0023  ss=002b  ds=002b  es=002b  fs=0053  gs=002b             efl=00000246
ws7v6!Exceptionloginitialization$qqrv+0x50855:
00673a59 7494            je      ws7v6!Exceptionloginitialization$qqrv+0x507eb (006739ef) [br=1]
 # ChildEBP RetAddr      Args to Child              
WARNING: Stack unwind information not available. Following frames may be wrong.
00 0164dd34 005df0c2     089ac406 00000015 089abf30 ws7v6!Exceptionloginitialization$qqrv+0x5081a
01 0164e7a8 005e02e2     00000000 089ac406 00000015 ws7v6!FupeditorfFinalize+0xbb2
02 0164e7e0 005e08ba     00008195 089abf30 0164e9e8 ws7v6!FupeditorfFinalize+0x1dd2
eax=00000001 ebx=00c075b8 ecx=12302070 edx=089dc2b0 esi=00000002 edi=0164e068
eip=00673a1e esp=0164dd14 ebp=0164dd34 iopl=0         nv up ei pl zr na pe nc
cs=0023  ss=002b  ds=002b  es=002b  fs=0053  gs=002b             efl=00000246
ws7v6!Exceptionloginitialization$qqrv+0x5081a:
00673a1e 31c0            xor     eax,eax
 # ChildEBP RetAddr      Args to Child              
WARNING: Stack unwind information not available. Following frames may be wrong.
00 0164e664 0067850d     000004e4 0164e744 006268cf ws7v6!Exceptionloginitialization$qqrv+0x504d5
01 0164e6b0 005df37d     086f4dd0 00000005 089abf30 ws7v6!Exceptionloginitialization$qqrv+0x55309
02 0164e750 005e0553     00500000 3910cccd 0000000f ws7v6!FupeditorfFinalize+0xe6d
eax=00000100 ebx=00c075b8 ecx=00000001 edx=00000003 esi=0164d660 edi=00000007
eip=006736d9 esp=0164d630 ebp=0164e664 iopl=0         nv up ei pl zr na pe nc
cs=0023  ss=002b  ds=002b  es=002b  fs=0053  gs=002b             efl=00000246
ws7v6!Exceptionloginitialization$qqrv+0x504d5:
006736d9 749f            je      ws7v6!Exceptionloginitialization$qqrv+0x50476 (0067367a) [br=1]
 # ChildEBP RetAddr      Args to Child              
WARNING: Stack unwind information not available. Following frames may be wrong.
00 0164e664 0067850d     000004e4 0164e744 006268cf ws7v6!Exceptionloginitialization$qqrv+0x504c8
01 0164e6b0 005df37d     086f4dd0 00000005 089abf30 ws7v6!Exceptionloginitialization$qqrv+0x55309
02 0164e750 005e0553     00500000 3910cccd 0000000f ws7v6!FupeditorfFinalize+0xe6d
eax=089e1370 ebx=00c075b8 ecx=12302070 edx=089dc2b0 esi=0164d660 edi=00000007
eip=006736cc esp=0164d630 ebp=0164e664 iopl=0         nv up ei pl zr na pe nc
cs=0023  ss=002b  ds=002b  es=002b  fs=0053  gs=002b             efl=00000246
ws7v6!Exceptionloginitialization$qqrv+0x504c8:
006736cc 5b              pop     ebx
 # ChildEBP RetAddr      Args to Child              
WARNING: Stack unwind information not available. Following frames may be wrong.
00 0164e6b0 005df3a3     086f4dd0 00000005 089abf30 ws7v6!Exceptionloginitialization$qqrv+0x50855
01 0164e750 005e0553     00500000 3910cccd 0000000f ws7v6!FupeditorfFinalize+0xe93
02 0164e7e0 005e08c3     00008195 089abf30 0164e9e8 ws7v6!FupeditorfFinalize+0x2043
eax=00000100 ebx=00c075b8 ecx=089e1370 edx=089dc2b0 esi=00000002 edi=0070ba38
eip=00673a59 esp=0164e690 ebp=0164e6b0 iopl=0         nv up ei pl zr na pe nc
cs=0023  ss=002b  ds=002b  es=002b  fs=0053  gs=002b             efl=00000246
ws7v6!Exceptionloginitialization$qqrv+0x50855:
00673a59 7494            je      ws7v6!Exceptionloginitialization$qqrv+0x507eb (006739ef) [br=1]
 # ChildEBP RetAddr      Args to Child              
WARNING: Stack unwind information not available. Following frames may be wrong.
00 0164e6b0 005df3a3     086f4dd0 00000005 089abf30 ws7v6!Exceptionloginitialization$qqrv+0x5081a
01 0164e750 005e0553     00500000 3910cccd 0000000f ws7v6!FupeditorfFinalize+0xe93
02 0164e7e0 005e08c3     00008195 089abf30 0164e9e8 ws7v6!FupeditorfFinalize+0x2043
eax=00000001 ebx=00c075b8 ecx=12302070 edx=089dc2b0 esi=00000002 edi=0070ba38
eip=00673a1e esp=0164e690 ebp=0164e6b0 iopl=0         nv up ei pl zr na pe nc
cs=0023  ss=002b  ds=002b  es=002b  fs=0053  gs=002b             efl=00000246
ws7v6!Exceptionloginitialization$qqrv+0x5081a:
00673a1e 31c0            xor     eax,eax
 # ChildEBP RetAddr      Args to Child              
WARNING: Stack unwind information not available. Following frames may be wrong.
00 0164e664 0067850d     000004e4 0164e740 006268cf ws7v6!Exceptionloginitialization$qqrv+0x504d5
01 0164e6b0 005df3d4     086f4dd0 00000005 089abf30 ws7v6!Exceptionloginitialization$qqrv+0x55309
02 0164e750 005e0553     00500000 3910cccd 0000000f ws7v6!FupeditorfFinalize+0xec4
eax=00000100 ebx=00c075b8 ecx=00000001 edx=00000003 esi=0164d660 edi=00000005
eip=006736d9 esp=0164d630 ebp=0164e664 iopl=0         nv up ei pl zr na pe nc
cs=0023  ss=002b  ds=002b  es=002b  fs=0053  gs=002b             efl=00000246
ws7v6!Exceptionloginitialization$qqrv+0x504d5:
006736d9 749f            je      ws7v6!Exceptionloginitialization$qqrv+0x50476 (0067367a) [br=1]
 # ChildEBP RetAddr      Args to Child              
WARNING: Stack unwind information not available. Following frames may be wrong.
00 0164e664 0067850d     000004e4 0164e740 006268cf ws7v6!Exceptionloginitialization$qqrv+0x504c8
01 0164e6b0 005df3d4     086f4dd0 00000005 089abf30 ws7v6!Exceptionloginitialization$qqrv+0x55309
02 0164e750 005e0553     00500000 3910cccd 0000000f ws7v6!FupeditorfFinalize+0xec4
eax=089e1370 ebx=00c075b8 ecx=12302070 edx=089dc2b0 esi=0164d660 edi=00000005
eip=006736cc esp=0164d630 ebp=0164e664 iopl=0         nv up ei pl zr na pe nc
cs=0023  ss=002b  ds=002b  es=002b  fs=0053  gs=002b             efl=00000246
ws7v6!Exceptionloginitialization$qqrv+0x504c8:
006736cc 5b              pop     ebx
 # ChildEBP RetAddr      Args to Child              
WARNING: Stack unwind information not available. Following frames may be wrong.
00 0164e6b0 005df3fa     086f4dd0 00000005 089abf30 ws7v6!Exceptionloginitialization$qqrv+0x50855
01 0164e750 005e0553     00500000 3910cccd 0000000f ws7v6!FupeditorfFinalize+0xeea
02 0164e7e0 005e08c3     00008195 089abf30 0164e9e8 ws7v6!FupeditorfFinalize+0x2043
eax=00000100 ebx=00c075b8 ecx=089e1370 edx=089dc2b0 esi=00000002 edi=0070ba38
eip=00673a59 esp=0164e690 ebp=0164e6b0 iopl=0         nv up ei pl zr na pe nc
cs=0023  ss=002b  ds=002b  es=002b  fs=0053  gs=002b             efl=00000246
ws7v6!Exceptionloginitialization$qqrv+0x50855:
00673a59 7494            je      ws7v6!Exceptionloginitialization$qqrv+0x507eb (006739ef) [br=1]
 # ChildEBP RetAddr      Args to Child              
WARNING: Stack unwind information not available. Following frames may be wrong.
00 0164e6b0 005df3fa     086f4dd0 00000005 089abf30 ws7v6!Exceptionloginitialization$qqrv+0x5081a
01 0164e750 005e0553     00500000 3910cccd 0000000f ws7v6!FupeditorfFinalize+0xeea
02 0164e7e0 005e08c3     00008195 089abf30 0164e9e8 ws7v6!FupeditorfFinalize+0x2043
eax=00000001 ebx=00c075b8 ecx=12302070 edx=089dc2b0 esi=00000002 edi=0070ba38
eip=00673a1e esp=0164e690 ebp=0164e6b0 iopl=0         nv up ei pl zr na pe nc
cs=0023  ss=002b  ds=002b  es=002b  fs=0053  gs=002b             efl=00000246
ws7v6!Exceptionloginitialization$qqrv+0x5081a:
00673a1e 31c0            xor     eax,eax
 # ChildEBP RetAddr      Args to Child              
WARNING: Stack unwind information not available. Following frames may be wrong.
00 0164e664 0067850d     000004e4 0164e73c 006268cf ws7v6!Exceptionloginitialization$qqrv+0x504d5
01 0164e6b0 005df44e     086f4dd0 00000005 089abf30 ws7v6!Exceptionloginitialization$qqrv+0x55309
02 0164e750 005e0553     00500000 3910cccd 0000000f ws7v6!FupeditorfFinalize+0xf3e
eax=00000100 ebx=00c075b8 ecx=00000001 edx=00000003 esi=0164d660 edi=00000007
eip=006736d9 esp=0164d630 ebp=0164e664 iopl=0         nv up ei pl zr na pe nc
cs=0023  ss=002b  ds=002b  es=002b  fs=0053  gs=002b             efl=00000246
ws7v6!Exceptionloginitialization$qqrv+0x504d5:
006736d9 749f            je      ws7v6!Exceptionloginitialization$qqrv+0x50476 (0067367a) [br=1]
 # ChildEBP RetAddr      Args to Child              
WARNING: Stack unwind information not available. Following frames may be wrong.
00 0164e664 0067850d     000004e4 0164e73c 006268cf ws7v6!Exceptionloginitialization$qqrv+0x504c8
01 0164e6b0 005df44e     086f4dd0 00000005 089abf30 ws7v6!Exceptionloginitialization$qqrv+0x55309
02 0164e750 005e0553     00500000 3910cccd 0000000f ws7v6!FupeditorfFinalize+0xf3e
eax=089e1370 ebx=00c075b8 ecx=12302070 edx=089dc2b0 esi=0164d660 edi=00000007
eip=006736cc esp=0164d630 ebp=0164e664 iopl=0         nv up ei pl zr na pe nc
cs=0023  ss=002b  ds=002b  es=002b  fs=0053  gs=002b             efl=00000246
ws7v6!Exceptionloginitialization$qqrv+0x504c8:
006736cc 5b              pop     ebx
 # ChildEBP RetAddr      Args to Child              
WARNING: Stack unwind information not available. Following frames may be wrong.
00 0164e6b0 005df474     086f4dd0 00000005 089abf30 ws7v6!Exceptionloginitialization$qqrv+0x50855
01 0164e750 005e0553     00500000 3910cccd 0000000f ws7v6!FupeditorfFinalize+0xf64
02 0164e7e0 005e08c3     00008195 089abf30 0164e9e8 ws7v6!FupeditorfFinalize+0x2043
eax=00000100 ebx=00c075b8 ecx=089e1370 edx=089dc2b0 esi=00000002 edi=0070ba38
eip=00673a59 esp=0164e690 ebp=0164e6b0 iopl=0         nv up ei pl zr na pe nc
cs=0023  ss=002b  ds=002b  es=002b  fs=0053  gs=002b             efl=00000246
ws7v6!Exceptionloginitialization$qqrv+0x50855:
00673a59 7494            je      ws7v6!Exceptionloginitialization$qqrv+0x507eb (006739ef) [br=1]
 # ChildEBP RetAddr      Args to Child              
WARNING: Stack unwind information not available. Following frames may be wrong.
00 0164e6b0 005df474     086f4dd0 00000005 089abf30 ws7v6!Exceptionloginitialization$qqrv+0x5081a
01 0164e750 005e0553     00500000 3910cccd 0000000f ws7v6!FupeditorfFinalize+0xf64
02 0164e7e0 005e08c3     00008195 089abf30 0164e9e8 ws7v6!FupeditorfFinalize+0x2043
eax=00000001 ebx=00c075b8 ecx=12302070 edx=089dc2b0 esi=00000002 edi=0070ba38
eip=00673a1e esp=0164e690 ebp=0164e6b0 iopl=0         nv up ei pl zr na pe nc
cs=0023  ss=002b  ds=002b  es=002b  fs=0053  gs=002b             efl=00000246
ws7v6!Exceptionloginitialization$qqrv+0x5081a:
00673a1e 31c0            xor     eax,eax
 # ChildEBP RetAddr      Args to Child              
WARNING: Stack unwind information not available. Following frames may be wrong.
00 0164dc9c 0067850d     000004e4 0164e758 006268cf ws7v6!Exceptionloginitialization$qqrv+0x504d5
01 0164dce8 005defce     089ac406 00000057 089abf30 ws7v6!Exceptionloginitialization$qqrv+0x55309
02 0164e75c 005e06f3     00000000 089ac406 00000057 ws7v6!FupeditorfFinalize+0xabe
eax=00000100 ebx=00c075b8 ecx=00000001 edx=00000003 esi=0164cc98 edi=00000004
eip=006736d9 esp=0164cc68 ebp=0164dc9c iopl=0         nv up ei pl zr na pe nc
cs=0023  ss=002b  ds=002b  es=002b  fs=0053  gs=002b             efl=00000246
ws7v6!Exceptionloginitialization$qqrv+0x504d5:
006736d9 749f            je      ws7v6!Exceptionloginitialization$qqrv+0x50476 (0067367a) [br=1]
 # ChildEBP RetAddr      Args to Child              
WARNING: Stack unwind information not available. Following frames may be wrong.
00 0164dc9c 0067850d     000004e4 0164e758 006268cf ws7v6!Exceptionloginitialization$qqrv+0x504c8
01 0164dce8 005defce     089ac406 00000057 089abf30 ws7v6!Exceptionloginitialization$qqrv+0x55309
02 0164e75c 005e06f3     00000000 089ac406 00000057 ws7v6!FupeditorfFinalize+0xabe
eax=089e1370 ebx=00c075b8 ecx=12302070 edx=089dc2b0 esi=0164cc98 edi=00000004
eip=006736cc esp=0164cc68 ebp=0164dc9c iopl=0         nv up ei pl zr na pe nc
cs=0023  ss=002b  ds=002b  es=002b  fs=0053  gs=002b             efl=00000246
ws7v6!Exceptionloginitialization$qqrv+0x504c8:
006736cc 5b              pop     ebx
 # ChildEBP RetAddr      Args to Child              
WARNING: Stack unwind information not available. Following frames may be wrong.
00 0164dce8 005defed     089ac406 00000057 089abf30 ws7v6!Exceptionloginitialization$qqrv+0x50855
01 0164e75c 005e06f3     00000000 089ac406 00000057 ws7v6!FupeditorfFinalize+0xadd
02 0164e7e0 005e08c3     00008195 089abf30 0164e9e8 ws7v6!FupeditorfFinalize+0x21e3
eax=00000100 ebx=00c075b8 ecx=089e1370 edx=089dc2b0 esi=00000002 edi=0164e01c
eip=00673a59 esp=0164dcc8 ebp=0164dce8 iopl=0         nv up ei pl zr na pe nc
cs=0023  ss=002b  ds=002b  es=002b  fs=0053  gs=002b             efl=00000246
ws7v6!Exceptionloginitialization$qqrv+0x50855:
00673a59 7494            je      ws7v6!Exceptionloginitialization$qqrv+0x507eb (006739ef) [br=1]
 # ChildEBP RetAddr      Args to Child              
WARNING: Stack unwind information not available. Following frames may be wrong.
00 0164dce8 005defed     089ac406 00000057 089abf30 ws7v6!Exceptionloginitialization$qqrv+0x5081a
01 0164e75c 005e06f3     00000000 089ac406 00000057 ws7v6!FupeditorfFinalize+0xadd
02 0164e7e0 005e08c3     00008195 089abf30 0164e9e8 ws7v6!FupeditorfFinalize+0x21e3
eax=00000001 ebx=00c075b8 ecx=12302070 edx=089dc2b0 esi=00000002 edi=0164e01c
eip=00673a1e esp=0164dcc8 ebp=0164dce8 iopl=0         nv up ei pl zr na pe nc
cs=0023  ss=002b  ds=002b  es=002b  fs=0053  gs=002b             efl=00000246
ws7v6!Exceptionloginitialization$qqrv+0x5081a:
00673a1e 31c0            xor     eax,eax
 # ChildEBP RetAddr      Args to Child              
WARNING: Stack unwind information not available. Following frames may be wrong.
00 0164dc9c 0067850d     000004e4 0164e754 006268cf ws7v6!Exceptionloginitialization$qqrv+0x504d5
01 0164dce8 005df024     089ac406 00000057 089abf30 ws7v6!Exceptionloginitialization$qqrv+0x55309
02 0164e75c 005e06f3     00000000 089ac406 00000057 ws7v6!FupeditorfFinalize+0xb14
eax=00000100 ebx=00c075b8 ecx=00000001 edx=00000003 esi=0164cc98 edi=00000004
eip=006736d9 esp=0164cc68 ebp=0164dc9c iopl=0         nv up ei pl zr na pe nc
cs=0023  ss=002b  ds=002b  es=002b  fs=0053  gs=002b             efl=00000246
ws7v6!Exceptionloginitialization$qqrv+0x504d5:
006736d9 749f            je      ws7v6!Exceptionloginitialization$qqrv+0x50476 (0067367a) [br=1]
 # ChildEBP RetAddr      Args to Child              
WARNING: Stack unwind information not available. Following frames may be wrong.
00 0164dc9c 0067850d     000004e4 0164e754 006268cf ws7v6!Exceptionloginitialization$qqrv+0x504c8
01 0164dce8 005df024     089ac406 00000057 089abf30 ws7v6!Exceptionloginitialization$qqrv+0x55309
02 0164e75c 005e06f3     00000000 089ac406 00000057 ws7v6!FupeditorfFinalize+0xb14
eax=089e1370 ebx=00c075b8 ecx=12302070 edx=089dc2b0 esi=0164cc98 edi=00000004
eip=006736cc esp=0164cc68 ebp=0164dc9c iopl=0         nv up ei pl zr na pe nc
cs=0023  ss=002b  ds=002b  es=002b  fs=0053  gs=002b             efl=00000246
ws7v6!Exceptionloginitialization$qqrv+0x504c8:
006736cc 5b              pop     ebx
 # ChildEBP RetAddr      Args to Child              
WARNING: Stack unwind information not available. Following frames may be wrong.
00 0164dce8 005df04b     089ac406 00000057 089abf30 ws7v6!Exceptionloginitialization$qqrv+0x50855
01 0164e75c 005e06f3     00000000 089ac406 00000057 ws7v6!FupeditorfFinalize+0xb3b
02 0164e7e0 005e08c3     00008195 089abf30 0164e9e8 ws7v6!FupeditorfFinalize+0x21e3
eax=00000100 ebx=00c075b8 ecx=089e1370 edx=089dc2b0 esi=00000002 edi=0164e01c
eip=00673a59 esp=0164dcc8 ebp=0164dce8 iopl=0         nv up ei pl zr na pe nc
cs=0023  ss=002b  ds=002b  es=002b  fs=0053  gs=002b             efl=00000246
ws7v6!Exceptionloginitialization$qqrv+0x50855:
00673a59 7494            je      ws7v6!Exceptionloginitialization$qqrv+0x507eb (006739ef) [br=1]
 # ChildEBP RetAddr      Args to Child              
WARNING: Stack unwind information not available. Following frames may be wrong.
00 0164dce8 005df04b     089ac406 00000057 089abf30 ws7v6!Exceptionloginitialization$qqrv+0x5081a
01 0164e75c 005e06f3     00000000 089ac406 00000057 ws7v6!FupeditorfFinalize+0xb3b
02 0164e7e0 005e08c3     00008195 089abf30 0164e9e8 ws7v6!FupeditorfFinalize+0x21e3
eax=00000001 ebx=00c075b8 ecx=12302070 edx=089dc2b0 esi=00000002 edi=0164e01c
eip=00673a1e esp=0164dcc8 ebp=0164dce8 iopl=0         nv up ei pl zr na pe nc
cs=0023  ss=002b  ds=002b  es=002b  fs=0053  gs=002b             efl=00000246
ws7v6!Exceptionloginitialization$qqrv+0x5081a:
00673a1e 31c0            xor     eax,eax
 # ChildEBP RetAddr      Args to Child              
WARNING: Stack unwind information not available. Following frames may be wrong.
00 0164dc9c 0067850d     000004e4 0164e750 006268cf ws7v6!Exceptionloginitialization$qqrv+0x504d5
01 0164dce8 005df093     089ac406 00000057 089abf30 ws7v6!Exceptionloginitialization$qqrv+0x55309
02 0164e75c 005e06f3     00000000 089ac406 00000057 ws7v6!FupeditorfFinalize+0xb83
eax=00000100 ebx=00c075b8 ecx=00000001 edx=00000003 esi=0164cc98 edi=00000007
eip=006736d9 esp=0164cc68 ebp=0164dc9c iopl=0         nv up ei pl zr na pe nc
cs=0023  ss=002b  ds=002b  es=002b  fs=0053  gs=002b             efl=00000246
ws7v6!Exceptionloginitialization$qqrv+0x504d5:
006736d9 749f            je      ws7v6!Exceptionloginitialization$qqrv+0x50476 (0067367a) [br=1]
 # ChildEBP RetAddr      Args to Child              
WARNING: Stack unwind information not available. Following frames may be wrong.
00 0164dc9c 0067850d     000004e4 0164e750 006268cf ws7v6!Exceptionloginitialization$qqrv+0x504c8
01 0164dce8 005df093     089ac406 00000057 089abf30 ws7v6!Exceptionloginitialization$qqrv+0x55309
02 0164e75c 005e06f3     00000000 089ac406 00000057 ws7v6!FupeditorfFinalize+0xb83
eax=089e1370 ebx=00c075b8 ecx=12302070 edx=089dc2b0 esi=0164cc98 edi=00000007
eip=006736cc esp=0164cc68 ebp=0164dc9c iopl=0         nv up ei pl zr na pe nc
cs=0023  ss=002b  ds=002b  es=002b  fs=0053  gs=002b             efl=00000246
ws7v6!Exceptionloginitialization$qqrv+0x504c8:
006736cc 5b              pop     ebx
 # ChildEBP RetAddr      Args to Child              
WARNING: Stack unwind information not available. Following frames may be wrong.
00 0164dce8 005df0c2     089ac406 00000057 089abf30 ws7v6!Exceptionloginitialization$qqrv+0x50855
01 0164e75c 005e06f3     00000000 089ac406 00000057 ws7v6!FupeditorfFinalize+0xbb2
02 0164e7e0 005e08c3     00008195 089abf30 0164e9e8 ws7v6!FupeditorfFinalize+0x21e3
eax=00000100 ebx=00c075b8 ecx=089e1370 edx=089dc2b0 esi=00000002 edi=0164e01c
eip=00673a59 esp=0164dcc8 ebp=0164dce8 iopl=0         nv up ei pl zr na pe nc
cs=0023  ss=002b  ds=002b  es=002b  fs=0053  gs=002b             efl=00000246
ws7v6!Exceptionloginitialization$qqrv+0x50855:
00673a59 7494            je      ws7v6!Exceptionloginitialization$qqrv+0x507eb (006739ef) [br=1]
 # ChildEBP RetAddr      Args to Child              
WARNING: Stack unwind information not available. Following frames may be wrong.
00 0164dce8 005df0c2     089ac406 00000057 089abf30 ws7v6!Exceptionloginitialization$qqrv+0x5081a
01 0164e75c 005e06f3     00000000 089ac406 00000057 ws7v6!FupeditorfFinalize+0xbb2
02 0164e7e0 005e08c3     00008195 089abf30 0164e9e8 ws7v6!FupeditorfFinalize+0x21e3
eax=00000001 ebx=00c075b8 ecx=12302070 edx=089dc2b0 esi=00000002 edi=0164e01c
eip=00673a1e esp=0164dcc8 ebp=0164dce8 iopl=0         nv up ei pl zr na pe nc
cs=0023  ss=002b  ds=002b  es=002b  fs=0053  gs=002b             efl=00000246
ws7v6!Exceptionloginitialization$qqrv+0x5081a:
00673a1e 31c0            xor     eax,eax
 # ChildEBP RetAddr      Args to Child              
WARNING: Stack unwind information not available. Following frames may be wrong.
00 0164d9ac 00679fea     0164d9bc 007a6208 00000000 ws7v6!Exceptionloginitialization$qqrv+0x50855
01 0164d9e4 007a66e6     00000001 085248d0 007a6fd0 ws7v6!Exceptionloginitialization$qqrv+0x56de6
02 0164da3c 007aa867     0164da64 007aa8a4 0164da58 ws7v6!Shdocvw_ocxFinalize+0x3ce12
eax=00000100 ebx=00c075b8 ecx=0856ac20 edx=085641a0 esi=0079cdb0 edi=00000000
eip=00673a59 esp=0164d964 ebp=0164d9ac iopl=0         nv up ei pl zr na pe nc
cs=0023  ss=002b  ds=002b  es=002b  fs=0053  gs=002b             efl=00000246
ws7v6!Exceptionloginitialization$qqrv+0x50855:
00673a59 7494            je      ws7v6!Exceptionloginitialization$qqrv+0x507eb (006739ef) [br=1]
 # ChildEBP RetAddr      Args to Child              
WARNING: Stack unwind information not available. Following frames may be wrong.
00 0164d9ac 00679fea     0164d9bc 007a6208 00000000 ws7v6!Exceptionloginitialization$qqrv+0x5081a
01 0164d9e4 007a66e6     00000001 085248d0 007a6fd0 ws7v6!Exceptionloginitialization$qqrv+0x56de6
02 0164da3c 007aa867     0164da64 007aa8a4 0164da58 ws7v6!Shdocvw_ocxFinalize+0x3ce12
eax=00000001 ebx=00c075b8 ecx=089dc2b0 edx=085641a0 esi=0079cdb0 edi=00000000
eip=00673a1e esp=0164d964 ebp=0164d9ac iopl=0         nv up ei pl zr na pe nc
cs=0023  ss=002b  ds=002b  es=002b  fs=0053  gs=002b             efl=00000246
ws7v6!Exceptionloginitialization$qqrv+0x5081a:
00673a1e 31c0            xor     eax,eax
 # ChildEBP RetAddr      Args to Child              
WARNING: Stack unwind information not available. Following frames may be wrong.
00 0164d964 00679fea     0164d974 007a5f92 00000001 ws7v6!Exceptionloginitialization$qqrv+0x504d5
01 0164d9b0 007a62c0     00000011 0164d9e4 00000001 ws7v6!Exceptionloginitialization$qqrv+0x56de6
02 0164d9e4 007a66e6     00000001 085248d0 007a6fd0 ws7v6!Shdocvw_ocxFinalize+0x3c9ec
eax=00000100 ebx=00c075b8 ecx=00000001 edx=00000003 esi=00000000 edi=00000001
eip=006736d9 esp=0164d924 ebp=0164d964 iopl=0         nv up ei pl zr na pe nc
cs=0023  ss=002b  ds=002b  es=002b  fs=0053  gs=002b             efl=00000246
ws7v6!Exceptionloginitialization$qqrv+0x504d5:
006736d9 749f            je      ws7v6!Exceptionloginitialization$qqrv+0x50476 (0067367a) [br=1]
 # ChildEBP RetAddr      Args to Child              
WARNING: Stack unwind information not available. Following frames may be wrong.
00 0164d964 00679fea     0164d974 007a5f92 00000001 ws7v6!Exceptionloginitialization$qqrv+0x504c8
01 0164d9b0 007a62c0     00000011 0164d9e4 00000001 ws7v6!Exceptionloginitialization$qqrv+0x56de6
02 0164d9e4 007a66e6     00000001 085248d0 007a6fd0 ws7v6!Shdocvw_ocxFinalize+0x3c9ec
eax=0856ac20 ebx=00c075b8 ecx=089dc2b0 edx=085641a0 esi=00000000 edi=00000001
eip=006736cc esp=0164d924 ebp=0164d964 iopl=0         nv up ei pl zr na pe nc
cs=0023  ss=002b  ds=002b  es=002b  fs=0053  gs=002b             efl=00000246
ws7v6!Exceptionloginitialization$qqrv+0x504c8:
006736cc 5b              pop     ebx
 # ChildEBP RetAddr      Args to Child              
WARNING: Stack unwind information not available. Following frames may be wrong.
00 0164d42c 0079b906     00000000 ffffffff 0856ac28 ws7v6!Exceptionloginitialization$qqrv+0x504d5
01 0164d450 007a5a8d     08453d84 00000000 ffffffff ws7v6!Shdocvw_ocxFinalize+0x32032
02 0164d4bc 00720093     0164d4d0 007200ae 0164d538 ws7v6!Shdocvw_ocxFinalize+0x3c1b9
eax=00000100 ebx=00c075b8 ecx=12253001 edx=00000003 esi=122530c8 edi=11921f50
eip=006736d9 esp=0164d344 ebp=0164d42c iopl=0         nv up ei pl zr na pe nc
cs=0023  ss=002b  ds=002b  es=002b  fs=0053  gs=002b             efl=00000246
ws7v6!Exceptionloginitialization$qqrv+0x504d5:
006736d9 749f            je      ws7v6!Exceptionloginitialization$qqrv+0x50476 (0067367a) [br=1]
 # ChildEBP RetAddr      Args to Child              
WARNING: Stack unwind information not available. Following frames may be wrong.
00 0164d42c 0079b906     00000000 ffffffff 0856ac28 ws7v6!Exceptionloginitialization$qqrv+0x504c8
01 0164d450 007a5a8d     08453d84 00000000 ffffffff ws7v6!Shdocvw_ocxFinalize+0x32032
02 0164d4bc 00720093     0164d4d0 007200ae 0164d538 ws7v6!Shdocvw_ocxFinalize+0x3c1b9
eax=089e1370 ebx=00c075b8 ecx=12302070 edx=089dc2b0 esi=122530c8 edi=11921f50
eip=006736cc esp=0164d344 ebp=0164d42c iopl=0         nv up ei pl zr na pe nc
cs=0023  ss=002b  ds=002b  es=002b  fs=0053  gs=002b             efl=00000246
ws7v6!Exceptionloginitialization$qqrv+0x504c8:
006736cc 5b              pop     ebx
 # ChildEBP RetAddr      Args to Child              
WARNING: Stack unwind information not available. Following frames may be wrong.
00 0164d42c 0079b906     00000000 ffffffff 0856ac28 ws7v6!Exceptionloginitialization$qqrv+0x50855
01 0164d450 007a5a8d     08453d84 00000000 ffffffff ws7v6!Shdocvw_ocxFinalize+0x32032
02 0164d4bc 00720093     0164d4d0 007200ae 0164d538 ws7v6!Shdocvw_ocxFinalize+0x3c1b9
eax=00000100 ebx=00c075b8 ecx=089e1370 edx=089dc2b0 esi=089e1370 edi=0856ac28
eip=00673a59 esp=0164d374 ebp=0164d42c iopl=0         nv up ei pl zr na pe nc
cs=0023  ss=002b  ds=002b  es=002b  fs=0053  gs=002b             efl=00000246
ws7v6!Exceptionloginitialization$qqrv+0x50855:
00673a59 7494            je      ws7v6!Exceptionloginitialization$qqrv+0x507eb (006739ef) [br=1]
 # ChildEBP RetAddr      Args to Child              
WARNING: Stack unwind information not available. Following frames may be wrong.
00 0164d42c 0079b906     00000000 ffffffff 0856ac28 ws7v6!Exceptionloginitialization$qqrv+0x5081a
01 0164d450 007a5a8d     08453d84 00000000 ffffffff ws7v6!Shdocvw_ocxFinalize+0x32032
02 0164d4bc 00720093     0164d4d0 007200ae 0164d538 ws7v6!Shdocvw_ocxFinalize+0x3c1b9
eax=00000001 ebx=00c075b8 ecx=12302070 edx=089dc2b0 esi=089e1370 edi=0856ac28
eip=00673a1e esp=0164d374 ebp=0164d42c iopl=0         nv up ei pl zr na pe nc
cs=0023  ss=002b  ds=002b  es=002b  fs=0053  gs=002b             efl=00000246
ws7v6!Exceptionloginitialization$qqrv+0x5081a:
00673a1e 31c0            xor     eax,eax
 # ChildEBP RetAddr      Args to Child              
WARNING: Stack unwind information not available. Following frames may be wrong.
00 0164dce8 0067850d     000004e4 0164e79c 006268cf ws7v6!Exceptionloginitialization$qqrv+0x504d5
01 0164dd34 005df093     089ac406 00000015 089abf30 ws7v6!Exceptionloginitialization$qqrv+0x55309
02 0164e7a8 005e02e2     00000000 089ac406 00000015 ws7v6!FupeditorfFinalize+0xb83
eax=00000100 ebx=00c075b8 ecx=00000001 edx=00000003 esi=0164cce4 edi=00000005
eip=006736d9 esp=0164ccb4 ebp=0164dce8 iopl=0         nv up ei pl zr na pe nc
cs=0023  ss=002b  ds=002b  es=002b  fs=0053  gs=002b             efl=00000246
ws7v6!Exceptionloginitialization$qqrv+0x504d5:
006736d9 749f            je      ws7v6!Exceptionloginitialization$qqrv+0x50476 (0067367a) [br=1]
 # ChildEBP RetAddr      Args to Child              
WARNING: Stack unwind information not available. Following frames may be wrong.
00 0164dce8 0067850d     000004e4 0164e79c 006268cf ws7v6!Exceptionloginitialization$qqrv+0x504c8
01 0164dd34 005df093     089ac406 00000015 089abf30 ws7v6!Exceptionloginitialization$qqrv+0x55309
02 0164e7a8 005e02e2     00000000 089ac406 00000015 ws7v6!FupeditorfFinalize+0xb83
eax=089e1370 ebx=00c075b8 ecx=12302070 edx=089dc2b0 esi=0164cce4 edi=00000005
eip=006736cc esp=0164ccb4 ebp=0164dce8 iopl=0         nv up ei pl zr na pe nc
cs=0023  ss=002b  ds=002b  es=002b  fs=0053  gs=002b             efl=00000246
ws7v6!Exceptionloginitialization$qqrv+0x504c8:
006736cc 5b              pop     ebx
 # ChildEBP RetAddr      Args to Child              
WARNING: Stack unwind information not available. Following frames may be wrong.
00 0164dd34 005df0c2     089ac406 00000015 089abf30 ws7v6!Exceptionloginitialization$qqrv+0x50855
01 0164e7a8 005e02e2     00000000 089ac406 00000015 ws7v6!FupeditorfFinalize+0xbb2
02 0164e7e0 005e08ba     00008195 089abf30 0164e9e8 ws7v6!FupeditorfFinalize+0x1dd2
eax=00000100 ebx=00c075b8 ecx=089e1370 edx=089dc2b0 esi=00000002 edi=0164e068
eip=00673a59 esp=0164dd14 ebp=0164dd34 iopl=0         nv up ei pl zr na pe nc
cs=0023  ss=002b  ds=002b  es=002b  fs=0053  gs=002b             efl=00000246
ws7v6!Exceptionloginitialization$qqrv+0x50855:
00673a59 7494            je      ws7v6!Exceptionloginitialization$qqrv+0x507eb (006739ef) [br=1]
 # ChildEBP RetAddr      Args to Child              
WARNING: Stack unwind information not available. Following frames may be wrong.
00 0164dd34 005df0c2     089ac406 00000015 089abf30 ws7v6!Exceptionloginitialization$qqrv+0x5081a
01 0164e7a8 005e02e2     00000000 089ac406 00000015 ws7v6!FupeditorfFinalize+0xbb2
02 0164e7e0 005e08ba     00008195 089abf30 0164e9e8 ws7v6!FupeditorfFinalize+0x1dd2
eax=00000001 ebx=00c075b8 ecx=12302070 edx=089dc2b0 esi=00000002 edi=0164e068
eip=00673a1e esp=0164dd14 ebp=0164dd34 iopl=0         nv up ei pl zr na pe nc
cs=0023  ss=002b  ds=002b  es=002b  fs=0053  gs=002b             efl=00000246
ws7v6!Exceptionloginitialization$qqrv+0x5081a:
00673a1e 31c0            xor     eax,eax
 # ChildEBP RetAddr      Args to Child              
WARNING: Stack unwind information not available. Following frames may be wrong.
00 0164e664 0067850d     000004e4 0164e744 006268cf ws7v6!Exceptionloginitialization$qqrv+0x504d5
01 0164e6b0 005df37d     086f4dd0 00000005 089abf30 ws7v6!Exceptionloginitialization$qqrv+0x55309
02 0164e750 005e0553     00500000 3910cccd 0000000f ws7v6!FupeditorfFinalize+0xe6d
eax=00000100 ebx=00c075b8 ecx=00000001 edx=00000003 esi=0164d660 edi=00000007
eip=006736d9 esp=0164d630 ebp=0164e664 iopl=0         nv up ei pl zr na pe nc
cs=0023  ss=002b  ds=002b  es=002b  fs=0053  gs=002b             efl=00000246
ws7v6!Exceptionloginitialization$qqrv+0x504d5:
006736d9 749f            je      ws7v6!Exceptionloginitialization$qqrv+0x50476 (0067367a) [br=1]
 # ChildEBP RetAddr      Args to Child              
WARNING: Stack unwind information not available. Following frames may be wrong.
00 0164e664 0067850d     000004e4 0164e744 006268cf ws7v6!Exceptionloginitialization$qqrv+0x504c8
01 0164e6b0 005df37d     086f4dd0 00000005 089abf30 ws7v6!Exceptionloginitialization$qqrv+0x55309
02 0164e750 005e0553     00500000 3910cccd 0000000f ws7v6!FupeditorfFinalize+0xe6d
eax=089e1370 ebx=00c075b8 ecx=12302070 edx=089dc2b0 esi=0164d660 edi=00000007
eip=006736cc esp=0164d630 ebp=0164e664 iopl=0         nv up ei pl zr na pe nc
cs=0023  ss=002b  ds=002b  es=002b  fs=0053  gs=002b             efl=00000246
ws7v6!Exceptionloginitialization$qqrv+0x504c8:
006736cc 5b              pop     ebx
 # ChildEBP RetAddr      Args to Child              
WARNING: Stack unwind information not available. Following frames may be wrong.
00 0164e6b0 005df3a3     086f4dd0 00000005 089abf30 ws7v6!Exceptionloginitialization$qqrv+0x50855
01 0164e750 005e0553     00500000 3910cccd 0000000f ws7v6!FupeditorfFinalize+0xe93
02 0164e7e0 005e08c3     00008195 089abf30 0164e9e8 ws7v6!FupeditorfFinalize+0x2043
eax=00000100 ebx=00c075b8 ecx=089e1370 edx=089dc2b0 esi=00000002 edi=0070ba38
eip=00673a59 esp=0164e690 ebp=0164e6b0 iopl=0         nv up ei pl zr na pe nc
cs=0023  ss=002b  ds=002b  es=002b  fs=0053  gs=002b             efl=00000246
ws7v6!Exceptionloginitialization$qqrv+0x50855:
00673a59 7494            je      ws7v6!Exceptionloginitialization$qqrv+0x507eb (006739ef) [br=1]
 # ChildEBP RetAddr      Args to Child              
WARNING: Stack unwind information not available. Following frames may be wrong.
00 0164e6b0 005df3a3     086f4dd0 00000005 089abf30 ws7v6!Exceptionloginitialization$qqrv+0x5081a
01 0164e750 005e0553     00500000 3910cccd 0000000f ws7v6!FupeditorfFinalize+0xe93
02 0164e7e0 005e08c3     00008195 089abf30 0164e9e8 ws7v6!FupeditorfFinalize+0x2043
eax=00000001 ebx=00c075b8 ecx=12302070 edx=089dc2b0 esi=00000002 edi=0070ba38
eip=00673a1e esp=0164e690 ebp=0164e6b0 iopl=0         nv up ei pl zr na pe nc
cs=0023  ss=002b  ds=002b  es=002b  fs=0053  gs=002b             efl=00000246
ws7v6!Exceptionloginitialization$qqrv+0x5081a:
00673a1e 31c0            xor     eax,eax
 # ChildEBP RetAddr      Args to Child              
WARNING: Stack unwind information not available. Following frames may be wrong.
00 0164e664 0067850d     000004e4 0164e740 006268cf ws7v6!Exceptionloginitialization$qqrv+0x504d5
01 0164e6b0 005df3d4     086f4dd0 00000005 089abf30 ws7v6!Exceptionloginitialization$qqrv+0x55309
02 0164e750 005e0553     00500000 3910cccd 0000000f ws7v6!FupeditorfFinalize+0xec4
eax=00000100 ebx=00c075b8 ecx=00000001 edx=00000003 esi=0164d660 edi=00000005
eip=006736d9 esp=0164d630 ebp=0164e664 iopl=0         nv up ei pl zr na pe nc
cs=0023  ss=002b  ds=002b  es=002b  fs=0053  gs=002b             efl=00000246
ws7v6!Exceptionloginitialization$qqrv+0x504d5:
006736d9 749f            je      ws7v6!Exceptionloginitialization$qqrv+0x50476 (0067367a) [br=1]
 # ChildEBP RetAddr      Args to Child              
WARNING: Stack unwind information not available. Following frames may be wrong.
00 0164e664 0067850d     000004e4 0164e740 006268cf ws7v6!Exceptionloginitialization$qqrv+0x504c8
01 0164e6b0 005df3d4     086f4dd0 00000005 089abf30 ws7v6!Exceptionloginitialization$qqrv+0x55309
02 0164e750 005e0553     00500000 3910cccd 0000000f ws7v6!FupeditorfFinalize+0xec4
eax=089e1370 ebx=00c075b8 ecx=12302070 edx=089dc2b0 esi=0164d660 edi=00000005
eip=006736cc esp=0164d630 ebp=0164e664 iopl=0         nv up ei pl zr na pe nc
cs=0023  ss=002b  ds=002b  es=002b  fs=0053  gs=002b             efl=00000246
ws7v6!Exceptionloginitialization$qqrv+0x504c8:
006736cc 5b              pop     ebx
 # ChildEBP RetAddr      Args to Child              
WARNING: Stack unwind information not available. Following frames may be wrong.
00 0164e6b0 005df3fa     086f4dd0 00000005 089abf30 ws7v6!Exceptionloginitialization$qqrv+0x50855
01 0164e750 005e0553     00500000 3910cccd 0000000f ws7v6!FupeditorfFinalize+0xeea
02 0164e7e0 005e08c3     00008195 089abf30 0164e9e8 ws7v6!FupeditorfFinalize+0x2043
eax=00000100 ebx=00c075b8 ecx=089e1370 edx=089dc2b0 esi=00000002 edi=0070ba38
eip=00673a59 esp=0164e690 ebp=0164e6b0 iopl=0         nv up ei pl zr na pe nc
cs=0023  ss=002b  ds=002b  es=002b  fs=0053  gs=002b             efl=00000246
ws7v6!Exceptionloginitialization$qqrv+0x50855:
00673a59 7494            je      ws7v6!Exceptionloginitialization$qqrv+0x507eb (006739ef) [br=1]
 # ChildEBP RetAddr      Args to Child              
WARNING: Stack unwind information not available. Following frames may be wrong.
00 0164e6b0 005df3fa     086f4dd0 00000005 089abf30 ws7v6!Exceptionloginitialization$qqrv+0x5081a
01 0164e750 005e0553     00500000 3910cccd 0000000f ws7v6!FupeditorfFinalize+0xeea
02 0164e7e0 005e08c3     00008195 089abf30 0164e9e8 ws7v6!FupeditorfFinalize+0x2043
eax=00000001 ebx=00c075b8 ecx=12302070 edx=089dc2b0 esi=00000002 edi=0070ba38
eip=00673a1e esp=0164e690 ebp=0164e6b0 iopl=0         nv up ei pl zr na pe nc
cs=0023  ss=002b  ds=002b  es=002b  fs=0053  gs=002b             efl=00000246
ws7v6!Exceptionloginitialization$qqrv+0x5081a:
00673a1e 31c0            xor     eax,eax
 # ChildEBP RetAddr      Args to Child              
WARNING: Stack unwind information not available. Following frames may be wrong.
00 0164e664 0067850d     000004e4 0164e73c 006268cf ws7v6!Exceptionloginitialization$qqrv+0x504d5
01 0164e6b0 005df44e     086f4dd0 00000005 089abf30 ws7v6!Exceptionloginitialization$qqrv+0x55309
02 0164e750 005e0553     00500000 3910cccd 0000000f ws7v6!FupeditorfFinalize+0xf3e
eax=00000100 ebx=00c075b8 ecx=00000001 edx=00000003 esi=0164d660 edi=00000007
eip=006736d9 esp=0164d630 ebp=0164e664 iopl=0         nv up ei pl zr na pe nc
cs=0023  ss=002b  ds=002b  es=002b  fs=0053  gs=002b             efl=00000246
ws7v6!Exceptionloginitialization$qqrv+0x504d5:
006736d9 749f            je      ws7v6!Exceptionloginitialization$qqrv+0x50476 (0067367a) [br=1]
 # ChildEBP RetAddr      Args to Child              
WARNING: Stack unwind information not available. Following frames may be wrong.
00 0164e664 0067850d     000004e4 0164e73c 006268cf ws7v6!Exceptionloginitialization$qqrv+0x504c8
01 0164e6b0 005df44e     086f4dd0 00000005 089abf30 ws7v6!Exceptionloginitialization$qqrv+0x55309
02 0164e750 005e0553     00500000 3910cccd 0000000f ws7v6!FupeditorfFinalize+0xf3e
eax=089e1370 ebx=00c075b8 ecx=12302070 edx=089dc2b0 esi=0164d660 edi=00000007
eip=006736cc esp=0164d630 ebp=0164e664 iopl=0         nv up ei pl zr na pe nc
cs=0023  ss=002b  ds=002b  es=002b  fs=0053  gs=002b             efl=00000246
ws7v6!Exceptionloginitialization$qqrv+0x504c8:
006736cc 5b              pop     ebx
 # ChildEBP RetAddr      Args to Child              
WARNING: Stack unwind information not available. Following frames may be wrong.
00 0164e6b0 005df474     086f4dd0 00000005 089abf30 ws7v6!Exceptionloginitialization$qqrv+0x50855
01 0164e750 005e0553     00500000 3910cccd 0000000f ws7v6!FupeditorfFinalize+0xf64
02 0164e7e0 005e08c3     00008195 089abf30 0164e9e8 ws7v6!FupeditorfFinalize+0x2043
eax=00000100 ebx=00c075b8 ecx=089e1370 edx=089dc2b0 esi=00000002 edi=0070ba38
eip=00673a59 esp=0164e690 ebp=0164e6b0 iopl=0         nv up ei pl zr na pe nc
cs=0023  ss=002b  ds=002b  es=002b  fs=0053  gs=002b             efl=00000246
ws7v6!Exceptionloginitialization$qqrv+0x50855:
00673a59 7494            je      ws7v6!Exceptionloginitialization$qqrv+0x507eb (006739ef) [br=1]
 # ChildEBP RetAddr      Args to Child              
WARNING: Stack unwind information not available. Following frames may be wrong.
00 0164e6b0 005df474     086f4dd0 00000005 089abf30 ws7v6!Exceptionloginitialization$qqrv+0x5081a
01 0164e750 005e0553     00500000 3910cccd 0000000f ws7v6!FupeditorfFinalize+0xf64
02 0164e7e0 005e08c3     00008195 089abf30 0164e9e8 ws7v6!FupeditorfFinalize+0x2043
eax=00000001 ebx=00c075b8 ecx=12302070 edx=089dc2b0 esi=00000002 edi=0070ba38
eip=00673a1e esp=0164e690 ebp=0164e6b0 iopl=0         nv up ei pl zr na pe nc
cs=0023  ss=002b  ds=002b  es=002b  fs=0053  gs=002b             efl=00000246
ws7v6!Exceptionloginitialization$qqrv+0x5081a:
00673a1e 31c0            xor     eax,eax
 # ChildEBP RetAddr      Args to Child              
WARNING: Stack unwind information not available. Following frames may be wrong.
00 0164dc9c 0067850d     000004e4 0164e758 006268cf ws7v6!Exceptionloginitialization$qqrv+0x504d5
01 0164dce8 005defce     089ac406 00000057 089abf30 ws7v6!Exceptionloginitialization$qqrv+0x55309
02 0164e75c 005e06f3     00000000 089ac406 00000057 ws7v6!FupeditorfFinalize+0xabe
eax=00000100 ebx=00c075b8 ecx=00000001 edx=00000003 esi=0164cc98 edi=00000004
eip=006736d9 esp=0164cc68 ebp=0164dc9c iopl=0         nv up ei pl zr na pe nc
cs=0023  ss=002b  ds=002b  es=002b  fs=0053  gs=002b             efl=00000246
ws7v6!Exceptionloginitialization$qqrv+0x504d5:
006736d9 749f            je      ws7v6!Exceptionloginitialization$qqrv+0x50476 (0067367a) [br=1]
 # ChildEBP RetAddr      Args to Child              
WARNING: Stack unwind information not available. Following frames may be wrong.
00 0164dc9c 0067850d     000004e4 0164e758 006268cf ws7v6!Exceptionloginitialization$qqrv+0x504c8
01 0164dce8 005defce     089ac406 00000057 089abf30 ws7v6!Exceptionloginitialization$qqrv+0x55309
02 0164e75c 005e06f3     00000000 089ac406 00000057 ws7v6!FupeditorfFinalize+0xabe
eax=089e1370 ebx=00c075b8 ecx=12302070 edx=089dc2b0 esi=0164cc98 edi=00000004
eip=006736cc esp=0164cc68 ebp=0164dc9c iopl=0         nv up ei pl zr na pe nc
cs=0023  ss=002b  ds=002b  es=002b  fs=0053  gs=002b             efl=00000246
ws7v6!Exceptionloginitialization$qqrv+0x504c8:
006736cc 5b              pop     ebx
 # ChildEBP RetAddr      Args to Child              
WARNING: Stack unwind information not available. Following frames may be wrong.
00 0164dce8 005defed     089ac406 00000057 089abf30 ws7v6!Exceptionloginitialization$qqrv+0x50855
01 0164e75c 005e06f3     00000000 089ac406 00000057 ws7v6!FupeditorfFinalize+0xadd
02 0164e7e0 005e08c3     00008195 089abf30 0164e9e8 ws7v6!FupeditorfFinalize+0x21e3
eax=00000100 ebx=00c075b8 ecx=089e1370 edx=089dc2b0 esi=00000002 edi=0164e01c
eip=00673a59 esp=0164dcc8 ebp=0164dce8 iopl=0         nv up ei pl zr na pe nc
cs=0023  ss=002b  ds=002b  es=002b  fs=0053  gs=002b             efl=00000246
ws7v6!Exceptionloginitialization$qqrv+0x50855:
00673a59 7494            je      ws7v6!Exceptionloginitialization$qqrv+0x507eb (006739ef) [br=1]
 # ChildEBP RetAddr      Args to Child              
WARNING: Stack unwind information not available. Following frames may be wrong.
00 0164dce8 005defed     089ac406 00000057 089abf30 ws7v6!Exceptionloginitialization$qqrv+0x5081a
01 0164e75c 005e06f3     00000000 089ac406 00000057 ws7v6!FupeditorfFinalize+0xadd
02 0164e7e0 005e08c3     00008195 089abf30 0164e9e8 ws7v6!FupeditorfFinalize+0x21e3
eax=00000001 ebx=00c075b8 ecx=12302070 edx=089dc2b0 esi=00000002 edi=0164e01c
eip=00673a1e esp=0164dcc8 ebp=0164dce8 iopl=0         nv up ei pl zr na pe nc
cs=0023  ss=002b  ds=002b  es=002b  fs=0053  gs=002b             efl=00000246
ws7v6!Exceptionloginitialization$qqrv+0x5081a:
00673a1e 31c0            xor     eax,eax
 # ChildEBP RetAddr      Args to Child              
WARNING: Stack unwind information not available. Following frames may be wrong.
00 0164dc9c 0067850d     000004e4 0164e754 006268cf ws7v6!Exceptionloginitialization$qqrv+0x504d5
01 0164dce8 005df024     089ac406 00000057 089abf30 ws7v6!Exceptionloginitialization$qqrv+0x55309
02 0164e75c 005e06f3     00000000 089ac406 00000057 ws7v6!FupeditorfFinalize+0xb14
eax=00000100 ebx=00c075b8 ecx=00000001 edx=00000003 esi=0164cc98 edi=00000004
eip=006736d9 esp=0164cc68 ebp=0164dc9c iopl=0         nv up ei pl zr na pe nc
cs=0023  ss=002b  ds=002b  es=002b  fs=0053  gs=002b             efl=00000246
ws7v6!Exceptionloginitialization$qqrv+0x504d5:
006736d9 749f            je      ws7v6!Exceptionloginitialization$qqrv+0x50476 (0067367a) [br=1]
 # ChildEBP RetAddr      Args to Child              
WARNING: Stack unwind information not available. Following frames may be wrong.
00 0164dc9c 0067850d     000004e4 0164e754 006268cf ws7v6!Exceptionloginitialization$qqrv+0x504c8
01 0164dce8 005df024     089ac406 00000057 089abf30 ws7v6!Exceptionloginitialization$qqrv+0x55309
02 0164e75c 005e06f3     00000000 089ac406 00000057 ws7v6!FupeditorfFinalize+0xb14
eax=089e1370 ebx=00c075b8 ecx=12302070 edx=089dc2b0 esi=0164cc98 edi=00000004
eip=006736cc esp=0164cc68 ebp=0164dc9c iopl=0         nv up ei pl zr na pe nc
cs=0023  ss=002b  ds=002b  es=002b  fs=0053  gs=002b             efl=00000246
ws7v6!Exceptionloginitialization$qqrv+0x504c8:
006736cc 5b              pop     ebx
 # ChildEBP RetAddr      Args to Child              
WARNING: Stack unwind information not available. Following frames may be wrong.
00 0164dce8 005df04b     089ac406 00000057 089abf30 ws7v6!Exceptionloginitialization$qqrv+0x50855
01 0164e75c 005e06f3     00000000 089ac406 00000057 ws7v6!FupeditorfFinalize+0xb3b
02 0164e7e0 005e08c3     00008195 089abf30 0164e9e8 ws7v6!FupeditorfFinalize+0x21e3
eax=00000100 ebx=00c075b8 ecx=089e1370 edx=089dc2b0 esi=00000002 edi=0164e01c
eip=00673a59 esp=0164dcc8 ebp=0164dce8 iopl=0         nv up ei pl zr na pe nc
cs=0023  ss=002b  ds=002b  es=002b  fs=0053  gs=002b             efl=00000246
ws7v6!Exceptionloginitialization$qqrv+0x50855:
00673a59 7494            je      ws7v6!Exceptionloginitialization$qqrv+0x507eb (006739ef) [br=1]
 # ChildEBP RetAddr      Args to Child              
WARNING: Stack unwind information not available. Following frames may be wrong.
00 0164dce8 005df04b     089ac406 00000057 089abf30 ws7v6!Exceptionloginitialization$qqrv+0x5081a
01 0164e75c 005e06f3     00000000 089ac406 00000057 ws7v6!FupeditorfFinalize+0xb3b
02 0164e7e0 005e08c3     00008195 089abf30 0164e9e8 ws7v6!FupeditorfFinalize+0x21e3
eax=00000001 ebx=00c075b8 ecx=12302070 edx=089dc2b0 esi=00000002 edi=0164e01c
eip=00673a1e esp=0164dcc8 ebp=0164dce8 iopl=0         nv up ei pl zr na pe nc
cs=0023  ss=002b  ds=002b  es=002b  fs=0053  gs=002b             efl=00000246
ws7v6!Exceptionloginitialization$qqrv+0x5081a:
00673a1e 31c0            xor     eax,eax
 # ChildEBP RetAddr      Args to Child              
WARNING: Stack unwind information not available. Following frames may be wrong.
00 0164dc9c 0067850d     000004e4 0164e750 006268cf ws7v6!Exceptionloginitialization$qqrv+0x504d5
01 0164dce8 005df093     089ac406 00000057 089abf30 ws7v6!Exceptionloginitialization$qqrv+0x55309
02 0164e75c 005e06f3     00000000 089ac406 00000057 ws7v6!FupeditorfFinalize+0xb83
eax=00000100 ebx=00c075b8 ecx=00000001 edx=00000003 esi=0164cc98 edi=00000007
eip=006736d9 esp=0164cc68 ebp=0164dc9c iopl=0         nv up ei pl zr na pe nc
cs=0023  ss=002b  ds=002b  es=002b  fs=0053  gs=002b             efl=00000246
ws7v6!Exceptionloginitialization$qqrv+0x504d5:
006736d9 749f            je      ws7v6!Exceptionloginitialization$qqrv+0x50476 (0067367a) [br=1]
 # ChildEBP RetAddr      Args to Child              
WARNING: Stack unwind information not available. Following frames may be wrong.
00 0164dc9c 0067850d     000004e4 0164e750 006268cf ws7v6!Exceptionloginitialization$qqrv+0x504c8
01 0164dce8 005df093     089ac406 00000057 089abf30 ws7v6!Exceptionloginitialization$qqrv+0x55309
02 0164e75c 005e06f3     00000000 089ac406 00000057 ws7v6!FupeditorfFinalize+0xb83
eax=089e1370 ebx=00c075b8 ecx=12302070 edx=089dc2b0 esi=0164cc98 edi=00000007
eip=006736cc esp=0164cc68 ebp=0164dc9c iopl=0         nv up ei pl zr na pe nc
cs=0023  ss=002b  ds=002b  es=002b  fs=0053  gs=002b             efl=00000246
ws7v6!Exceptionloginitialization$qqrv+0x504c8:
006736cc 5b              pop     ebx
 # ChildEBP RetAddr      Args to Child              
WARNING: Stack unwind information not available. Following frames may be wrong.
00 0164dce8 005df0c2     089ac406 00000057 089abf30 ws7v6!Exceptionloginitialization$qqrv+0x50855
01 0164e75c 005e06f3     00000000 089ac406 00000057 ws7v6!FupeditorfFinalize+0xbb2
02 0164e7e0 005e08c3     00008195 089abf30 0164e9e8 ws7v6!FupeditorfFinalize+0x21e3
eax=00000100 ebx=00c075b8 ecx=089e1370 edx=089dc2b0 esi=00000002 edi=0164e01c
eip=00673a59 esp=0164dcc8 ebp=0164dce8 iopl=0         nv up ei pl zr na pe nc
cs=0023  ss=002b  ds=002b  es=002b  fs=0053  gs=002b             efl=00000246
ws7v6!Exceptionloginitialization$qqrv+0x50855:
00673a59 7494            je      ws7v6!Exceptionloginitialization$qqrv+0x507eb (006739ef) [br=1]
 # ChildEBP RetAddr      Args to Child              
WARNING: Stack unwind information not available. Following frames may be wrong.
00 0164dce8 005df0c2     089ac406 00000057 089abf30 ws7v6!Exceptionloginitialization$qqrv+0x5081a
01 0164e75c 005e06f3     00000000 089ac406 00000057 ws7v6!FupeditorfFinalize+0xbb2
02 0164e7e0 005e08c3     00008195 089abf30 0164e9e8 ws7v6!FupeditorfFinalize+0x21e3
eax=00000001 ebx=00c075b8 ecx=12302070 edx=089dc2b0 esi=00000002 edi=0164e01c
eip=00673a1e esp=0164dcc8 ebp=0164dce8 iopl=0         nv up ei pl zr na pe nc
cs=0023  ss=002b  ds=002b  es=002b  fs=0053  gs=002b             efl=00000246
ws7v6!Exceptionloginitialization$qqrv+0x5081a:
00673a1e 31c0            xor     eax,eax
 # ChildEBP RetAddr      Args to Child              
WARNING: Stack unwind information not available. Following frames may be wrong.
00 0164d9ac 00679fea     0164d9bc 007a6208 00000000 ws7v6!Exceptionloginitialization$qqrv+0x50855
01 0164d9e4 007a66e6     00000001 085248d0 007a6fd0 ws7v6!Exceptionloginitialization$qqrv+0x56de6
02 0164da3c 007aa867     0164da64 007aa8a4 0164da58 ws7v6!Shdocvw_ocxFinalize+0x3ce12
eax=00000100 ebx=00c075b8 ecx=0856ac20 edx=085641a0 esi=0079cdb0 edi=00000000
eip=00673a59 esp=0164d964 ebp=0164d9ac iopl=0         nv up ei pl zr na pe nc
cs=0023  ss=002b  ds=002b  es=002b  fs=0053  gs=002b             efl=00000246
ws7v6!Exceptionloginitialization$qqrv+0x50855:
00673a59 7494            je      ws7v6!Exceptionloginitialization$qqrv+0x507eb (006739ef) [br=1]
 # ChildEBP RetAddr      Args to Child              
WARNING: Stack unwind information not available. Following frames may be wrong.
00 0164d9ac 00679fea     0164d9bc 007a6208 00000000 ws7v6!Exceptionloginitialization$qqrv+0x5081a
01 0164d9e4 007a66e6     00000001 085248d0 007a6fd0 ws7v6!Exceptionloginitialization$qqrv+0x56de6
02 0164da3c 007aa867     0164da64 007aa8a4 0164da58 ws7v6!Shdocvw_ocxFinalize+0x3ce12
eax=00000001 ebx=00c075b8 ecx=089dc2b0 edx=085641a0 esi=0079cdb0 edi=00000000
eip=00673a1e esp=0164d964 ebp=0164d9ac iopl=0         nv up ei pl zr na pe nc
cs=0023  ss=002b  ds=002b  es=002b  fs=0053  gs=002b             efl=00000246
ws7v6!Exceptionloginitialization$qqrv+0x5081a:
00673a1e 31c0            xor     eax,eax
 # ChildEBP RetAddr      Args to Child              
WARNING: Stack unwind information not available. Following frames may be wrong.
00 0164d964 00679fea     0164d974 007a5f92 00000001 ws7v6!Exceptionloginitialization$qqrv+0x504d5
01 0164d9b0 007a62c0     00000011 0164d9e4 00000001 ws7v6!Exceptionloginitialization$qqrv+0x56de6
02 0164d9e4 007a66e6     00000001 085248d0 007a6fd0 ws7v6!Shdocvw_ocxFinalize+0x3c9ec
eax=00000100 ebx=00c075b8 ecx=00000001 edx=00000003 esi=00000000 edi=00000001
eip=006736d9 esp=0164d924 ebp=0164d964 iopl=0         nv up ei pl zr na pe nc
cs=0023  ss=002b  ds=002b  es=002b  fs=0053  gs=002b             efl=00000246
ws7v6!Exceptionloginitialization$qqrv+0x504d5:
006736d9 749f            je      ws7v6!Exceptionloginitialization$qqrv+0x50476 (0067367a) [br=1]
 # ChildEBP RetAddr      Args to Child              
WARNING: Stack unwind information not available. Following frames may be wrong.
00 0164d964 00679fea     0164d974 007a5f92 00000001 ws7v6!Exceptionloginitialization$qqrv+0x504c8
01 0164d9b0 007a62c0     00000011 0164d9e4 00000001 ws7v6!Exceptionloginitialization$qqrv+0x56de6
02 0164d9e4 007a66e6     00000001 085248d0 007a6fd0 ws7v6!Shdocvw_ocxFinalize+0x3c9ec
eax=0856ac20 ebx=00c075b8 ecx=089dc2b0 edx=085641a0 esi=00000000 edi=00000001
eip=006736cc esp=0164d924 ebp=0164d964 iopl=0         nv up ei pl zr na pe nc
cs=0023  ss=002b  ds=002b  es=002b  fs=0053  gs=002b             efl=00000246
ws7v6!Exceptionloginitialization$qqrv+0x504c8:
006736cc 5b              pop     ebx
 # ChildEBP RetAddr      Args to Child              
WARNING: Stack unwind information not available. Following frames may be wrong.
00 0164d42c 0079b906     00000000 ffffffff 0856ac28 ws7v6!Exceptionloginitialization$qqrv+0x504d5
01 0164d450 007a5a8d     08453d84 00000000 ffffffff ws7v6!Shdocvw_ocxFinalize+0x32032
02 0164d4bc 00720093     0164d4d0 007200ae 0164d538 ws7v6!Shdocvw_ocxFinalize+0x3c1b9
eax=00000100 ebx=00c075b8 ecx=12253001 edx=00000003 esi=12253050 edi=11921f50
eip=006736d9 esp=0164d344 ebp=0164d42c iopl=0         nv up ei pl zr na pe nc
cs=0023  ss=002b  ds=002b  es=002b  fs=0053  gs=002b             efl=00000246
ws7v6!Exceptionloginitialization$qqrv+0x504d5:
006736d9 749f            je      ws7v6!Exceptionloginitialization$qqrv+0x50476 (0067367a) [br=1]
 # ChildEBP RetAddr      Args to Child              
WARNING: Stack unwind information not available. Following frames may be wrong.
00 0164d42c 0079b906     00000000 ffffffff 0856ac28 ws7v6!Exceptionloginitialization$qqrv+0x504c8
01 0164d450 007a5a8d     08453d84 00000000 ffffffff ws7v6!Shdocvw_ocxFinalize+0x32032
02 0164d4bc 00720093     0164d4d0 007200ae 0164d538 ws7v6!Shdocvw_ocxFinalize+0x3c1b9
eax=089e1370 ebx=00c075b8 ecx=12302070 edx=089dc2b0 esi=12253050 edi=11921f50
eip=006736cc esp=0164d344 ebp=0164d42c iopl=0         nv up ei pl zr na pe nc
cs=0023  ss=002b  ds=002b  es=002b  fs=0053  gs=002b             efl=00000246
ws7v6!Exceptionloginitialization$qqrv+0x504c8:
006736cc 5b              pop     ebx
 # ChildEBP RetAddr      Args to Child              
WARNING: Stack unwind information not available. Following frames may be wrong.
00 0164d42c 0079b906     00000000 ffffffff 0856ac28 ws7v6!Exceptionloginitialization$qqrv+0x50855
01 0164d450 007a5a8d     08453d84 00000000 ffffffff ws7v6!Shdocvw_ocxFinalize+0x32032
02 0164d4bc 00720093     0164d4d0 007200ae 0164d538 ws7v6!Shdocvw_ocxFinalize+0x3c1b9
eax=00000100 ebx=00c075b8 ecx=089e1370 edx=089dc2b0 esi=089e1370 edi=0856ac28
eip=00673a59 esp=0164d374 ebp=0164d42c iopl=0         nv up ei pl zr na pe nc
cs=0023  ss=002b  ds=002b  es=002b  fs=0053  gs=002b             efl=00000246
ws7v6!Exceptionloginitialization$qqrv+0x50855:
00673a59 7494            je      ws7v6!Exceptionloginitialization$qqrv+0x507eb (006739ef) [br=1]
 # ChildEBP RetAddr      Args to Child              
WARNING: Stack unwind information not available. Following frames may be wrong.
00 0164d42c 0079b906     00000000 ffffffff 0856ac28 ws7v6!Exceptionloginitialization$qqrv+0x5081a
01 0164d450 007a5a8d     08453d84 00000000 ffffffff ws7v6!Shdocvw_ocxFinalize+0x32032
02 0164d4bc 00720093     0164d4d0 007200ae 0164d538 ws7v6!Shdocvw_ocxFinalize+0x3c1b9
eax=00000001 ebx=00c075b8 ecx=12302070 edx=089dc2b0 esi=089e1370 edi=0856ac28
eip=00673a1e esp=0164d374 ebp=0164d42c iopl=0         nv up ei pl zr na pe nc
cs=0023  ss=002b  ds=002b  es=002b  fs=0053  gs=002b             efl=00000246
ws7v6!Exceptionloginitialization$qqrv+0x5081a:
00673a1e 31c0            xor     eax,eax
 # ChildEBP RetAddr      Args to Child              
WARNING: Stack unwind information not available. Following frames may be wrong.
00 0164e664 0067850d     000004e4 0164e744 006268cf ws7v6!Exceptionloginitialization$qqrv+0x504d5
01 0164e6b0 005df37d     086f4dd0 00000005 089abf30 ws7v6!Exceptionloginitialization$qqrv+0x55309
02 0164e750 005e0553     00500000 3910cccd 0000000f ws7v6!FupeditorfFinalize+0xe6d
eax=00000100 ebx=00c075b8 ecx=00000001 edx=00000003 esi=0164d660 edi=00000007
eip=006736d9 esp=0164d630 ebp=0164e664 iopl=0         nv up ei pl zr na pe nc
cs=0023  ss=002b  ds=002b  es=002b  fs=0053  gs=002b             efl=00000246
ws7v6!Exceptionloginitialization$qqrv+0x504d5:
006736d9 749f            je      ws7v6!Exceptionloginitialization$qqrv+0x50476 (0067367a) [br=1]
 # ChildEBP RetAddr      Args to Child              
WARNING: Stack unwind information not available. Following frames may be wrong.
00 0164e664 0067850d     000004e4 0164e744 006268cf ws7v6!Exceptionloginitialization$qqrv+0x504c8
01 0164e6b0 005df37d     086f4dd0 00000005 089abf30 ws7v6!Exceptionloginitialization$qqrv+0x55309
02 0164e750 005e0553     00500000 3910cccd 0000000f ws7v6!FupeditorfFinalize+0xe6d
eax=089e1370 ebx=00c075b8 ecx=12302070 edx=089dc2b0 esi=0164d660 edi=00000007
eip=006736cc esp=0164d630 ebp=0164e664 iopl=0         nv up ei pl zr na pe nc
cs=0023  ss=002b  ds=002b  es=002b  fs=0053  gs=002b             efl=00000246
ws7v6!Exceptionloginitialization$qqrv+0x504c8:
006736cc 5b              pop     ebx
 # ChildEBP RetAddr      Args to Child              
WARNING: Stack unwind information not available. Following frames may be wrong.
00 0164e6b0 005df3a3     086f4dd0 00000005 089abf30 ws7v6!Exceptionloginitialization$qqrv+0x50855
01 0164e750 005e0553     00500000 3910cccd 0000000f ws7v6!FupeditorfFinalize+0xe93
02 0164e7e0 005e08c3     00008195 089abf30 0164e9e8 ws7v6!FupeditorfFinalize+0x2043
eax=00000100 ebx=00c075b8 ecx=089e1370 edx=089dc2b0 esi=00000002 edi=0070ba38
eip=00673a59 esp=0164e690 ebp=0164e6b0 iopl=0         nv up ei pl zr na pe nc
cs=0023  ss=002b  ds=002b  es=002b  fs=0053  gs=002b             efl=00000246
ws7v6!Exceptionloginitialization$qqrv+0x50855:
00673a59 7494            je      ws7v6!Exceptionloginitialization$qqrv+0x507eb (006739ef) [br=1]
 # ChildEBP RetAddr      Args to Child              
WARNING: Stack unwind information not available. Following frames may be wrong.
00 0164e6b0 005df3a3     086f4dd0 00000005 089abf30 ws7v6!Exceptionloginitialization$qqrv+0x5081a
01 0164e750 005e0553     00500000 3910cccd 0000000f ws7v6!FupeditorfFinalize+0xe93
02 0164e7e0 005e08c3     00008195 089abf30 0164e9e8 ws7v6!FupeditorfFinalize+0x2043
eax=00000001 ebx=00c075b8 ecx=12302070 edx=089dc2b0 esi=00000002 edi=0070ba38
eip=00673a1e esp=0164e690 ebp=0164e6b0 iopl=0         nv up ei pl zr na pe nc
cs=0023  ss=002b  ds=002b  es=002b  fs=0053  gs=002b             efl=00000246
ws7v6!Exceptionloginitialization$qqrv+0x5081a:
00673a1e 31c0            xor     eax,eax
 # ChildEBP RetAddr      Args to Child              
WARNING: Stack unwind information not available. Following frames may be wrong.
00 0164e664 0067850d     000004e4 0164e740 006268cf ws7v6!Exceptionloginitialization$qqrv+0x504d5
01 0164e6b0 005df3d4     086f4dd0 00000005 089abf30 ws7v6!Exceptionloginitialization$qqrv+0x55309
02 0164e750 005e0553     00500000 3910cccd 0000000f ws7v6!FupeditorfFinalize+0xec4
eax=00000100 ebx=00c075b8 ecx=00000001 edx=00000003 esi=0164d660 edi=00000005
eip=006736d9 esp=0164d630 ebp=0164e664 iopl=0         nv up ei pl zr na pe nc
cs=0023  ss=002b  ds=002b  es=002b  fs=0053  gs=002b             efl=00000246
ws7v6!Exceptionloginitialization$qqrv+0x504d5:
006736d9 749f            je      ws7v6!Exceptionloginitialization$qqrv+0x50476 (0067367a) [br=1]
 # ChildEBP RetAddr      Args to Child              
WARNING: Stack unwind information not available. Following frames may be wrong.
00 0164e664 0067850d     000004e4 0164e740 006268cf ws7v6!Exceptionloginitialization$qqrv+0x504c8
01 0164e6b0 005df3d4     086f4dd0 00000005 089abf30 ws7v6!Exceptionloginitialization$qqrv+0x55309
02 0164e750 005e0553     00500000 3910cccd 0000000f ws7v6!FupeditorfFinalize+0xec4
eax=089e1370 ebx=00c075b8 ecx=12302070 edx=089dc2b0 esi=0164d660 edi=00000005
eip=006736cc esp=0164d630 ebp=0164e664 iopl=0         nv up ei pl zr na pe nc
cs=0023  ss=002b  ds=002b  es=002b  fs=0053  gs=002b             efl=00000246
ws7v6!Exceptionloginitialization$qqrv+0x504c8:
006736cc 5b              pop     ebx
 # ChildEBP RetAddr      Args to Child              
WARNING: Stack unwind information not available. Following frames may be wrong.
00 0164e6b0 005df3fa     086f4dd0 00000005 089abf30 ws7v6!Exceptionloginitialization$qqrv+0x50855
01 0164e750 005e0553     00500000 3910cccd 0000000f ws7v6!FupeditorfFinalize+0xeea
02 0164e7e0 005e08c3     00008195 089abf30 0164e9e8 ws7v6!FupeditorfFinalize+0x2043
eax=00000100 ebx=00c075b8 ecx=089e1370 edx=089dc2b0 esi=00000002 edi=0070ba38
eip=00673a59 esp=0164e690 ebp=0164e6b0 iopl=0         nv up ei pl zr na pe nc
cs=0023  ss=002b  ds=002b  es=002b  fs=0053  gs=002b             efl=00000246
ws7v6!Exceptionloginitialization$qqrv+0x50855:
00673a59 7494            je      ws7v6!Exceptionloginitialization$qqrv+0x507eb (006739ef) [br=1]
 # ChildEBP RetAddr      Args to Child              
WARNING: Stack unwind information not available. Following frames may be wrong.
00 0164e6b0 005df3fa     086f4dd0 00000005 089abf30 ws7v6!Exceptionloginitialization$qqrv+0x5081a
01 0164e750 005e0553     00500000 3910cccd 0000000f ws7v6!FupeditorfFinalize+0xeea
02 0164e7e0 005e08c3     00008195 089abf30 0164e9e8 ws7v6!FupeditorfFinalize+0x2043
eax=00000001 ebx=00c075b8 ecx=12302070 edx=089dc2b0 esi=00000002 edi=0070ba38
eip=00673a1e esp=0164e690 ebp=0164e6b0 iopl=0         nv up ei pl zr na pe nc
cs=0023  ss=002b  ds=002b  es=002b  fs=0053  gs=002b             efl=00000246
ws7v6!Exceptionloginitialization$qqrv+0x5081a:
00673a1e 31c0            xor     eax,eax
 # ChildEBP RetAddr      Args to Child              
WARNING: Stack unwind information not available. Following frames may be wrong.
00 0164e664 0067850d     000004e4 0164e73c 006268cf ws7v6!Exceptionloginitialization$qqrv+0x504d5
01 0164e6b0 005df44e     086f4dd0 00000005 089abf30 ws7v6!Exceptionloginitialization$qqrv+0x55309
02 0164e750 005e0553     00500000 3910cccd 0000000f ws7v6!FupeditorfFinalize+0xf3e
eax=00000100 ebx=00c075b8 ecx=00000001 edx=00000003 esi=0164d660 edi=00000007
eip=006736d9 esp=0164d630 ebp=0164e664 iopl=0         nv up ei pl zr na pe nc
cs=0023  ss=002b  ds=002b  es=002b  fs=0053  gs=002b             efl=00000246
ws7v6!Exceptionloginitialization$qqrv+0x504d5:
006736d9 749f            je      ws7v6!Exceptionloginitialization$qqrv+0x50476 (0067367a) [br=1]
 # ChildEBP RetAddr      Args to Child              
WARNING: Stack unwind information not available. Following frames may be wrong.
00 0164e664 0067850d     000004e4 0164e73c 006268cf ws7v6!Exceptionloginitialization$qqrv+0x504c8
01 0164e6b0 005df44e     086f4dd0 00000005 089abf30 ws7v6!Exceptionloginitialization$qqrv+0x55309
02 0164e750 005e0553     00500000 3910cccd 0000000f ws7v6!FupeditorfFinalize+0xf3e
eax=089e1370 ebx=00c075b8 ecx=12302070 edx=089dc2b0 esi=0164d660 edi=00000007
eip=006736cc esp=0164d630 ebp=0164e664 iopl=0         nv up ei pl zr na pe nc
cs=0023  ss=002b  ds=002b  es=002b  fs=0053  gs=002b             efl=00000246
ws7v6!Exceptionloginitialization$qqrv+0x504c8:
006736cc 5b              pop     ebx
 # ChildEBP RetAddr      Args to Child              
WARNING: Stack unwind information not available. Following frames may be wrong.
00 0164e6b0 005df474     086f4dd0 00000005 089abf30 ws7v6!Exceptionloginitialization$qqrv+0x50855
01 0164e750 005e0553     00500000 3910cccd 0000000f ws7v6!FupeditorfFinalize+0xf64
02 0164e7e0 005e08c3     00008195 089abf30 0164e9e8 ws7v6!FupeditorfFinalize+0x2043
eax=00000100 ebx=00c075b8 ecx=089e1370 edx=089dc2b0 esi=00000002 edi=0070ba38
eip=00673a59 esp=0164e690 ebp=0164e6b0 iopl=0         nv up ei pl zr na pe nc
cs=0023  ss=002b  ds=002b  es=002b  fs=0053  gs=002b             efl=00000246
ws7v6!Exceptionloginitialization$qqrv+0x50855:
00673a59 7494            je      ws7v6!Exceptionloginitialization$qqrv+0x507eb (006739ef) [br=1]
 # ChildEBP RetAddr      Args to Child              
WARNING: Stack unwind information not available. Following frames may be wrong.
00 0164e6b0 005df474     086f4dd0 00000005 089abf30 ws7v6!Exceptionloginitialization$qqrv+0x5081a
01 0164e750 005e0553     00500000 3910cccd 0000000f ws7v6!FupeditorfFinalize+0xf64
02 0164e7e0 005e08c3     00008195 089abf30 0164e9e8 ws7v6!FupeditorfFinalize+0x2043
eax=00000001 ebx=00c075b8 ecx=12302070 edx=089dc2b0 esi=00000002 edi=0070ba38
eip=00673a1e esp=0164e690 ebp=0164e6b0 iopl=0         nv up ei pl zr na pe nc
cs=0023  ss=002b  ds=002b  es=002b  fs=0053  gs=002b             efl=00000246
ws7v6!Exceptionloginitialization$qqrv+0x5081a:
00673a1e 31c0            xor     eax,eax
 # ChildEBP RetAddr      Args to Child              
WARNING: Stack unwind information not available. Following frames may be wrong.
00 0164dc9c 0067850d     000004e4 0164e758 006268cf ws7v6!Exceptionloginitialization$qqrv+0x504d5
01 0164dce8 005defce     089ac406 00000057 089abf30 ws7v6!Exceptionloginitialization$qqrv+0x55309
02 0164e75c 005e06f3     00000000 089ac406 00000057 ws7v6!FupeditorfFinalize+0xabe
eax=00000100 ebx=00c075b8 ecx=00000001 edx=00000003 esi=0164cc98 edi=00000004
eip=006736d9 esp=0164cc68 ebp=0164dc9c iopl=0         nv up ei pl zr na pe nc
cs=0023  ss=002b  ds=002b  es=002b  fs=0053  gs=002b             efl=00000246
ws7v6!Exceptionloginitialization$qqrv+0x504d5:
006736d9 749f            je      ws7v6!Exceptionloginitialization$qqrv+0x50476 (0067367a) [br=1]
 # ChildEBP RetAddr      Args to Child              
WARNING: Stack unwind information not available. Following frames may be wrong.
00 0164dc9c 0067850d     000004e4 0164e758 006268cf ws7v6!Exceptionloginitialization$qqrv+0x504c8
01 0164dce8 005defce     089ac406 00000057 089abf30 ws7v6!Exceptionloginitialization$qqrv+0x55309
02 0164e75c 005e06f3     00000000 089ac406 00000057 ws7v6!FupeditorfFinalize+0xabe
eax=089e1370 ebx=00c075b8 ecx=12302070 edx=089dc2b0 esi=0164cc98 edi=00000004
eip=006736cc esp=0164cc68 ebp=0164dc9c iopl=0         nv up ei pl zr na pe nc
cs=0023  ss=002b  ds=002b  es=002b  fs=0053  gs=002b             efl=00000246
ws7v6!Exceptionloginitialization$qqrv+0x504c8:
006736cc 5b              pop     ebx
 # ChildEBP RetAddr      Args to Child              
WARNING: Stack unwind information not available. Following frames may be wrong.
00 0164dce8 005defed     089ac406 00000057 089abf30 ws7v6!Exceptionloginitialization$qqrv+0x50855
01 0164e75c 005e06f3     00000000 089ac406 00000057 ws7v6!FupeditorfFinalize+0xadd
02 0164e7e0 005e08c3     00008195 089abf30 0164e9e8 ws7v6!FupeditorfFinalize+0x21e3
eax=00000100 ebx=00c075b8 ecx=089e1370 edx=089dc2b0 esi=00000002 edi=0164e01c
eip=00673a59 esp=0164dcc8 ebp=0164dce8 iopl=0         nv up ei pl zr na pe nc
cs=0023  ss=002b  ds=002b  es=002b  fs=0053  gs=002b             efl=00000246
ws7v6!Exceptionloginitialization$qqrv+0x50855:
00673a59 7494            je      ws7v6!Exceptionloginitialization$qqrv+0x507eb (006739ef) [br=1]
 # ChildEBP RetAddr      Args to Child              
WARNING: Stack unwind information not available. Following frames may be wrong.
00 0164dce8 005defed     089ac406 00000057 089abf30 ws7v6!Exceptionloginitialization$qqrv+0x5081a
01 0164e75c 005e06f3     00000000 089ac406 00000057 ws7v6!FupeditorfFinalize+0xadd
02 0164e7e0 005e08c3     00008195 089abf30 0164e9e8 ws7v6!FupeditorfFinalize+0x21e3
eax=00000001 ebx=00c075b8 ecx=12302070 edx=089dc2b0 esi=00000002 edi=0164e01c
eip=00673a1e esp=0164dcc8 ebp=0164dce8 iopl=0         nv up ei pl zr na pe nc
cs=0023  ss=002b  ds=002b  es=002b  fs=0053  gs=002b             efl=00000246
ws7v6!Exceptionloginitialization$qqrv+0x5081a:
00673a1e 31c0            xor     eax,eax
 # ChildEBP RetAddr      Args to Child              
WARNING: Stack unwind information not available. Following frames may be wrong.
00 0164dc9c 0067850d     000004e4 0164e754 006268cf ws7v6!Exceptionloginitialization$qqrv+0x504d5
01 0164dce8 005df024     089ac406 00000057 089abf30 ws7v6!Exceptionloginitialization$qqrv+0x55309
02 0164e75c 005e06f3     00000000 089ac406 00000057 ws7v6!FupeditorfFinalize+0xb14
eax=00000100 ebx=00c075b8 ecx=00000001 edx=00000003 esi=0164cc98 edi=00000004
eip=006736d9 esp=0164cc68 ebp=0164dc9c iopl=0         nv up ei pl zr na pe nc
cs=0023  ss=002b  ds=002b  es=002b  fs=0053  gs=002b             efl=00000246
ws7v6!Exceptionloginitialization$qqrv+0x504d5:
006736d9 749f            je      ws7v6!Exceptionloginitialization$qqrv+0x50476 (0067367a) [br=1]
 # ChildEBP RetAddr      Args to Child              
WARNING: Stack unwind information not available. Following frames may be wrong.
00 0164dc9c 0067850d     000004e4 0164e754 006268cf ws7v6!Exceptionloginitialization$qqrv+0x504c8
01 0164dce8 005df024     089ac406 00000057 089abf30 ws7v6!Exceptionloginitialization$qqrv+0x55309
02 0164e75c 005e06f3     00000000 089ac406 00000057 ws7v6!FupeditorfFinalize+0xb14
eax=089e1370 ebx=00c075b8 ecx=12302070 edx=089dc2b0 esi=0164cc98 edi=00000004
eip=006736cc esp=0164cc68 ebp=0164dc9c iopl=0         nv up ei pl zr na pe nc
cs=0023  ss=002b  ds=002b  es=002b  fs=0053  gs=002b             efl=00000246
ws7v6!Exceptionloginitialization$qqrv+0x504c8:
006736cc 5b              pop     ebx
 # ChildEBP RetAddr      Args to Child              
WARNING: Stack unwind information not available. Following frames may be wrong.
00 0164dce8 005df04b     089ac406 00000057 089abf30 ws7v6!Exceptionloginitialization$qqrv+0x50855
01 0164e75c 005e06f3     00000000 089ac406 00000057 ws7v6!FupeditorfFinalize+0xb3b
02 0164e7e0 005e08c3     00008195 089abf30 0164e9e8 ws7v6!FupeditorfFinalize+0x21e3
eax=00000100 ebx=00c075b8 ecx=089e1370 edx=089dc2b0 esi=00000002 edi=0164e01c
eip=00673a59 esp=0164dcc8 ebp=0164dce8 iopl=0         nv up ei pl zr na pe nc
cs=0023  ss=002b  ds=002b  es=002b  fs=0053  gs=002b             efl=00000246
ws7v6!Exceptionloginitialization$qqrv+0x50855:
00673a59 7494            je      ws7v6!Exceptionloginitialization$qqrv+0x507eb (006739ef) [br=1]
 # ChildEBP RetAddr      Args to Child              
WARNING: Stack unwind information not available. Following frames may be wrong.
00 0164dce8 005df04b     089ac406 00000057 089abf30 ws7v6!Exceptionloginitialization$qqrv+0x5081a
01 0164e75c 005e06f3     00000000 089ac406 00000057 ws7v6!FupeditorfFinalize+0xb3b
02 0164e7e0 005e08c3     00008195 089abf30 0164e9e8 ws7v6!FupeditorfFinalize+0x21e3
eax=00000001 ebx=00c075b8 ecx=12302070 edx=089dc2b0 esi=00000002 edi=0164e01c
eip=00673a1e esp=0164dcc8 ebp=0164dce8 iopl=0         nv up ei pl zr na pe nc
cs=0023  ss=002b  ds=002b  es=002b  fs=0053  gs=002b             efl=00000246
ws7v6!Exceptionloginitialization$qqrv+0x5081a:
00673a1e 31c0            xor     eax,eax
 # ChildEBP RetAddr      Args to Child              
WARNING: Stack unwind information not available. Following frames may be wrong.
00 0164dc9c 0067850d     000004e4 0164e750 006268cf ws7v6!Exceptionloginitialization$qqrv+0x504d5
01 0164dce8 005df093     089ac406 00000057 089abf30 ws7v6!Exceptionloginitialization$qqrv+0x55309
02 0164e75c 005e06f3     00000000 089ac406 00000057 ws7v6!FupeditorfFinalize+0xb83
eax=00000100 ebx=00c075b8 ecx=00000001 edx=00000003 esi=0164cc98 edi=00000007
eip=006736d9 esp=0164cc68 ebp=0164dc9c iopl=0         nv up ei pl zr na pe nc
cs=0023  ss=002b  ds=002b  es=002b  fs=0053  gs=002b             efl=00000246
ws7v6!Exceptionloginitialization$qqrv+0x504d5:
006736d9 749f            je      ws7v6!Exceptionloginitialization$qqrv+0x50476 (0067367a) [br=1]
 # ChildEBP RetAddr      Args to Child              
WARNING: Stack unwind information not available. Following frames may be wrong.
00 0164dc9c 0067850d     000004e4 0164e750 006268cf ws7v6!Exceptionloginitialization$qqrv+0x504c8
01 0164dce8 005df093     089ac406 00000057 089abf30 ws7v6!Exceptionloginitialization$qqrv+0x55309
02 0164e75c 005e06f3     00000000 089ac406 00000057 ws7v6!FupeditorfFinalize+0xb83
eax=089e1370 ebx=00c075b8 ecx=12302070 edx=089dc2b0 esi=0164cc98 edi=00000007
eip=006736cc esp=0164cc68 ebp=0164dc9c iopl=0         nv up ei pl zr na pe nc
cs=0023  ss=002b  ds=002b  es=002b  fs=0053  gs=002b             efl=00000246
ws7v6!Exceptionloginitialization$qqrv+0x504c8:
006736cc 5b              pop     ebx
 # ChildEBP RetAddr      Args to Child              
WARNING: Stack unwind information not available. Following frames may be wrong.
00 0164dce8 005df0c2     089ac406 00000057 089abf30 ws7v6!Exceptionloginitialization$qqrv+0x50855
01 0164e75c 005e06f3     00000000 089ac406 00000057 ws7v6!FupeditorfFinalize+0xbb2
02 0164e7e0 005e08c3     00008195 089abf30 0164e9e8 ws7v6!FupeditorfFinalize+0x21e3
eax=00000100 ebx=00c075b8 ecx=089e1370 edx=089dc2b0 esi=00000002 edi=0164e01c
eip=00673a59 esp=0164dcc8 ebp=0164dce8 iopl=0         nv up ei pl zr na pe nc
cs=0023  ss=002b  ds=002b  es=002b  fs=0053  gs=002b             efl=00000246
ws7v6!Exceptionloginitialization$qqrv+0x50855:
00673a59 7494            je      ws7v6!Exceptionloginitialization$qqrv+0x507eb (006739ef) [br=1]
 # ChildEBP RetAddr      Args to Child              
WARNING: Stack unwind information not available. Following frames may be wrong.
00 0164dce8 005df0c2     089ac406 00000057 089abf30 ws7v6!Exceptionloginitialization$qqrv+0x5081a
01 0164e75c 005e06f3     00000000 089ac406 00000057 ws7v6!FupeditorfFinalize+0xbb2
02 0164e7e0 005e08c3     00008195 089abf30 0164e9e8 ws7v6!FupeditorfFinalize+0x21e3
eax=00000001 ebx=00c075b8 ecx=12302070 edx=089dc2b0 esi=00000002 edi=0164e01c
eip=00673a1e esp=0164dcc8 ebp=0164dce8 iopl=0         nv up ei pl zr na pe nc
cs=0023  ss=002b  ds=002b  es=002b  fs=0053  gs=002b             efl=00000246
ws7v6!Exceptionloginitialization$qqrv+0x5081a:
00673a1e 31c0            xor     eax,eax
 # ChildEBP RetAddr      Args to Child              
WARNING: Stack unwind information not available. Following frames may be wrong.
00 0164e664 0067850d     000004e4 0164e744 006268cf ws7v6!Exceptionloginitialization$qqrv+0x504d5
01 0164e6b0 005df37d     086f4dd0 00000005 089abf30 ws7v6!Exceptionloginitialization$qqrv+0x55309
02 0164e750 005e0553     00500000 3910cccd 0000000f ws7v6!FupeditorfFinalize+0xe6d
eax=00000100 ebx=00c075b8 ecx=00000001 edx=00000003 esi=0164d660 edi=00000007
eip=006736d9 esp=0164d630 ebp=0164e664 iopl=0         nv up ei pl zr na pe nc
cs=0023  ss=002b  ds=002b  es=002b  fs=0053  gs=002b             efl=00000246
ws7v6!Exceptionloginitialization$qqrv+0x504d5:
006736d9 749f            je      ws7v6!Exceptionloginitialization$qqrv+0x50476 (0067367a) [br=1]
 # ChildEBP RetAddr      Args to Child              
WARNING: Stack unwind information not available. Following frames may be wrong.
00 0164e664 0067850d     000004e4 0164e744 006268cf ws7v6!Exceptionloginitialization$qqrv+0x504c8
01 0164e6b0 005df37d     086f4dd0 00000005 089abf30 ws7v6!Exceptionloginitialization$qqrv+0x55309
02 0164e750 005e0553     00500000 3910cccd 0000000f ws7v6!FupeditorfFinalize+0xe6d
eax=089e1370 ebx=00c075b8 ecx=12302070 edx=089dc2b0 esi=0164d660 edi=00000007
eip=006736cc esp=0164d630 ebp=0164e664 iopl=0         nv up ei pl zr na pe nc
cs=0023  ss=002b  ds=002b  es=002b  fs=0053  gs=002b             efl=00000246
ws7v6!Exceptionloginitialization$qqrv+0x504c8:
006736cc 5b              pop     ebx
 # ChildEBP RetAddr      Args to Child              
WARNING: Stack unwind information not available. Following frames may be wrong.
00 0164e6b0 005df3a3     086f4dd0 00000005 089abf30 ws7v6!Exceptionloginitialization$qqrv+0x50855
01 0164e750 005e0553     00500000 3910cccd 0000000f ws7v6!FupeditorfFinalize+0xe93
02 0164e7e0 005e08c3     00008195 089abf30 0164e9e8 ws7v6!FupeditorfFinalize+0x2043
eax=00000100 ebx=00c075b8 ecx=089e1370 edx=089dc2b0 esi=00000002 edi=0070ba38
eip=00673a59 esp=0164e690 ebp=0164e6b0 iopl=0         nv up ei pl zr na pe nc
cs=0023  ss=002b  ds=002b  es=002b  fs=0053  gs=002b             efl=00000246
ws7v6!Exceptionloginitialization$qqrv+0x50855:
00673a59 7494            je      ws7v6!Exceptionloginitialization$qqrv+0x507eb (006739ef) [br=1]
 # ChildEBP RetAddr      Args to Child              
WARNING: Stack unwind information not available. Following frames may be wrong.
00 0164e6b0 005df3a3     086f4dd0 00000005 089abf30 ws7v6!Exceptionloginitialization$qqrv+0x5081a
01 0164e750 005e0553     00500000 3910cccd 0000000f ws7v6!FupeditorfFinalize+0xe93
02 0164e7e0 005e08c3     00008195 089abf30 0164e9e8 ws7v6!FupeditorfFinalize+0x2043
eax=00000001 ebx=00c075b8 ecx=12302070 edx=089dc2b0 esi=00000002 edi=0070ba38
eip=00673a1e esp=0164e690 ebp=0164e6b0 iopl=0         nv up ei pl zr na pe nc
cs=0023  ss=002b  ds=002b  es=002b  fs=0053  gs=002b             efl=00000246
ws7v6!Exceptionloginitialization$qqrv+0x5081a:
00673a1e 31c0            xor     eax,eax
 # ChildEBP RetAddr      Args to Child              
WARNING: Stack unwind information not available. Following frames may be wrong.
00 0164e664 0067850d     000004e4 0164e740 006268cf ws7v6!Exceptionloginitialization$qqrv+0x504d5
01 0164e6b0 005df3d4     086f4dd0 00000005 089abf30 ws7v6!Exceptionloginitialization$qqrv+0x55309
02 0164e750 005e0553     00500000 3910cccd 0000000f ws7v6!FupeditorfFinalize+0xec4
eax=00000100 ebx=00c075b8 ecx=00000001 edx=00000003 esi=0164d660 edi=00000005
eip=006736d9 esp=0164d630 ebp=0164e664 iopl=0         nv up ei pl zr na pe nc
cs=0023  ss=002b  ds=002b  es=002b  fs=0053  gs=002b             efl=00000246
ws7v6!Exceptionloginitialization$qqrv+0x504d5:
006736d9 749f            je      ws7v6!Exceptionloginitialization$qqrv+0x50476 (0067367a) [br=1]
 # ChildEBP RetAddr      Args to Child              
WARNING: Stack unwind information not available. Following frames may be wrong.
00 0164e664 0067850d     000004e4 0164e740 006268cf ws7v6!Exceptionloginitialization$qqrv+0x504c8
01 0164e6b0 005df3d4     086f4dd0 00000005 089abf30 ws7v6!Exceptionloginitialization$qqrv+0x55309
02 0164e750 005e0553     00500000 3910cccd 0000000f ws7v6!FupeditorfFinalize+0xec4
eax=089e1370 ebx=00c075b8 ecx=12302070 edx=089dc2b0 esi=0164d660 edi=00000005
eip=006736cc esp=0164d630 ebp=0164e664 iopl=0         nv up ei pl zr na pe nc
cs=0023  ss=002b  ds=002b  es=002b  fs=0053  gs=002b             efl=00000246
ws7v6!Exceptionloginitialization$qqrv+0x504c8:
006736cc 5b              pop     ebx
 # ChildEBP RetAddr      Args to Child              
WARNING: Stack unwind information not available. Following frames may be wrong.
00 0164e6b0 005df3fa     086f4dd0 00000005 089abf30 ws7v6!Exceptionloginitialization$qqrv+0x50855
01 0164e750 005e0553     00500000 3910cccd 0000000f ws7v6!FupeditorfFinalize+0xeea
02 0164e7e0 005e08c3     00008195 089abf30 0164e9e8 ws7v6!FupeditorfFinalize+0x2043
eax=00000100 ebx=00c075b8 ecx=089e1370 edx=089dc2b0 esi=00000002 edi=0070ba38
eip=00673a59 esp=0164e690 ebp=0164e6b0 iopl=0         nv up ei pl zr na pe nc
cs=0023  ss=002b  ds=002b  es=002b  fs=0053  gs=002b             efl=00000246
ws7v6!Exceptionloginitialization$qqrv+0x50855:
00673a59 7494            je      ws7v6!Exceptionloginitialization$qqrv+0x507eb (006739ef) [br=1]
 # ChildEBP RetAddr      Args to Child              
WARNING: Stack unwind information not available. Following frames may be wrong.
00 0164e6b0 005df3fa     086f4dd0 00000005 089abf30 ws7v6!Exceptionloginitialization$qqrv+0x5081a
01 0164e750 005e0553     00500000 3910cccd 0000000f ws7v6!FupeditorfFinalize+0xeea
02 0164e7e0 005e08c3     00008195 089abf30 0164e9e8 ws7v6!FupeditorfFinalize+0x2043
eax=00000001 ebx=00c075b8 ecx=12302070 edx=089dc2b0 esi=00000002 edi=0070ba38
eip=00673a1e esp=0164e690 ebp=0164e6b0 iopl=0         nv up ei pl zr na pe nc
cs=0023  ss=002b  ds=002b  es=002b  fs=0053  gs=002b             efl=00000246
ws7v6!Exceptionloginitialization$qqrv+0x5081a:
00673a1e 31c0            xor     eax,eax
 # ChildEBP RetAddr      Args to Child              
WARNING: Stack unwind information not available. Following frames may be wrong.
00 0164e664 0067850d     000004e4 0164e73c 006268cf ws7v6!Exceptionloginitialization$qqrv+0x504d5
01 0164e6b0 005df44e     086f4dd0 00000005 089abf30 ws7v6!Exceptionloginitialization$qqrv+0x55309
02 0164e750 005e0553     00500000 3910cccd 0000000f ws7v6!FupeditorfFinalize+0xf3e
eax=00000100 ebx=00c075b8 ecx=00000001 edx=00000003 esi=0164d660 edi=00000007
eip=006736d9 esp=0164d630 ebp=0164e664 iopl=0         nv up ei pl zr na pe nc
cs=0023  ss=002b  ds=002b  es=002b  fs=0053  gs=002b             efl=00000246
ws7v6!Exceptionloginitialization$qqrv+0x504d5:
006736d9 749f            je      ws7v6!Exceptionloginitialization$qqrv+0x50476 (0067367a) [br=1]
 # ChildEBP RetAddr      Args to Child              
WARNING: Stack unwind information not available. Following frames may be wrong.
00 0164e664 0067850d     000004e4 0164e73c 006268cf ws7v6!Exceptionloginitialization$qqrv+0x504c8
01 0164e6b0 005df44e     086f4dd0 00000005 089abf30 ws7v6!Exceptionloginitialization$qqrv+0x55309
02 0164e750 005e0553     00500000 3910cccd 0000000f ws7v6!FupeditorfFinalize+0xf3e
eax=089e1370 ebx=00c075b8 ecx=12302070 edx=089dc2b0 esi=0164d660 edi=00000007
eip=006736cc esp=0164d630 ebp=0164e664 iopl=0         nv up ei pl zr na pe nc
cs=0023  ss=002b  ds=002b  es=002b  fs=0053  gs=002b             efl=00000246
ws7v6!Exceptionloginitialization$qqrv+0x504c8:
006736cc 5b              pop     ebx
 # ChildEBP RetAddr      Args to Child              
WARNING: Stack unwind information not available. Following frames may be wrong.
00 0164e6b0 005df474     086f4dd0 00000005 089abf30 ws7v6!Exceptionloginitialization$qqrv+0x50855
01 0164e750 005e0553     00500000 3910cccd 0000000f ws7v6!FupeditorfFinalize+0xf64
02 0164e7e0 005e08c3     00008195 089abf30 0164e9e8 ws7v6!FupeditorfFinalize+0x2043
eax=00000100 ebx=00c075b8 ecx=089e1370 edx=089dc2b0 esi=00000002 edi=0070ba38
eip=00673a59 esp=0164e690 ebp=0164e6b0 iopl=0         nv up ei pl zr na pe nc
cs=0023  ss=002b  ds=002b  es=002b  fs=0053  gs=002b             efl=00000246
ws7v6!Exceptionloginitialization$qqrv+0x50855:
00673a59 7494            je      ws7v6!Exceptionloginitialization$qqrv+0x507eb (006739ef) [br=1]
 # ChildEBP RetAddr      Args to Child              
WARNING: Stack unwind information not available. Following frames may be wrong.
00 0164e6b0 005df474     086f4dd0 00000005 089abf30 ws7v6!Exceptionloginitialization$qqrv+0x5081a
01 0164e750 005e0553     00500000 3910cccd 0000000f ws7v6!FupeditorfFinalize+0xf64
02 0164e7e0 005e08c3     00008195 089abf30 0164e9e8 ws7v6!FupeditorfFinalize+0x2043
eax=00000001 ebx=00c075b8 ecx=12302070 edx=089dc2b0 esi=00000002 edi=0070ba38
eip=00673a1e esp=0164e690 ebp=0164e6b0 iopl=0         nv up ei pl zr na pe nc
cs=0023  ss=002b  ds=002b  es=002b  fs=0053  gs=002b             efl=00000246
ws7v6!Exceptionloginitialization$qqrv+0x5081a:
00673a1e 31c0            xor     eax,eax
 # ChildEBP RetAddr      Args to Child              
WARNING: Stack unwind information not available. Following frames may be wrong.
00 0164dc9c 0067850d     000004e4 0164e758 006268cf ws7v6!Exceptionloginitialization$qqrv+0x504d5
01 0164dce8 005defce     089ac406 00000057 089abf30 ws7v6!Exceptionloginitialization$qqrv+0x55309
02 0164e75c 005e06f3     00000000 089ac406 00000057 ws7v6!FupeditorfFinalize+0xabe
eax=00000100 ebx=00c075b8 ecx=00000001 edx=00000003 esi=0164cc98 edi=00000004
eip=006736d9 esp=0164cc68 ebp=0164dc9c iopl=0         nv up ei pl zr na pe nc
cs=0023  ss=002b  ds=002b  es=002b  fs=0053  gs=002b             efl=00000246
ws7v6!Exceptionloginitialization$qqrv+0x504d5:
006736d9 749f            je      ws7v6!Exceptionloginitialization$qqrv+0x50476 (0067367a) [br=1]
 # ChildEBP RetAddr      Args to Child              
WARNING: Stack unwind information not available. Following frames may be wrong.
00 0164dc9c 0067850d     000004e4 0164e758 006268cf ws7v6!Exceptionloginitialization$qqrv+0x504c8
01 0164dce8 005defce     089ac406 00000057 089abf30 ws7v6!Exceptionloginitialization$qqrv+0x55309
02 0164e75c 005e06f3     00000000 089ac406 00000057 ws7v6!FupeditorfFinalize+0xabe
eax=089e1370 ebx=00c075b8 ecx=12302070 edx=089dc2b0 esi=0164cc98 edi=00000004
eip=006736cc esp=0164cc68 ebp=0164dc9c iopl=0         nv up ei pl zr na pe nc
cs=0023  ss=002b  ds=002b  es=002b  fs=0053  gs=002b             efl=00000246
ws7v6!Exceptionloginitialization$qqrv+0x504c8:
006736cc 5b              pop     ebx
 # ChildEBP RetAddr      Args to Child              
WARNING: Stack unwind information not available. Following frames may be wrong.
00 0164dce8 005defed     089ac406 00000057 089abf30 ws7v6!Exceptionloginitialization$qqrv+0x50855
01 0164e75c 005e06f3     00000000 089ac406 00000057 ws7v6!FupeditorfFinalize+0xadd
02 0164e7e0 005e08c3     00008195 089abf30 0164e9e8 ws7v6!FupeditorfFinalize+0x21e3
eax=00000100 ebx=00c075b8 ecx=089e1370 edx=089dc2b0 esi=00000002 edi=0164e01c
eip=00673a59 esp=0164dcc8 ebp=0164dce8 iopl=0         nv up ei pl zr na pe nc
cs=0023  ss=002b  ds=002b  es=002b  fs=0053  gs=002b             efl=00000246
ws7v6!Exceptionloginitialization$qqrv+0x50855:
00673a59 7494            je      ws7v6!Exceptionloginitialization$qqrv+0x507eb (006739ef) [br=1]
 # ChildEBP RetAddr      Args to Child              
WARNING: Stack unwind information not available. Following frames may be wrong.
00 0164dce8 005defed     089ac406 00000057 089abf30 ws7v6!Exceptionloginitialization$qqrv+0x5081a
01 0164e75c 005e06f3     00000000 089ac406 00000057 ws7v6!FupeditorfFinalize+0xadd
02 0164e7e0 005e08c3     00008195 089abf30 0164e9e8 ws7v6!FupeditorfFinalize+0x21e3
eax=00000001 ebx=00c075b8 ecx=12302070 edx=089dc2b0 esi=00000002 edi=0164e01c
eip=00673a1e esp=0164dcc8 ebp=0164dce8 iopl=0         nv up ei pl zr na pe nc
cs=0023  ss=002b  ds=002b  es=002b  fs=0053  gs=002b             efl=00000246
ws7v6!Exceptionloginitialization$qqrv+0x5081a:
00673a1e 31c0            xor     eax,eax
 # ChildEBP RetAddr      Args to Child              
WARNING: Stack unwind information not available. Following frames may be wrong.
00 0164dc9c 0067850d     000004e4 0164e754 006268cf ws7v6!Exceptionloginitialization$qqrv+0x504d5
01 0164dce8 005df024     089ac406 00000057 089abf30 ws7v6!Exceptionloginitialization$qqrv+0x55309
02 0164e75c 005e06f3     00000000 089ac406 00000057 ws7v6!FupeditorfFinalize+0xb14
eax=00000100 ebx=00c075b8 ecx=00000001 edx=00000003 esi=0164cc98 edi=00000004
eip=006736d9 esp=0164cc68 ebp=0164dc9c iopl=0         nv up ei pl zr na pe nc
cs=0023  ss=002b  ds=002b  es=002b  fs=0053  gs=002b             efl=00000246
ws7v6!Exceptionloginitialization$qqrv+0x504d5:
006736d9 749f            je      ws7v6!Exceptionloginitialization$qqrv+0x50476 (0067367a) [br=1]
 # ChildEBP RetAddr      Args to Child              
WARNING: Stack unwind information not available. Following frames may be wrong.
00 0164dc9c 0067850d     000004e4 0164e754 006268cf ws7v6!Exceptionloginitialization$qqrv+0x504c8
01 0164dce8 005df024     089ac406 00000057 089abf30 ws7v6!Exceptionloginitialization$qqrv+0x55309
02 0164e75c 005e06f3     00000000 089ac406 00000057 ws7v6!FupeditorfFinalize+0xb14
eax=089e1370 ebx=00c075b8 ecx=12302070 edx=089dc2b0 esi=0164cc98 edi=00000004
eip=006736cc esp=0164cc68 ebp=0164dc9c iopl=0         nv up ei pl zr na pe nc
cs=0023  ss=002b  ds=002b  es=002b  fs=0053  gs=002b             efl=00000246
ws7v6!Exceptionloginitialization$qqrv+0x504c8:
006736cc 5b              pop     ebx
 # ChildEBP RetAddr      Args to Child              
WARNING: Stack unwind information not available. Following frames may be wrong.
00 0164dce8 005df04b     089ac406 00000057 089abf30 ws7v6!Exceptionloginitialization$qqrv+0x50855
01 0164e75c 005e06f3     00000000 089ac406 00000057 ws7v6!FupeditorfFinalize+0xb3b
02 0164e7e0 005e08c3     00008195 089abf30 0164e9e8 ws7v6!FupeditorfFinalize+0x21e3
eax=00000100 ebx=00c075b8 ecx=089e1370 edx=089dc2b0 esi=00000002 edi=0164e01c
eip=00673a59 esp=0164dcc8 ebp=0164dce8 iopl=0         nv up ei pl zr na pe nc
cs=0023  ss=002b  ds=002b  es=002b  fs=0053  gs=002b             efl=00000246
ws7v6!Exceptionloginitialization$qqrv+0x50855:
00673a59 7494            je      ws7v6!Exceptionloginitialization$qqrv+0x507eb (006739ef) [br=1]
 # ChildEBP RetAddr      Args to Child              
WARNING: Stack unwind information not available. Following frames may be wrong.
00 0164dce8 005df04b     089ac406 00000057 089abf30 ws7v6!Exceptionloginitialization$qqrv+0x5081a
01 0164e75c 005e06f3     00000000 089ac406 00000057 ws7v6!FupeditorfFinalize+0xb3b
02 0164e7e0 005e08c3     00008195 089abf30 0164e9e8 ws7v6!FupeditorfFinalize+0x21e3
eax=00000001 ebx=00c075b8 ecx=12302070 edx=089dc2b0 esi=00000002 edi=0164e01c
eip=00673a1e esp=0164dcc8 ebp=0164dce8 iopl=0         nv up ei pl zr na pe nc
cs=0023  ss=002b  ds=002b  es=002b  fs=0053  gs=002b             efl=00000246
ws7v6!Exceptionloginitialization$qqrv+0x5081a:
00673a1e 31c0            xor     eax,eax
 # ChildEBP RetAddr      Args to Child              
WARNING: Stack unwind information not available. Following frames may be wrong.
00 0164dc9c 0067850d     000004e4 0164e750 006268cf ws7v6!Exceptionloginitialization$qqrv+0x504d5
01 0164dce8 005df093     089ac406 00000057 089abf30 ws7v6!Exceptionloginitialization$qqrv+0x55309
02 0164e75c 005e06f3     00000000 089ac406 00000057 ws7v6!FupeditorfFinalize+0xb83
eax=00000100 ebx=00c075b8 ecx=00000001 edx=00000003 esi=0164cc98 edi=00000007
eip=006736d9 esp=0164cc68 ebp=0164dc9c iopl=0         nv up ei pl zr na pe nc
cs=0023  ss=002b  ds=002b  es=002b  fs=0053  gs=002b             efl=00000246
ws7v6!Exceptionloginitialization$qqrv+0x504d5:
006736d9 749f            je      ws7v6!Exceptionloginitialization$qqrv+0x50476 (0067367a) [br=1]
 # ChildEBP RetAddr      Args to Child              
WARNING: Stack unwind information not available. Following frames may be wrong.
00 0164dc9c 0067850d     000004e4 0164e750 006268cf ws7v6!Exceptionloginitialization$qqrv+0x504c8
01 0164dce8 005df093     089ac406 00000057 089abf30 ws7v6!Exceptionloginitialization$qqrv+0x55309
02 0164e75c 005e06f3     00000000 089ac406 00000057 ws7v6!FupeditorfFinalize+0xb83
eax=089e1370 ebx=00c075b8 ecx=12302070 edx=089dc2b0 esi=0164cc98 edi=00000007
eip=006736cc esp=0164cc68 ebp=0164dc9c iopl=0         nv up ei pl zr na pe nc
cs=0023  ss=002b  ds=002b  es=002b  fs=0053  gs=002b             efl=00000246
ws7v6!Exceptionloginitialization$qqrv+0x504c8:
006736cc 5b              pop     ebx
 # ChildEBP RetAddr      Args to Child              
WARNING: Stack unwind information not available. Following frames may be wrong.
00 0164dce8 005df0c2     089ac406 00000057 089abf30 ws7v6!Exceptionloginitialization$qqrv+0x50855
01 0164e75c 005e06f3     00000000 089ac406 00000057 ws7v6!FupeditorfFinalize+0xbb2
02 0164e7e0 005e08c3     00008195 089abf30 0164e9e8 ws7v6!FupeditorfFinalize+0x21e3
eax=00000100 ebx=00c075b8 ecx=089e1370 edx=089dc2b0 esi=00000002 edi=0164e01c
eip=00673a59 esp=0164dcc8 ebp=0164dce8 iopl=0         nv up ei pl zr na pe nc
cs=0023  ss=002b  ds=002b  es=002b  fs=0053  gs=002b             efl=00000246
ws7v6!Exceptionloginitialization$qqrv+0x50855:
00673a59 7494            je      ws7v6!Exceptionloginitialization$qqrv+0x507eb (006739ef) [br=1]
 # ChildEBP RetAddr      Args to Child              
WARNING: Stack unwind information not available. Following frames may be wrong.
00 0164dce8 005df0c2     089ac406 00000057 089abf30 ws7v6!Exceptionloginitialization$qqrv+0x5081a
01 0164e75c 005e06f3     00000000 089ac406 00000057 ws7v6!FupeditorfFinalize+0xbb2
02 0164e7e0 005e08c3     00008195 089abf30 0164e9e8 ws7v6!FupeditorfFinalize+0x21e3
eax=00000001 ebx=00c075b8 ecx=12302070 edx=089dc2b0 esi=00000002 edi=0164e01c
eip=00673a1e esp=0164dcc8 ebp=0164dce8 iopl=0         nv up ei pl zr na pe nc
cs=0023  ss=002b  ds=002b  es=002b  fs=0053  gs=002b             efl=00000246
ws7v6!Exceptionloginitialization$qqrv+0x5081a:
00673a1e 31c0            xor     eax,eax
 # ChildEBP RetAddr      Args to Child              
WARNING: Stack unwind information not available. Following frames may be wrong.
00 0164e664 0067850d     000004e4 0164e744 006268cf ws7v6!Exceptionloginitialization$qqrv+0x504d5
01 0164e6b0 005df37d     086f4dd0 00000005 089abf30 ws7v6!Exceptionloginitialization$qqrv+0x55309
02 0164e750 005e0553     00500000 3910cccd 0000000f ws7v6!FupeditorfFinalize+0xe6d
eax=00000100 ebx=00c075b8 ecx=00000001 edx=00000003 esi=0164d660 edi=00000007
eip=006736d9 esp=0164d630 ebp=0164e664 iopl=0         nv up ei pl zr na pe nc
cs=0023  ss=002b  ds=002b  es=002b  fs=0053  gs=002b             efl=00000246
ws7v6!Exceptionloginitialization$qqrv+0x504d5:
006736d9 749f            je      ws7v6!Exceptionloginitialization$qqrv+0x50476 (0067367a) [br=1]
 # ChildEBP RetAddr      Args to Child              
WARNING: Stack unwind information not available. Following frames may be wrong.
00 0164e664 0067850d     000004e4 0164e744 006268cf ws7v6!Exceptionloginitialization$qqrv+0x504c8
01 0164e6b0 005df37d     086f4dd0 00000005 089abf30 ws7v6!Exceptionloginitialization$qqrv+0x55309
02 0164e750 005e0553     00500000 3910cccd 0000000f ws7v6!FupeditorfFinalize+0xe6d
eax=089e1370 ebx=00c075b8 ecx=12302070 edx=089dc2b0 esi=0164d660 edi=00000007
eip=006736cc esp=0164d630 ebp=0164e664 iopl=0         nv up ei pl zr na pe nc
cs=0023  ss=002b  ds=002b  es=002b  fs=0053  gs=002b             efl=00000246
ws7v6!Exceptionloginitialization$qqrv+0x504c8:
006736cc 5b              pop     ebx
 # ChildEBP RetAddr      Args to Child              
WARNING: Stack unwind information not available. Following frames may be wrong.
00 0164e6b0 005df3a3     086f4dd0 00000005 089abf30 ws7v6!Exceptionloginitialization$qqrv+0x50855
01 0164e750 005e0553     00500000 3910cccd 0000000f ws7v6!FupeditorfFinalize+0xe93
02 0164e7e0 005e08c3     00008195 089abf30 0164e9e8 ws7v6!FupeditorfFinalize+0x2043
eax=00000100 ebx=00c075b8 ecx=089e1370 edx=089dc2b0 esi=00000002 edi=0070ba38
eip=00673a59 esp=0164e690 ebp=0164e6b0 iopl=0         nv up ei pl zr na pe nc
cs=0023  ss=002b  ds=002b  es=002b  fs=0053  gs=002b             efl=00000246
ws7v6!Exceptionloginitialization$qqrv+0x50855:
00673a59 7494            je      ws7v6!Exceptionloginitialization$qqrv+0x507eb (006739ef) [br=1]
 # ChildEBP RetAddr      Args to Child              
WARNING: Stack unwind information not available. Following frames may be wrong.
00 0164e6b0 005df3a3     086f4dd0 00000005 089abf30 ws7v6!Exceptionloginitialization$qqrv+0x5081a
01 0164e750 005e0553     00500000 3910cccd 0000000f ws7v6!FupeditorfFinalize+0xe93
02 0164e7e0 005e08c3     00008195 089abf30 0164e9e8 ws7v6!FupeditorfFinalize+0x2043
eax=00000001 ebx=00c075b8 ecx=12302070 edx=089dc2b0 esi=00000002 edi=0070ba38
eip=00673a1e esp=0164e690 ebp=0164e6b0 iopl=0         nv up ei pl zr na pe nc
cs=0023  ss=002b  ds=002b  es=002b  fs=0053  gs=002b             efl=00000246
ws7v6!Exceptionloginitialization$qqrv+0x5081a:
00673a1e 31c0            xor     eax,eax
 # ChildEBP RetAddr      Args to Child              
WARNING: Stack unwind information not available. Following frames may be wrong.
00 0164e664 0067850d     000004e4 0164e740 006268cf ws7v6!Exceptionloginitialization$qqrv+0x504d5
01 0164e6b0 005df3d4     086f4dd0 00000005 089abf30 ws7v6!Exceptionloginitialization$qqrv+0x55309
02 0164e750 005e0553     00500000 3910cccd 0000000f ws7v6!FupeditorfFinalize+0xec4
eax=00000100 ebx=00c075b8 ecx=00000001 edx=00000003 esi=0164d660 edi=00000005
eip=006736d9 esp=0164d630 ebp=0164e664 iopl=0         nv up ei pl zr na pe nc
cs=0023  ss=002b  ds=002b  es=002b  fs=0053  gs=002b             efl=00000246
ws7v6!Exceptionloginitialization$qqrv+0x504d5:
006736d9 749f            je      ws7v6!Exceptionloginitialization$qqrv+0x50476 (0067367a) [br=1]
 # ChildEBP RetAddr      Args to Child              
WARNING: Stack unwind information not available. Following frames may be wrong.
00 0164e664 0067850d     000004e4 0164e740 006268cf ws7v6!Exceptionloginitialization$qqrv+0x504c8
01 0164e6b0 005df3d4     086f4dd0 00000005 089abf30 ws7v6!Exceptionloginitialization$qqrv+0x55309
02 0164e750 005e0553     00500000 3910cccd 0000000f ws7v6!FupeditorfFinalize+0xec4
eax=089e1370 ebx=00c075b8 ecx=12302070 edx=089dc2b0 esi=0164d660 edi=00000005
eip=006736cc esp=0164d630 ebp=0164e664 iopl=0         nv up ei pl zr na pe nc
cs=0023  ss=002b  ds=002b  es=002b  fs=0053  gs=002b             efl=00000246
ws7v6!Exceptionloginitialization$qqrv+0x504c8:
006736cc 5b              pop     ebx
 # ChildEBP RetAddr      Args to Child              
WARNING: Stack unwind information not available. Following frames may be wrong.
00 0164e6b0 005df3fa     086f4dd0 00000005 089abf30 ws7v6!Exceptionloginitialization$qqrv+0x50855
01 0164e750 005e0553     00500000 3910cccd 0000000f ws7v6!FupeditorfFinalize+0xeea
02 0164e7e0 005e08c3     00008195 089abf30 0164e9e8 ws7v6!FupeditorfFinalize+0x2043
eax=00000100 ebx=00c075b8 ecx=089e1370 edx=089dc2b0 esi=00000002 edi=0070ba38
eip=00673a59 esp=0164e690 ebp=0164e6b0 iopl=0         nv up ei pl zr na pe nc
cs=0023  ss=002b  ds=002b  es=002b  fs=0053  gs=002b             efl=00000246
ws7v6!Exceptionloginitialization$qqrv+0x50855:
00673a59 7494            je      ws7v6!Exceptionloginitialization$qqrv+0x507eb (006739ef) [br=1]
 # ChildEBP RetAddr      Args to Child              
WARNING: Stack unwind information not available. Following frames may be wrong.
00 0164e6b0 005df3fa     086f4dd0 00000005 089abf30 ws7v6!Exceptionloginitialization$qqrv+0x5081a
01 0164e750 005e0553     00500000 3910cccd 0000000f ws7v6!FupeditorfFinalize+0xeea
02 0164e7e0 005e08c3     00008195 089abf30 0164e9e8 ws7v6!FupeditorfFinalize+0x2043
eax=00000001 ebx=00c075b8 ecx=12302070 edx=089dc2b0 esi=00000002 edi=0070ba38
eip=00673a1e esp=0164e690 ebp=0164e6b0 iopl=0         nv up ei pl zr na pe nc
cs=0023  ss=002b  ds=002b  es=002b  fs=0053  gs=002b             efl=00000246
ws7v6!Exceptionloginitialization$qqrv+0x5081a:
00673a1e 31c0            xor     eax,eax
 # ChildEBP RetAddr      Args to Child              
WARNING: Stack unwind information not available. Following frames may be wrong.
00 0164e664 0067850d     000004e4 0164e73c 006268cf ws7v6!Exceptionloginitialization$qqrv+0x504d5
01 0164e6b0 005df44e     086f4dd0 00000005 089abf30 ws7v6!Exceptionloginitialization$qqrv+0x55309
02 0164e750 005e0553     00500000 3910cccd 0000000f ws7v6!FupeditorfFinalize+0xf3e
eax=00000100 ebx=00c075b8 ecx=00000001 edx=00000003 esi=0164d660 edi=00000007
eip=006736d9 esp=0164d630 ebp=0164e664 iopl=0         nv up ei pl zr na pe nc
cs=0023  ss=002b  ds=002b  es=002b  fs=0053  gs=002b             efl=00000246
ws7v6!Exceptionloginitialization$qqrv+0x504d5:
006736d9 749f            je      ws7v6!Exceptionloginitialization$qqrv+0x50476 (0067367a) [br=1]
 # ChildEBP RetAddr      Args to Child              
WARNING: Stack unwind information not available. Following frames may be wrong.
00 0164e664 0067850d     000004e4 0164e73c 006268cf ws7v6!Exceptionloginitialization$qqrv+0x504c8
01 0164e6b0 005df44e     086f4dd0 00000005 089abf30 ws7v6!Exceptionloginitialization$qqrv+0x55309
02 0164e750 005e0553     00500000 3910cccd 0000000f ws7v6!FupeditorfFinalize+0xf3e
eax=089e1370 ebx=00c075b8 ecx=12302070 edx=089dc2b0 esi=0164d660 edi=00000007
eip=006736cc esp=0164d630 ebp=0164e664 iopl=0         nv up ei pl zr na pe nc
cs=0023  ss=002b  ds=002b  es=002b  fs=0053  gs=002b             efl=00000246
ws7v6!Exceptionloginitialization$qqrv+0x504c8:
006736cc 5b              pop     ebx
 # ChildEBP RetAddr      Args to Child              
WARNING: Stack unwind information not available. Following frames may be wrong.
00 0164e6b0 005df474     086f4dd0 00000005 089abf30 ws7v6!Exceptionloginitialization$qqrv+0x50855
01 0164e750 005e0553     00500000 3910cccd 0000000f ws7v6!FupeditorfFinalize+0xf64
02 0164e7e0 005e08c3     00008195 089abf30 0164e9e8 ws7v6!FupeditorfFinalize+0x2043
eax=00000100 ebx=00c075b8 ecx=089e1370 edx=089dc2b0 esi=00000002 edi=0070ba38
eip=00673a59 esp=0164e690 ebp=0164e6b0 iopl=0         nv up ei pl zr na pe nc
cs=0023  ss=002b  ds=002b  es=002b  fs=0053  gs=002b             efl=00000246
ws7v6!Exceptionloginitialization$qqrv+0x50855:
00673a59 7494            je      ws7v6!Exceptionloginitialization$qqrv+0x507eb (006739ef) [br=1]
 # ChildEBP RetAddr      Args to Child              
WARNING: Stack unwind information not available. Following frames may be wrong.
00 0164e6b0 005df474     086f4dd0 00000005 089abf30 ws7v6!Exceptionloginitialization$qqrv+0x5081a
01 0164e750 005e0553     00500000 3910cccd 0000000f ws7v6!FupeditorfFinalize+0xf64
02 0164e7e0 005e08c3     00008195 089abf30 0164e9e8 ws7v6!FupeditorfFinalize+0x2043
eax=00000001 ebx=00c075b8 ecx=12302070 edx=089dc2b0 esi=00000002 edi=0070ba38
eip=00673a1e esp=0164e690 ebp=0164e6b0 iopl=0         nv up ei pl zr na pe nc
cs=0023  ss=002b  ds=002b  es=002b  fs=0053  gs=002b             efl=00000246
ws7v6!Exceptionloginitialization$qqrv+0x5081a:
00673a1e 31c0            xor     eax,eax
 # ChildEBP RetAddr      Args to Child              
WARNING: Stack unwind information not available. Following frames may be wrong.
00 0164dc9c 0067850d     000004e4 0164e758 006268cf ws7v6!Exceptionloginitialization$qqrv+0x504d5
01 0164dce8 005defce     089ac406 00000057 089abf30 ws7v6!Exceptionloginitialization$qqrv+0x55309
02 0164e75c 005e06f3     00000000 089ac406 00000057 ws7v6!FupeditorfFinalize+0xabe
eax=00000100 ebx=00c075b8 ecx=00000001 edx=00000003 esi=0164cc98 edi=00000004
eip=006736d9 esp=0164cc68 ebp=0164dc9c iopl=0         nv up ei pl zr na pe nc
cs=0023  ss=002b  ds=002b  es=002b  fs=0053  gs=002b             efl=00000246
ws7v6!Exceptionloginitialization$qqrv+0x504d5:
006736d9 749f            je      ws7v6!Exceptionloginitialization$qqrv+0x50476 (0067367a) [br=1]
 # ChildEBP RetAddr      Args to Child              
WARNING: Stack unwind information not available. Following frames may be wrong.
00 0164dc9c 0067850d     000004e4 0164e758 006268cf ws7v6!Exceptionloginitialization$qqrv+0x504c8
01 0164dce8 005defce     089ac406 00000057 089abf30 ws7v6!Exceptionloginitialization$qqrv+0x55309
02 0164e75c 005e06f3     00000000 089ac406 00000057 ws7v6!FupeditorfFinalize+0xabe
eax=089e1370 ebx=00c075b8 ecx=12302070 edx=089dc2b0 esi=0164cc98 edi=00000004
eip=006736cc esp=0164cc68 ebp=0164dc9c iopl=0         nv up ei pl zr na pe nc
cs=0023  ss=002b  ds=002b  es=002b  fs=0053  gs=002b             efl=00000246
ws7v6!Exceptionloginitialization$qqrv+0x504c8:
006736cc 5b              pop     ebx
 # ChildEBP RetAddr      Args to Child              
WARNING: Stack unwind information not available. Following frames may be wrong.
00 0164dce8 005defed     089ac406 00000057 089abf30 ws7v6!Exceptionloginitialization$qqrv+0x50855
01 0164e75c 005e06f3     00000000 089ac406 00000057 ws7v6!FupeditorfFinalize+0xadd
02 0164e7e0 005e08c3     00008195 089abf30 0164e9e8 ws7v6!FupeditorfFinalize+0x21e3
eax=00000100 ebx=00c075b8 ecx=089e1370 edx=089dc2b0 esi=00000002 edi=0164e01c
eip=00673a59 esp=0164dcc8 ebp=0164dce8 iopl=0         nv up ei pl zr na pe nc
cs=0023  ss=002b  ds=002b  es=002b  fs=0053  gs=002b             efl=00000246
ws7v6!Exceptionloginitialization$qqrv+0x50855:
00673a59 7494            je      ws7v6!Exceptionloginitialization$qqrv+0x507eb (006739ef) [br=1]
 # ChildEBP RetAddr      Args to Child              
WARNING: Stack unwind information not available. Following frames may be wrong.
00 0164dce8 005defed     089ac406 00000057 089abf30 ws7v6!Exceptionloginitialization$qqrv+0x5081a
01 0164e75c 005e06f3     00000000 089ac406 00000057 ws7v6!FupeditorfFinalize+0xadd
02 0164e7e0 005e08c3     00008195 089abf30 0164e9e8 ws7v6!FupeditorfFinalize+0x21e3
eax=00000001 ebx=00c075b8 ecx=12302070 edx=089dc2b0 esi=00000002 edi=0164e01c
eip=00673a1e esp=0164dcc8 ebp=0164dce8 iopl=0         nv up ei pl zr na pe nc
cs=0023  ss=002b  ds=002b  es=002b  fs=0053  gs=002b             efl=00000246
ws7v6!Exceptionloginitialization$qqrv+0x5081a:
00673a1e 31c0            xor     eax,eax
 # ChildEBP RetAddr      Args to Child              
WARNING: Stack unwind information not available. Following frames may be wrong.
00 0164dc9c 0067850d     000004e4 0164e754 006268cf ws7v6!Exceptionloginitialization$qqrv+0x504d5
01 0164dce8 005df024     089ac406 00000057 089abf30 ws7v6!Exceptionloginitialization$qqrv+0x55309
02 0164e75c 005e06f3     00000000 089ac406 00000057 ws7v6!FupeditorfFinalize+0xb14
eax=00000100 ebx=00c075b8 ecx=00000001 edx=00000003 esi=0164cc98 edi=00000004
eip=006736d9 esp=0164cc68 ebp=0164dc9c iopl=0         nv up ei pl zr na pe nc
cs=0023  ss=002b  ds=002b  es=002b  fs=0053  gs=002b             efl=00000246
ws7v6!Exceptionloginitialization$qqrv+0x504d5:
006736d9 749f            je      ws7v6!Exceptionloginitialization$qqrv+0x50476 (0067367a) [br=1]
 # ChildEBP RetAddr      Args to Child              
WARNING: Stack unwind information not available. Following frames may be wrong.
00 0164dc9c 0067850d     000004e4 0164e754 006268cf ws7v6!Exceptionloginitialization$qqrv+0x504c8
01 0164dce8 005df024     089ac406 00000057 089abf30 ws7v6!Exceptionloginitialization$qqrv+0x55309
02 0164e75c 005e06f3     00000000 089ac406 00000057 ws7v6!FupeditorfFinalize+0xb14
eax=089e1370 ebx=00c075b8 ecx=12302070 edx=089dc2b0 esi=0164cc98 edi=00000004
eip=006736cc esp=0164cc68 ebp=0164dc9c iopl=0         nv up ei pl zr na pe nc
cs=0023  ss=002b  ds=002b  es=002b  fs=0053  gs=002b             efl=00000246
ws7v6!Exceptionloginitialization$qqrv+0x504c8:
006736cc 5b              pop     ebx
 # ChildEBP RetAddr      Args to Child              
WARNING: Stack unwind information not available. Following frames may be wrong.
00 0164dce8 005df04b     089ac406 00000057 089abf30 ws7v6!Exceptionloginitialization$qqrv+0x50855
01 0164e75c 005e06f3     00000000 089ac406 00000057 ws7v6!FupeditorfFinalize+0xb3b
02 0164e7e0 005e08c3     00008195 089abf30 0164e9e8 ws7v6!FupeditorfFinalize+0x21e3
eax=00000100 ebx=00c075b8 ecx=089e1370 edx=089dc2b0 esi=00000002 edi=0164e01c
eip=00673a59 esp=0164dcc8 ebp=0164dce8 iopl=0         nv up ei pl zr na pe nc
cs=0023  ss=002b  ds=002b  es=002b  fs=0053  gs=002b             efl=00000246
ws7v6!Exceptionloginitialization$qqrv+0x50855:
00673a59 7494            je      ws7v6!Exceptionloginitialization$qqrv+0x507eb (006739ef) [br=1]
 # ChildEBP RetAddr      Args to Child              
WARNING: Stack unwind information not available. Following frames may be wrong.
00 0164dce8 005df04b     089ac406 00000057 089abf30 ws7v6!Exceptionloginitialization$qqrv+0x5081a
01 0164e75c 005e06f3     00000000 089ac406 00000057 ws7v6!FupeditorfFinalize+0xb3b
02 0164e7e0 005e08c3     00008195 089abf30 0164e9e8 ws7v6!FupeditorfFinalize+0x21e3
eax=00000001 ebx=00c075b8 ecx=12302070 edx=089dc2b0 esi=00000002 edi=0164e01c
eip=00673a1e esp=0164dcc8 ebp=0164dce8 iopl=0         nv up ei pl zr na pe nc
cs=0023  ss=002b  ds=002b  es=002b  fs=0053  gs=002b             efl=00000246
ws7v6!Exceptionloginitialization$qqrv+0x5081a:
00673a1e 31c0            xor     eax,eax
 # ChildEBP RetAddr      Args to Child              
WARNING: Stack unwind information not available. Following frames may be wrong.
00 0164dc9c 0067850d     000004e4 0164e750 006268cf ws7v6!Exceptionloginitialization$qqrv+0x504d5
01 0164dce8 005df093     089ac406 00000057 089abf30 ws7v6!Exceptionloginitialization$qqrv+0x55309
02 0164e75c 005e06f3     00000000 089ac406 00000057 ws7v6!FupeditorfFinalize+0xb83
eax=00000100 ebx=00c075b8 ecx=00000001 edx=00000003 esi=0164cc98 edi=00000007
eip=006736d9 esp=0164cc68 ebp=0164dc9c iopl=0         nv up ei pl zr na pe nc
cs=0023  ss=002b  ds=002b  es=002b  fs=0053  gs=002b             efl=00000246
ws7v6!Exceptionloginitialization$qqrv+0x504d5:
006736d9 749f            je      ws7v6!Exceptionloginitialization$qqrv+0x50476 (0067367a) [br=1]
 # ChildEBP RetAddr      Args to Child              
WARNING: Stack unwind information not available. Following frames may be wrong.
00 0164dc9c 0067850d     000004e4 0164e750 006268cf ws7v6!Exceptionloginitialization$qqrv+0x504c8
01 0164dce8 005df093     089ac406 00000057 089abf30 ws7v6!Exceptionloginitialization$qqrv+0x55309
02 0164e75c 005e06f3     00000000 089ac406 00000057 ws7v6!FupeditorfFinalize+0xb83
eax=089e1370 ebx=00c075b8 ecx=12302070 edx=089dc2b0 esi=0164cc98 edi=00000007
eip=006736cc esp=0164cc68 ebp=0164dc9c iopl=0         nv up ei pl zr na pe nc
cs=0023  ss=002b  ds=002b  es=002b  fs=0053  gs=002b             efl=00000246
ws7v6!Exceptionloginitialization$qqrv+0x504c8:
006736cc 5b              pop     ebx
 # ChildEBP RetAddr      Args to Child              
WARNING: Stack unwind information not available. Following frames may be wrong.
00 0164dce8 005df0c2     089ac406 00000057 089abf30 ws7v6!Exceptionloginitialization$qqrv+0x50855
01 0164e75c 005e06f3     00000000 089ac406 00000057 ws7v6!FupeditorfFinalize+0xbb2
02 0164e7e0 005e08c3     00008195 089abf30 0164e9e8 ws7v6!FupeditorfFinalize+0x21e3
eax=00000100 ebx=00c075b8 ecx=089e1370 edx=089dc2b0 esi=00000002 edi=0164e01c
eip=00673a59 esp=0164dcc8 ebp=0164dce8 iopl=0         nv up ei pl zr na pe nc
cs=0023  ss=002b  ds=002b  es=002b  fs=0053  gs=002b             efl=00000246
ws7v6!Exceptionloginitialization$qqrv+0x50855:
00673a59 7494            je      ws7v6!Exceptionloginitialization$qqrv+0x507eb (006739ef) [br=1]
 # ChildEBP RetAddr      Args to Child              
WARNING: Stack unwind information not available. Following frames may be wrong.
00 0164dce8 005df0c2     089ac406 00000057 089abf30 ws7v6!Exceptionloginitialization$qqrv+0x5081a
01 0164e75c 005e06f3     00000000 089ac406 00000057 ws7v6!FupeditorfFinalize+0xbb2
02 0164e7e0 005e08c3     00008195 089abf30 0164e9e8 ws7v6!FupeditorfFinalize+0x21e3
eax=00000001 ebx=00c075b8 ecx=12302070 edx=089dc2b0 esi=00000002 edi=0164e01c
eip=00673a1e esp=0164dcc8 ebp=0164dce8 iopl=0         nv up ei pl zr na pe nc
cs=0023  ss=002b  ds=002b  es=002b  fs=0053  gs=002b             efl=00000246
ws7v6!Exceptionloginitialization$qqrv+0x5081a:
00673a1e 31c0            xor     eax,eax
 # ChildEBP RetAddr      Args to Child              
WARNING: Stack unwind information not available. Following frames may be wrong.
00 0164e664 0067850d     000004e4 0164e744 006268cf ws7v6!Exceptionloginitialization$qqrv+0x504d5
01 0164e6b0 005df37d     086f4dd0 00000005 089abf30 ws7v6!Exceptionloginitialization$qqrv+0x55309
02 0164e750 005e0553     00500000 3910cccd 0000000f ws7v6!FupeditorfFinalize+0xe6d
eax=00000100 ebx=00c075b8 ecx=00000001 edx=00000003 esi=0164d660 edi=00000007
eip=006736d9 esp=0164d630 ebp=0164e664 iopl=0         nv up ei pl zr na pe nc
cs=0023  ss=002b  ds=002b  es=002b  fs=0053  gs=002b             efl=00000246
ws7v6!Exceptionloginitialization$qqrv+0x504d5:
006736d9 749f            je      ws7v6!Exceptionloginitialization$qqrv+0x50476 (0067367a) [br=1]
 # ChildEBP RetAddr      Args to Child              
WARNING: Stack unwind information not available. Following frames may be wrong.
00 0164e664 0067850d     000004e4 0164e744 006268cf ws7v6!Exceptionloginitialization$qqrv+0x504c8
01 0164e6b0 005df37d     086f4dd0 00000005 089abf30 ws7v6!Exceptionloginitialization$qqrv+0x55309
02 0164e750 005e0553     00500000 3910cccd 0000000f ws7v6!FupeditorfFinalize+0xe6d
eax=089e1370 ebx=00c075b8 ecx=12302070 edx=089dc2b0 esi=0164d660 edi=00000007
eip=006736cc esp=0164d630 ebp=0164e664 iopl=0         nv up ei pl zr na pe nc
cs=0023  ss=002b  ds=002b  es=002b  fs=0053  gs=002b             efl=00000246
ws7v6!Exceptionloginitialization$qqrv+0x504c8:
006736cc 5b              pop     ebx
 # ChildEBP RetAddr      Args to Child              
WARNING: Stack unwind information not available. Following frames may be wrong.
00 0164e6b0 005df3a3     086f4dd0 00000005 089abf30 ws7v6!Exceptionloginitialization$qqrv+0x50855
01 0164e750 005e0553     00500000 3910cccd 0000000f ws7v6!FupeditorfFinalize+0xe93
02 0164e7e0 005e08c3     00008195 089abf30 0164e9e8 ws7v6!FupeditorfFinalize+0x2043
eax=00000100 ebx=00c075b8 ecx=089e1370 edx=089dc2b0 esi=00000002 edi=0070ba38
eip=00673a59 esp=0164e690 ebp=0164e6b0 iopl=0         nv up ei pl zr na pe nc
cs=0023  ss=002b  ds=002b  es=002b  fs=0053  gs=002b             efl=00000246
ws7v6!Exceptionloginitialization$qqrv+0x50855:
00673a59 7494            je      ws7v6!Exceptionloginitialization$qqrv+0x507eb (006739ef) [br=1]
 # ChildEBP RetAddr      Args to Child              
WARNING: Stack unwind information not available. Following frames may be wrong.
00 0164e6b0 005df3a3     086f4dd0 00000005 089abf30 ws7v6!Exceptionloginitialization$qqrv+0x5081a
01 0164e750 005e0553     00500000 3910cccd 0000000f ws7v6!FupeditorfFinalize+0xe93
02 0164e7e0 005e08c3     00008195 089abf30 0164e9e8 ws7v6!FupeditorfFinalize+0x2043
eax=00000001 ebx=00c075b8 ecx=12302070 edx=089dc2b0 esi=00000002 edi=0070ba38
eip=00673a1e esp=0164e690 ebp=0164e6b0 iopl=0         nv up ei pl zr na pe nc
cs=0023  ss=002b  ds=002b  es=002b  fs=0053  gs=002b             efl=00000246
ws7v6!Exceptionloginitialization$qqrv+0x5081a:
00673a1e 31c0            xor     eax,eax
 # ChildEBP RetAddr      Args to Child              
WARNING: Stack unwind information not available. Following frames may be wrong.
00 0164e664 0067850d     000004e4 0164e740 006268cf ws7v6!Exceptionloginitialization$qqrv+0x504d5
01 0164e6b0 005df3d4     086f4dd0 00000005 089abf30 ws7v6!Exceptionloginitialization$qqrv+0x55309
02 0164e750 005e0553     00500000 3910cccd 0000000f ws7v6!FupeditorfFinalize+0xec4
eax=00000100 ebx=00c075b8 ecx=00000001 edx=00000003 esi=0164d660 edi=00000005
eip=006736d9 esp=0164d630 ebp=0164e664 iopl=0         nv up ei pl zr na pe nc
cs=0023  ss=002b  ds=002b  es=002b  fs=0053  gs=002b             efl=00000246
ws7v6!Exceptionloginitialization$qqrv+0x504d5:
006736d9 749f            je      ws7v6!Exceptionloginitialization$qqrv+0x50476 (0067367a) [br=1]
 # ChildEBP RetAddr      Args to Child              
WARNING: Stack unwind information not available. Following frames may be wrong.
00 0164e664 0067850d     000004e4 0164e740 006268cf ws7v6!Exceptionloginitialization$qqrv+0x504c8
01 0164e6b0 005df3d4     086f4dd0 00000005 089abf30 ws7v6!Exceptionloginitialization$qqrv+0x55309
02 0164e750 005e0553     00500000 3910cccd 0000000f ws7v6!FupeditorfFinalize+0xec4
eax=089e1370 ebx=00c075b8 ecx=12302070 edx=089dc2b0 esi=0164d660 edi=00000005
eip=006736cc esp=0164d630 ebp=0164e664 iopl=0         nv up ei pl zr na pe nc
cs=0023  ss=002b  ds=002b  es=002b  fs=0053  gs=002b             efl=00000246
ws7v6!Exceptionloginitialization$qqrv+0x504c8:
006736cc 5b              pop     ebx
 # ChildEBP RetAddr      Args to Child              
WARNING: Stack unwind information not available. Following frames may be wrong.
00 0164e6b0 005df3fa     086f4dd0 00000005 089abf30 ws7v6!Exceptionloginitialization$qqrv+0x50855
01 0164e750 005e0553     00500000 3910cccd 0000000f ws7v6!FupeditorfFinalize+0xeea
02 0164e7e0 005e08c3     00008195 089abf30 0164e9e8 ws7v6!FupeditorfFinalize+0x2043
eax=00000100 ebx=00c075b8 ecx=089e1370 edx=089dc2b0 esi=00000002 edi=0070ba38
eip=00673a59 esp=0164e690 ebp=0164e6b0 iopl=0         nv up ei pl zr na pe nc
cs=0023  ss=002b  ds=002b  es=002b  fs=0053  gs=002b             efl=00000246
ws7v6!Exceptionloginitialization$qqrv+0x50855:
00673a59 7494            je      ws7v6!Exceptionloginitialization$qqrv+0x507eb (006739ef) [br=1]
 # ChildEBP RetAddr      Args to Child              
WARNING: Stack unwind information not available. Following frames may be wrong.
00 0164e6b0 005df3fa     086f4dd0 00000005 089abf30 ws7v6!Exceptionloginitialization$qqrv+0x5081a
01 0164e750 005e0553     00500000 3910cccd 0000000f ws7v6!FupeditorfFinalize+0xeea
02 0164e7e0 005e08c3     00008195 089abf30 0164e9e8 ws7v6!FupeditorfFinalize+0x2043
eax=00000001 ebx=00c075b8 ecx=12302070 edx=089dc2b0 esi=00000002 edi=0070ba38
eip=00673a1e esp=0164e690 ebp=0164e6b0 iopl=0         nv up ei pl zr na pe nc
cs=0023  ss=002b  ds=002b  es=002b  fs=0053  gs=002b             efl=00000246
ws7v6!Exceptionloginitialization$qqrv+0x5081a:
00673a1e 31c0            xor     eax,eax
 # ChildEBP RetAddr      Args to Child              
WARNING: Stack unwind information not available. Following frames may be wrong.
00 0164e664 0067850d     000004e4 0164e73c 006268cf ws7v6!Exceptionloginitialization$qqrv+0x504d5
01 0164e6b0 005df44e     086f4dd0 00000005 089abf30 ws7v6!Exceptionloginitialization$qqrv+0x55309
02 0164e750 005e0553     00500000 3910cccd 0000000f ws7v6!FupeditorfFinalize+0xf3e
eax=00000100 ebx=00c075b8 ecx=00000001 edx=00000003 esi=0164d660 edi=00000007
eip=006736d9 esp=0164d630 ebp=0164e664 iopl=0         nv up ei pl zr na pe nc
cs=0023  ss=002b  ds=002b  es=002b  fs=0053  gs=002b             efl=00000246
ws7v6!Exceptionloginitialization$qqrv+0x504d5:
006736d9 749f            je      ws7v6!Exceptionloginitialization$qqrv+0x50476 (0067367a) [br=1]
 # ChildEBP RetAddr      Args to Child              
WARNING: Stack unwind information not available. Following frames may be wrong.
00 0164e664 0067850d     000004e4 0164e73c 006268cf ws7v6!Exceptionloginitialization$qqrv+0x504c8
01 0164e6b0 005df44e     086f4dd0 00000005 089abf30 ws7v6!Exceptionloginitialization$qqrv+0x55309
02 0164e750 005e0553     00500000 3910cccd 0000000f ws7v6!FupeditorfFinalize+0xf3e
eax=089e1370 ebx=00c075b8 ecx=12302070 edx=089dc2b0 esi=0164d660 edi=00000007
eip=006736cc esp=0164d630 ebp=0164e664 iopl=0         nv up ei pl zr na pe nc
cs=0023  ss=002b  ds=002b  es=002b  fs=0053  gs=002b             efl=00000246
ws7v6!Exceptionloginitialization$qqrv+0x504c8:
006736cc 5b              pop     ebx
 # ChildEBP RetAddr      Args to Child              
WARNING: Stack unwind information not available. Following frames may be wrong.
00 0164e6b0 005df474     086f4dd0 00000005 089abf30 ws7v6!Exceptionloginitialization$qqrv+0x50855
01 0164e750 005e0553     00500000 3910cccd 0000000f ws7v6!FupeditorfFinalize+0xf64
02 0164e7e0 005e08c3     00008195 089abf30 0164e9e8 ws7v6!FupeditorfFinalize+0x2043
eax=00000100 ebx=00c075b8 ecx=089e1370 edx=089dc2b0 esi=00000002 edi=0070ba38
eip=00673a59 esp=0164e690 ebp=0164e6b0 iopl=0         nv up ei pl zr na pe nc
cs=0023  ss=002b  ds=002b  es=002b  fs=0053  gs=002b             efl=00000246
ws7v6!Exceptionloginitialization$qqrv+0x50855:
00673a59 7494            je      ws7v6!Exceptionloginitialization$qqrv+0x507eb (006739ef) [br=1]
 # ChildEBP RetAddr      Args to Child              
WARNING: Stack unwind information not available. Following frames may be wrong.
00 0164e6b0 005df474     086f4dd0 00000005 089abf30 ws7v6!Exceptionloginitialization$qqrv+0x5081a
01 0164e750 005e0553     00500000 3910cccd 0000000f ws7v6!FupeditorfFinalize+0xf64
02 0164e7e0 005e08c3     00008195 089abf30 0164e9e8 ws7v6!FupeditorfFinalize+0x2043
eax=00000001 ebx=00c075b8 ecx=12302070 edx=089dc2b0 esi=00000002 edi=0070ba38
eip=00673a1e esp=0164e690 ebp=0164e6b0 iopl=0         nv up ei pl zr na pe nc
cs=0023  ss=002b  ds=002b  es=002b  fs=0053  gs=002b             efl=00000246
ws7v6!Exceptionloginitialization$qqrv+0x5081a:
00673a1e 31c0            xor     eax,eax
 # ChildEBP RetAddr      Args to Child              
WARNING: Stack unwind information not available. Following frames may be wrong.
00 0164dc9c 0067850d     000004e4 0164e758 006268cf ws7v6!Exceptionloginitialization$qqrv+0x504d5
01 0164dce8 005defce     089ac406 00000057 089abf30 ws7v6!Exceptionloginitialization$qqrv+0x55309
02 0164e75c 005e06f3     00000000 089ac406 00000057 ws7v6!FupeditorfFinalize+0xabe
eax=00000100 ebx=00c075b8 ecx=00000001 edx=00000003 esi=0164cc98 edi=00000004
eip=006736d9 esp=0164cc68 ebp=0164dc9c iopl=0         nv up ei pl zr na pe nc
cs=0023  ss=002b  ds=002b  es=002b  fs=0053  gs=002b             efl=00000246
ws7v6!Exceptionloginitialization$qqrv+0x504d5:
006736d9 749f            je      ws7v6!Exceptionloginitialization$qqrv+0x50476 (0067367a) [br=1]
 # ChildEBP RetAddr      Args to Child              
WARNING: Stack unwind information not available. Following frames may be wrong.
00 0164dc9c 0067850d     000004e4 0164e758 006268cf ws7v6!Exceptionloginitialization$qqrv+0x504c8
01 0164dce8 005defce     089ac406 00000057 089abf30 ws7v6!Exceptionloginitialization$qqrv+0x55309
02 0164e75c 005e06f3     00000000 089ac406 00000057 ws7v6!FupeditorfFinalize+0xabe
eax=089e1370 ebx=00c075b8 ecx=12302070 edx=089dc2b0 esi=0164cc98 edi=00000004
eip=006736cc esp=0164cc68 ebp=0164dc9c iopl=0         nv up ei pl zr na pe nc
cs=0023  ss=002b  ds=002b  es=002b  fs=0053  gs=002b             efl=00000246
ws7v6!Exceptionloginitialization$qqrv+0x504c8:
006736cc 5b              pop     ebx
 # ChildEBP RetAddr      Args to Child              
WARNING: Stack unwind information not available. Following frames may be wrong.
00 0164dce8 005defed     089ac406 00000057 089abf30 ws7v6!Exceptionloginitialization$qqrv+0x50855
01 0164e75c 005e06f3     00000000 089ac406 00000057 ws7v6!FupeditorfFinalize+0xadd
02 0164e7e0 005e08c3     00008195 089abf30 0164e9e8 ws7v6!FupeditorfFinalize+0x21e3
eax=00000100 ebx=00c075b8 ecx=089e1370 edx=089dc2b0 esi=00000002 edi=0164e01c
eip=00673a59 esp=0164dcc8 ebp=0164dce8 iopl=0         nv up ei pl zr na pe nc
cs=0023  ss=002b  ds=002b  es=002b  fs=0053  gs=002b             efl=00000246
ws7v6!Exceptionloginitialization$qqrv+0x50855:
00673a59 7494            je      ws7v6!Exceptionloginitialization$qqrv+0x507eb (006739ef) [br=1]
 # ChildEBP RetAddr      Args to Child              
WARNING: Stack unwind information not available. Following frames may be wrong.
00 0164dce8 005defed     089ac406 00000057 089abf30 ws7v6!Exceptionloginitialization$qqrv+0x5081a
01 0164e75c 005e06f3     00000000 089ac406 00000057 ws7v6!FupeditorfFinalize+0xadd
02 0164e7e0 005e08c3     00008195 089abf30 0164e9e8 ws7v6!FupeditorfFinalize+0x21e3
eax=00000001 ebx=00c075b8 ecx=12302070 edx=089dc2b0 esi=00000002 edi=0164e01c
eip=00673a1e esp=0164dcc8 ebp=0164dce8 iopl=0         nv up ei pl zr na pe nc
cs=0023  ss=002b  ds=002b  es=002b  fs=0053  gs=002b             efl=00000246
ws7v6!Exceptionloginitialization$qqrv+0x5081a:
00673a1e 31c0            xor     eax,eax
 # ChildEBP RetAddr      Args to Child              
WARNING: Stack unwind information not available. Following frames may be wrong.
00 0164dc9c 0067850d     000004e4 0164e754 006268cf ws7v6!Exceptionloginitialization$qqrv+0x504d5
01 0164dce8 005df024     089ac406 00000057 089abf30 ws7v6!Exceptionloginitialization$qqrv+0x55309
02 0164e75c 005e06f3     00000000 089ac406 00000057 ws7v6!FupeditorfFinalize+0xb14
eax=00000100 ebx=00c075b8 ecx=00000001 edx=00000003 esi=0164cc98 edi=00000004
eip=006736d9 esp=0164cc68 ebp=0164dc9c iopl=0         nv up ei pl zr na pe nc
cs=0023  ss=002b  ds=002b  es=002b  fs=0053  gs=002b             efl=00000246
ws7v6!Exceptionloginitialization$qqrv+0x504d5:
006736d9 749f            je      ws7v6!Exceptionloginitialization$qqrv+0x50476 (0067367a) [br=1]
 # ChildEBP RetAddr      Args to Child              
WARNING: Stack unwind information not available. Following frames may be wrong.
00 0164dc9c 0067850d     000004e4 0164e754 006268cf ws7v6!Exceptionloginitialization$qqrv+0x504c8
01 0164dce8 005df024     089ac406 00000057 089abf30 ws7v6!Exceptionloginitialization$qqrv+0x55309
02 0164e75c 005e06f3     00000000 089ac406 00000057 ws7v6!FupeditorfFinalize+0xb14
eax=089e1370 ebx=00c075b8 ecx=12302070 edx=089dc2b0 esi=0164cc98 edi=00000004
eip=006736cc esp=0164cc68 ebp=0164dc9c iopl=0         nv up ei pl zr na pe nc
cs=0023  ss=002b  ds=002b  es=002b  fs=0053  gs=002b             efl=00000246
ws7v6!Exceptionloginitialization$qqrv+0x504c8:
006736cc 5b              pop     ebx
 # ChildEBP RetAddr      Args to Child              
WARNING: Stack unwind information not available. Following frames may be wrong.
00 0164dce8 005df04b     089ac406 00000057 089abf30 ws7v6!Exceptionloginitialization$qqrv+0x50855
01 0164e75c 005e06f3     00000000 089ac406 00000057 ws7v6!FupeditorfFinalize+0xb3b
02 0164e7e0 005e08c3     00008195 089abf30 0164e9e8 ws7v6!FupeditorfFinalize+0x21e3
eax=00000100 ebx=00c075b8 ecx=089e1370 edx=089dc2b0 esi=00000002 edi=0164e01c
eip=00673a59 esp=0164dcc8 ebp=0164dce8 iopl=0         nv up ei pl zr na pe nc
cs=0023  ss=002b  ds=002b  es=002b  fs=0053  gs=002b             efl=00000246
ws7v6!Exceptionloginitialization$qqrv+0x50855:
00673a59 7494            je      ws7v6!Exceptionloginitialization$qqrv+0x507eb (006739ef) [br=1]
 # ChildEBP RetAddr      Args to Child              
WARNING: Stack unwind information not available. Following frames may be wrong.
00 0164dce8 005df04b     089ac406 00000057 089abf30 ws7v6!Exceptionloginitialization$qqrv+0x5081a
01 0164e75c 005e06f3     00000000 089ac406 00000057 ws7v6!FupeditorfFinalize+0xb3b
02 0164e7e0 005e08c3     00008195 089abf30 0164e9e8 ws7v6!FupeditorfFinalize+0x21e3
eax=00000001 ebx=00c075b8 ecx=12302070 edx=089dc2b0 esi=00000002 edi=0164e01c
eip=00673a1e esp=0164dcc8 ebp=0164dce8 iopl=0         nv up ei pl zr na pe nc
cs=0023  ss=002b  ds=002b  es=002b  fs=0053  gs=002b             efl=00000246
ws7v6!Exceptionloginitialization$qqrv+0x5081a:
00673a1e 31c0            xor     eax,eax
 # ChildEBP RetAddr      Args to Child              
WARNING: Stack unwind information not available. Following frames may be wrong.
00 0164dc9c 0067850d     000004e4 0164e750 006268cf ws7v6!Exceptionloginitialization$qqrv+0x504d5
01 0164dce8 005df093     089ac406 00000057 089abf30 ws7v6!Exceptionloginitialization$qqrv+0x55309
02 0164e75c 005e06f3     00000000 089ac406 00000057 ws7v6!FupeditorfFinalize+0xb83
eax=00000100 ebx=00c075b8 ecx=00000001 edx=00000003 esi=0164cc98 edi=00000007
eip=006736d9 esp=0164cc68 ebp=0164dc9c iopl=0         nv up ei pl zr na pe nc
cs=0023  ss=002b  ds=002b  es=002b  fs=0053  gs=002b             efl=00000246
ws7v6!Exceptionloginitialization$qqrv+0x504d5:
006736d9 749f            je      ws7v6!Exceptionloginitialization$qqrv+0x50476 (0067367a) [br=1]
 # ChildEBP RetAddr      Args to Child              
WARNING: Stack unwind information not available. Following frames may be wrong.
00 0164dc9c 0067850d     000004e4 0164e750 006268cf ws7v6!Exceptionloginitialization$qqrv+0x504c8
01 0164dce8 005df093     089ac406 00000057 089abf30 ws7v6!Exceptionloginitialization$qqrv+0x55309
02 0164e75c 005e06f3     00000000 089ac406 00000057 ws7v6!FupeditorfFinalize+0xb83
eax=089e1370 ebx=00c075b8 ecx=12302070 edx=089dc2b0 esi=0164cc98 edi=00000007
eip=006736cc esp=0164cc68 ebp=0164dc9c iopl=0         nv up ei pl zr na pe nc
cs=0023  ss=002b  ds=002b  es=002b  fs=0053  gs=002b             efl=00000246
ws7v6!Exceptionloginitialization$qqrv+0x504c8:
006736cc 5b              pop     ebx
 # ChildEBP RetAddr      Args to Child              
WARNING: Stack unwind information not available. Following frames may be wrong.
00 0164dce8 005df0c2     089ac406 00000057 089abf30 ws7v6!Exceptionloginitialization$qqrv+0x50855
01 0164e75c 005e06f3     00000000 089ac406 00000057 ws7v6!FupeditorfFinalize+0xbb2
02 0164e7e0 005e08c3     00008195 089abf30 0164e9e8 ws7v6!FupeditorfFinalize+0x21e3
eax=00000100 ebx=00c075b8 ecx=089e1370 edx=089dc2b0 esi=00000002 edi=0164e01c
eip=00673a59 esp=0164dcc8 ebp=0164dce8 iopl=0         nv up ei pl zr na pe nc
cs=0023  ss=002b  ds=002b  es=002b  fs=0053  gs=002b             efl=00000246
ws7v6!Exceptionloginitialization$qqrv+0x50855:
00673a59 7494            je      ws7v6!Exceptionloginitialization$qqrv+0x507eb (006739ef) [br=1]
 # ChildEBP RetAddr      Args to Child              
WARNING: Stack unwind information not available. Following frames may be wrong.
00 0164dce8 005df0c2     089ac406 00000057 089abf30 ws7v6!Exceptionloginitialization$qqrv+0x5081a
01 0164e75c 005e06f3     00000000 089ac406 00000057 ws7v6!FupeditorfFinalize+0xbb2
02 0164e7e0 005e08c3     00008195 089abf30 0164e9e8 ws7v6!FupeditorfFinalize+0x21e3
eax=00000001 ebx=00c075b8 ecx=12302070 edx=089dc2b0 esi=00000002 edi=0164e01c
eip=00673a1e esp=0164dcc8 ebp=0164dce8 iopl=0         nv up ei pl zr na pe nc
cs=0023  ss=002b  ds=002b  es=002b  fs=0053  gs=002b             efl=00000246
ws7v6!Exceptionloginitialization$qqrv+0x5081a:
00673a1e 31c0            xor     eax,eax
 # ChildEBP RetAddr      Args to Child              
WARNING: Stack unwind information not available. Following frames may be wrong.
00 0164e664 0067850d     000004e4 0164e744 006268cf ws7v6!Exceptionloginitialization$qqrv+0x504d5
01 0164e6b0 005df37d     086f4dd0 00000005 089abf30 ws7v6!Exceptionloginitialization$qqrv+0x55309
02 0164e750 005e0553     00500000 3910cccd 0000000f ws7v6!FupeditorfFinalize+0xe6d
eax=00000100 ebx=00c075b8 ecx=00000001 edx=00000003 esi=0164d660 edi=00000007
eip=006736d9 esp=0164d630 ebp=0164e664 iopl=0         nv up ei pl zr na pe nc
cs=0023  ss=002b  ds=002b  es=002b  fs=0053  gs=002b             efl=00000246
ws7v6!Exceptionloginitialization$qqrv+0x504d5:
006736d9 749f            je      ws7v6!Exceptionloginitialization$qqrv+0x50476 (0067367a) [br=1]
 # ChildEBP RetAddr      Args to Child              
WARNING: Stack unwind information not available. Following frames may be wrong.
00 0164e664 0067850d     000004e4 0164e744 006268cf ws7v6!Exceptionloginitialization$qqrv+0x504c8
01 0164e6b0 005df37d     086f4dd0 00000005 089abf30 ws7v6!Exceptionloginitialization$qqrv+0x55309
02 0164e750 005e0553     00500000 3910cccd 0000000f ws7v6!FupeditorfFinalize+0xe6d
eax=089e1370 ebx=00c075b8 ecx=12302070 edx=089dc2b0 esi=0164d660 edi=00000007
eip=006736cc esp=0164d630 ebp=0164e664 iopl=0         nv up ei pl zr na pe nc
cs=0023  ss=002b  ds=002b  es=002b  fs=0053  gs=002b             efl=00000246
ws7v6!Exceptionloginitialization$qqrv+0x504c8:
006736cc 5b              pop     ebx
 # ChildEBP RetAddr      Args to Child              
WARNING: Stack unwind information not available. Following frames may be wrong.
00 0164e6b0 005df3a3     086f4dd0 00000005 089abf30 ws7v6!Exceptionloginitialization$qqrv+0x50855
01 0164e750 005e0553     00500000 3910cccd 0000000f ws7v6!FupeditorfFinalize+0xe93
02 0164e7e0 005e08c3     00008195 089abf30 0164e9e8 ws7v6!FupeditorfFinalize+0x2043
eax=00000100 ebx=00c075b8 ecx=089e1370 edx=089dc2b0 esi=00000002 edi=0070ba38
eip=00673a59 esp=0164e690 ebp=0164e6b0 iopl=0         nv up ei pl zr na pe nc
cs=0023  ss=002b  ds=002b  es=002b  fs=0053  gs=002b             efl=00000246
ws7v6!Exceptionloginitialization$qqrv+0x50855:
00673a59 7494            je      ws7v6!Exceptionloginitialization$qqrv+0x507eb (006739ef) [br=1]
 # ChildEBP RetAddr      Args to Child              
WARNING: Stack unwind information not available. Following frames may be wrong.
00 0164e6b0 005df3a3     086f4dd0 00000005 089abf30 ws7v6!Exceptionloginitialization$qqrv+0x5081a
01 0164e750 005e0553     00500000 3910cccd 0000000f ws7v6!FupeditorfFinalize+0xe93
02 0164e7e0 005e08c3     00008195 089abf30 0164e9e8 ws7v6!FupeditorfFinalize+0x2043
eax=00000001 ebx=00c075b8 ecx=12302070 edx=089dc2b0 esi=00000002 edi=0070ba38
eip=00673a1e esp=0164e690 ebp=0164e6b0 iopl=0         nv up ei pl zr na pe nc
cs=0023  ss=002b  ds=002b  es=002b  fs=0053  gs=002b             efl=00000246
ws7v6!Exceptionloginitialization$qqrv+0x5081a:
00673a1e 31c0            xor     eax,eax
 # ChildEBP RetAddr      Args to Child              
WARNING: Stack unwind information not available. Following frames may be wrong.
00 0164e664 0067850d     000004e4 0164e740 006268cf ws7v6!Exceptionloginitialization$qqrv+0x504d5
01 0164e6b0 005df3d4     086f4dd0 00000005 089abf30 ws7v6!Exceptionloginitialization$qqrv+0x55309
02 0164e750 005e0553     00500000 3910cccd 0000000f ws7v6!FupeditorfFinalize+0xec4
eax=00000100 ebx=00c075b8 ecx=00000001 edx=00000003 esi=0164d660 edi=00000005
eip=006736d9 esp=0164d630 ebp=0164e664 iopl=0         nv up ei pl zr na pe nc
cs=0023  ss=002b  ds=002b  es=002b  fs=0053  gs=002b             efl=00000246
ws7v6!Exceptionloginitialization$qqrv+0x504d5:
006736d9 749f            je      ws7v6!Exceptionloginitialization$qqrv+0x50476 (0067367a) [br=1]
 # ChildEBP RetAddr      Args to Child              
WARNING: Stack unwind information not available. Following frames may be wrong.
00 0164e664 0067850d     000004e4 0164e740 006268cf ws7v6!Exceptionloginitialization$qqrv+0x504c8
01 0164e6b0 005df3d4     086f4dd0 00000005 089abf30 ws7v6!Exceptionloginitialization$qqrv+0x55309
02 0164e750 005e0553     00500000 3910cccd 0000000f ws7v6!FupeditorfFinalize+0xec4
eax=089e1370 ebx=00c075b8 ecx=12302070 edx=089dc2b0 esi=0164d660 edi=00000005
eip=006736cc esp=0164d630 ebp=0164e664 iopl=0         nv up ei pl zr na pe nc
cs=0023  ss=002b  ds=002b  es=002b  fs=0053  gs=002b             efl=00000246
ws7v6!Exceptionloginitialization$qqrv+0x504c8:
006736cc 5b              pop     ebx
 # ChildEBP RetAddr      Args to Child              
WARNING: Stack unwind information not available. Following frames may be wrong.
00 0164e6b0 005df3fa     086f4dd0 00000005 089abf30 ws7v6!Exceptionloginitialization$qqrv+0x50855
01 0164e750 005e0553     00500000 3910cccd 0000000f ws7v6!FupeditorfFinalize+0xeea
02 0164e7e0 005e08c3     00008195 089abf30 0164e9e8 ws7v6!FupeditorfFinalize+0x2043
eax=00000100 ebx=00c075b8 ecx=089e1370 edx=089dc2b0 esi=00000002 edi=0070ba38
eip=00673a59 esp=0164e690 ebp=0164e6b0 iopl=0         nv up ei pl zr na pe nc
cs=0023  ss=002b  ds=002b  es=002b  fs=0053  gs=002b             efl=00000246
ws7v6!Exceptionloginitialization$qqrv+0x50855:
00673a59 7494            je      ws7v6!Exceptionloginitialization$qqrv+0x507eb (006739ef) [br=1]
 # ChildEBP RetAddr      Args to Child              
WARNING: Stack unwind information not available. Following frames may be wrong.
00 0164e6b0 005df3fa     086f4dd0 00000005 089abf30 ws7v6!Exceptionloginitialization$qqrv+0x5081a
01 0164e750 005e0553     00500000 3910cccd 0000000f ws7v6!FupeditorfFinalize+0xeea
02 0164e7e0 005e08c3     00008195 089abf30 0164e9e8 ws7v6!FupeditorfFinalize+0x2043
eax=00000001 ebx=00c075b8 ecx=12302070 edx=089dc2b0 esi=00000002 edi=0070ba38
eip=00673a1e esp=0164e690 ebp=0164e6b0 iopl=0         nv up ei pl zr na pe nc
cs=0023  ss=002b  ds=002b  es=002b  fs=0053  gs=002b             efl=00000246
ws7v6!Exceptionloginitialization$qqrv+0x5081a:
00673a1e 31c0            xor     eax,eax
 # ChildEBP RetAddr      Args to Child              
WARNING: Stack unwind information not available. Following frames may be wrong.
00 0164e664 0067850d     000004e4 0164e73c 006268cf ws7v6!Exceptionloginitialization$qqrv+0x504d5
01 0164e6b0 005df44e     086f4dd0 00000005 089abf30 ws7v6!Exceptionloginitialization$qqrv+0x55309
02 0164e750 005e0553     00500000 3910cccd 0000000f ws7v6!FupeditorfFinalize+0xf3e
eax=00000100 ebx=00c075b8 ecx=00000001 edx=00000003 esi=0164d660 edi=00000007
eip=006736d9 esp=0164d630 ebp=0164e664 iopl=0         nv up ei pl zr na pe nc
cs=0023  ss=002b  ds=002b  es=002b  fs=0053  gs=002b             efl=00000246
ws7v6!Exceptionloginitialization$qqrv+0x504d5:
006736d9 749f            je      ws7v6!Exceptionloginitialization$qqrv+0x50476 (0067367a) [br=1]
 # ChildEBP RetAddr      Args to Child              
WARNING: Stack unwind information not available. Following frames may be wrong.
00 0164e664 0067850d     000004e4 0164e73c 006268cf ws7v6!Exceptionloginitialization$qqrv+0x504c8
01 0164e6b0 005df44e     086f4dd0 00000005 089abf30 ws7v6!Exceptionloginitialization$qqrv+0x55309
02 0164e750 005e0553     00500000 3910cccd 0000000f ws7v6!FupeditorfFinalize+0xf3e
eax=089e1370 ebx=00c075b8 ecx=12302070 edx=089dc2b0 esi=0164d660 edi=00000007
eip=006736cc esp=0164d630 ebp=0164e664 iopl=0         nv up ei pl zr na pe nc
cs=0023  ss=002b  ds=002b  es=002b  fs=0053  gs=002b             efl=00000246
ws7v6!Exceptionloginitialization$qqrv+0x504c8:
006736cc 5b              pop     ebx
 # ChildEBP RetAddr      Args to Child              
WARNING: Stack unwind information not available. Following frames may be wrong.
00 0164e6b0 005df474     086f4dd0 00000005 089abf30 ws7v6!Exceptionloginitialization$qqrv+0x50855
01 0164e750 005e0553     00500000 3910cccd 0000000f ws7v6!FupeditorfFinalize+0xf64
02 0164e7e0 005e08c3     00008195 089abf30 0164e9e8 ws7v6!FupeditorfFinalize+0x2043
eax=00000100 ebx=00c075b8 ecx=089e1370 edx=089dc2b0 esi=00000002 edi=0070ba38
eip=00673a59 esp=0164e690 ebp=0164e6b0 iopl=0         nv up ei pl zr na pe nc
cs=0023  ss=002b  ds=002b  es=002b  fs=0053  gs=002b             efl=00000246
ws7v6!Exceptionloginitialization$qqrv+0x50855:
00673a59 7494            je      ws7v6!Exceptionloginitialization$qqrv+0x507eb (006739ef) [br=1]
 # ChildEBP RetAddr      Args to Child              
WARNING: Stack unwind information not available. Following frames may be wrong.
00 0164e6b0 005df474     086f4dd0 00000005 089abf30 ws7v6!Exceptionloginitialization$qqrv+0x5081a
01 0164e750 005e0553     00500000 3910cccd 0000000f ws7v6!FupeditorfFinalize+0xf64
02 0164e7e0 005e08c3     00008195 089abf30 0164e9e8 ws7v6!FupeditorfFinalize+0x2043
eax=00000001 ebx=00c075b8 ecx=12302070 edx=089dc2b0 esi=00000002 edi=0070ba38
eip=00673a1e esp=0164e690 ebp=0164e6b0 iopl=0         nv up ei pl zr na pe nc
cs=0023  ss=002b  ds=002b  es=002b  fs=0053  gs=002b             efl=00000246
ws7v6!Exceptionloginitialization$qqrv+0x5081a:
00673a1e 31c0            xor     eax,eax
 # ChildEBP RetAddr      Args to Child              
WARNING: Stack unwind information not available. Following frames may be wrong.
00 0164dc9c 0067850d     000004e4 0164e758 006268cf ws7v6!Exceptionloginitialization$qqrv+0x504d5
01 0164dce8 005defce     089ac406 00000057 089abf30 ws7v6!Exceptionloginitialization$qqrv+0x55309
02 0164e75c 005e06f3     00000000 089ac406 00000057 ws7v6!FupeditorfFinalize+0xabe
eax=00000100 ebx=00c075b8 ecx=00000001 edx=00000003 esi=0164cc98 edi=00000004
eip=006736d9 esp=0164cc68 ebp=0164dc9c iopl=0         nv up ei pl zr na pe nc
cs=0023  ss=002b  ds=002b  es=002b  fs=0053  gs=002b             efl=00000246
ws7v6!Exceptionloginitialization$qqrv+0x504d5:
006736d9 749f            je      ws7v6!Exceptionloginitialization$qqrv+0x50476 (0067367a) [br=1]
 # ChildEBP RetAddr      Args to Child              
WARNING: Stack unwind information not available. Following frames may be wrong.
00 0164dc9c 0067850d     000004e4 0164e758 006268cf ws7v6!Exceptionloginitialization$qqrv+0x504c8
01 0164dce8 005defce     089ac406 00000057 089abf30 ws7v6!Exceptionloginitialization$qqrv+0x55309
02 0164e75c 005e06f3     00000000 089ac406 00000057 ws7v6!FupeditorfFinalize+0xabe
eax=089e1370 ebx=00c075b8 ecx=12302070 edx=089dc2b0 esi=0164cc98 edi=00000004
eip=006736cc esp=0164cc68 ebp=0164dc9c iopl=0         nv up ei pl zr na pe nc
cs=0023  ss=002b  ds=002b  es=002b  fs=0053  gs=002b             efl=00000246
ws7v6!Exceptionloginitialization$qqrv+0x504c8:
006736cc 5b              pop     ebx
 # ChildEBP RetAddr      Args to Child              
WARNING: Stack unwind information not available. Following frames may be wrong.
00 0164dce8 005defed     089ac406 00000057 089abf30 ws7v6!Exceptionloginitialization$qqrv+0x50855
01 0164e75c 005e06f3     00000000 089ac406 00000057 ws7v6!FupeditorfFinalize+0xadd
02 0164e7e0 005e08c3     00008195 089abf30 0164e9e8 ws7v6!FupeditorfFinalize+0x21e3
eax=00000100 ebx=00c075b8 ecx=089e1370 edx=089dc2b0 esi=00000002 edi=0164e01c
eip=00673a59 esp=0164dcc8 ebp=0164dce8 iopl=0         nv up ei pl zr na pe nc
cs=0023  ss=002b  ds=002b  es=002b  fs=0053  gs=002b             efl=00000246
ws7v6!Exceptionloginitialization$qqrv+0x50855:
00673a59 7494            je      ws7v6!Exceptionloginitialization$qqrv+0x507eb (006739ef) [br=1]
 # ChildEBP RetAddr      Args to Child              
WARNING: Stack unwind information not available. Following frames may be wrong.
00 0164dce8 005defed     089ac406 00000057 089abf30 ws7v6!Exceptionloginitialization$qqrv+0x5081a
01 0164e75c 005e06f3     00000000 089ac406 00000057 ws7v6!FupeditorfFinalize+0xadd
02 0164e7e0 005e08c3     00008195 089abf30 0164e9e8 ws7v6!FupeditorfFinalize+0x21e3
eax=00000001 ebx=00c075b8 ecx=12302070 edx=089dc2b0 esi=00000002 edi=0164e01c
eip=00673a1e esp=0164dcc8 ebp=0164dce8 iopl=0         nv up ei pl zr na pe nc
cs=0023  ss=002b  ds=002b  es=002b  fs=0053  gs=002b             efl=00000246
ws7v6!Exceptionloginitialization$qqrv+0x5081a:
00673a1e 31c0            xor     eax,eax
 # ChildEBP RetAddr      Args to Child              
WARNING: Stack unwind information not available. Following frames may be wrong.
00 0164dc9c 0067850d     000004e4 0164e754 006268cf ws7v6!Exceptionloginitialization$qqrv+0x504d5
01 0164dce8 005df024     089ac406 00000057 089abf30 ws7v6!Exceptionloginitialization$qqrv+0x55309
02 0164e75c 005e06f3     00000000 089ac406 00000057 ws7v6!FupeditorfFinalize+0xb14
eax=00000100 ebx=00c075b8 ecx=00000001 edx=00000003 esi=0164cc98 edi=00000004
eip=006736d9 esp=0164cc68 ebp=0164dc9c iopl=0         nv up ei pl zr na pe nc
cs=0023  ss=002b  ds=002b  es=002b  fs=0053  gs=002b             efl=00000246
ws7v6!Exceptionloginitialization$qqrv+0x504d5:
006736d9 749f            je      ws7v6!Exceptionloginitialization$qqrv+0x50476 (0067367a) [br=1]
 # ChildEBP RetAddr      Args to Child              
WARNING: Stack unwind information not available. Following frames may be wrong.
00 0164dc9c 0067850d     000004e4 0164e754 006268cf ws7v6!Exceptionloginitialization$qqrv+0x504c8
01 0164dce8 005df024     089ac406 00000057 089abf30 ws7v6!Exceptionloginitialization$qqrv+0x55309
02 0164e75c 005e06f3     00000000 089ac406 00000057 ws7v6!FupeditorfFinalize+0xb14
eax=089e1370 ebx=00c075b8 ecx=12302070 edx=089dc2b0 esi=0164cc98 edi=00000004
eip=006736cc esp=0164cc68 ebp=0164dc9c iopl=0         nv up ei pl zr na pe nc
cs=0023  ss=002b  ds=002b  es=002b  fs=0053  gs=002b             efl=00000246
ws7v6!Exceptionloginitialization$qqrv+0x504c8:
006736cc 5b              pop     ebx
 # ChildEBP RetAddr      Args to Child              
WARNING: Stack unwind information not available. Following frames may be wrong.
00 0164dce8 005df04b     089ac406 00000057 089abf30 ws7v6!Exceptionloginitialization$qqrv+0x50855
01 0164e75c 005e06f3     00000000 089ac406 00000057 ws7v6!FupeditorfFinalize+0xb3b
02 0164e7e0 005e08c3     00008195 089abf30 0164e9e8 ws7v6!FupeditorfFinalize+0x21e3
eax=00000100 ebx=00c075b8 ecx=089e1370 edx=089dc2b0 esi=00000002 edi=0164e01c
eip=00673a59 esp=0164dcc8 ebp=0164dce8 iopl=0         nv up ei pl zr na pe nc
cs=0023  ss=002b  ds=002b  es=002b  fs=0053  gs=002b             efl=00000246
ws7v6!Exceptionloginitialization$qqrv+0x50855:
00673a59 7494            je      ws7v6!Exceptionloginitialization$qqrv+0x507eb (006739ef) [br=1]
 # ChildEBP RetAddr      Args to Child              
WARNING: Stack unwind information not available. Following frames may be wrong.
00 0164dce8 005df04b     089ac406 00000057 089abf30 ws7v6!Exceptionloginitialization$qqrv+0x5081a
01 0164e75c 005e06f3     00000000 089ac406 00000057 ws7v6!FupeditorfFinalize+0xb3b
02 0164e7e0 005e08c3     00008195 089abf30 0164e9e8 ws7v6!FupeditorfFinalize+0x21e3
eax=00000001 ebx=00c075b8 ecx=12302070 edx=089dc2b0 esi=00000002 edi=0164e01c
eip=00673a1e esp=0164dcc8 ebp=0164dce8 iopl=0         nv up ei pl zr na pe nc
cs=0023  ss=002b  ds=002b  es=002b  fs=0053  gs=002b             efl=00000246
ws7v6!Exceptionloginitialization$qqrv+0x5081a:
00673a1e 31c0            xor     eax,eax
 # ChildEBP RetAddr      Args to Child              
WARNING: Stack unwind information not available. Following frames may be wrong.
00 0164dc9c 0067850d     000004e4 0164e750 006268cf ws7v6!Exceptionloginitialization$qqrv+0x504d5
01 0164dce8 005df093     089ac406 00000057 089abf30 ws7v6!Exceptionloginitialization$qqrv+0x55309
02 0164e75c 005e06f3     00000000 089ac406 00000057 ws7v6!FupeditorfFinalize+0xb83
eax=00000100 ebx=00c075b8 ecx=00000001 edx=00000003 esi=0164cc98 edi=00000007
eip=006736d9 esp=0164cc68 ebp=0164dc9c iopl=0         nv up ei pl zr na pe nc
cs=0023  ss=002b  ds=002b  es=002b  fs=0053  gs=002b             efl=00000246
ws7v6!Exceptionloginitialization$qqrv+0x504d5:
006736d9 749f            je      ws7v6!Exceptionloginitialization$qqrv+0x50476 (0067367a) [br=1]
 # ChildEBP RetAddr      Args to Child              
WARNING: Stack unwind information not available. Following frames may be wrong.
00 0164dc9c 0067850d     000004e4 0164e750 006268cf ws7v6!Exceptionloginitialization$qqrv+0x504c8
01 0164dce8 005df093     089ac406 00000057 089abf30 ws7v6!Exceptionloginitialization$qqrv+0x55309
02 0164e75c 005e06f3     00000000 089ac406 00000057 ws7v6!FupeditorfFinalize+0xb83
eax=089e1370 ebx=00c075b8 ecx=12302070 edx=089dc2b0 esi=0164cc98 edi=00000007
eip=006736cc esp=0164cc68 ebp=0164dc9c iopl=0         nv up ei pl zr na pe nc
cs=0023  ss=002b  ds=002b  es=002b  fs=0053  gs=002b             efl=00000246
ws7v6!Exceptionloginitialization$qqrv+0x504c8:
006736cc 5b              pop     ebx
 # ChildEBP RetAddr      Args to Child              
WARNING: Stack unwind information not available. Following frames may be wrong.
00 0164dce8 005df0c2     089ac406 00000057 089abf30 ws7v6!Exceptionloginitialization$qqrv+0x50855
01 0164e75c 005e06f3     00000000 089ac406 00000057 ws7v6!FupeditorfFinalize+0xbb2
02 0164e7e0 005e08c3     00008195 089abf30 0164e9e8 ws7v6!FupeditorfFinalize+0x21e3
eax=00000100 ebx=00c075b8 ecx=089e1370 edx=089dc2b0 esi=00000002 edi=0164e01c
eip=00673a59 esp=0164dcc8 ebp=0164dce8 iopl=0         nv up ei pl zr na pe nc
cs=0023  ss=002b  ds=002b  es=002b  fs=0053  gs=002b             efl=00000246
ws7v6!Exceptionloginitialization$qqrv+0x50855:
00673a59 7494            je      ws7v6!Exceptionloginitialization$qqrv+0x507eb (006739ef) [br=1]
 # ChildEBP RetAddr      Args to Child              
WARNING: Stack unwind information not available. Following frames may be wrong.
00 0164dce8 005df0c2     089ac406 00000057 089abf30 ws7v6!Exceptionloginitialization$qqrv+0x5081a
01 0164e75c 005e06f3     00000000 089ac406 00000057 ws7v6!FupeditorfFinalize+0xbb2
02 0164e7e0 005e08c3     00008195 089abf30 0164e9e8 ws7v6!FupeditorfFinalize+0x21e3
eax=00000001 ebx=00c075b8 ecx=12302070 edx=089dc2b0 esi=00000002 edi=0164e01c
eip=00673a1e esp=0164dcc8 ebp=0164dce8 iopl=0         nv up ei pl zr na pe nc
cs=0023  ss=002b  ds=002b  es=002b  fs=0053  gs=002b             efl=00000246
ws7v6!Exceptionloginitialization$qqrv+0x5081a:
00673a1e 31c0            xor     eax,eax
 # ChildEBP RetAddr      Args to Child              
WARNING: Stack unwind information not available. Following frames may be wrong.
00 0164d9ac 00679fea     0164d9bc 007a6208 00000000 ws7v6!Exceptionloginitialization$qqrv+0x50855
01 0164d9e4 007a66e6     00000001 085248d0 007a6fd0 ws7v6!Exceptionloginitialization$qqrv+0x56de6
02 0164da3c 007aa867     0164da64 007aa8a4 0164da58 ws7v6!Shdocvw_ocxFinalize+0x3ce12
eax=00000100 ebx=00c075b8 ecx=0856ac20 edx=085641a0 esi=0079cdb0 edi=00000000
eip=00673a59 esp=0164d964 ebp=0164d9ac iopl=0         nv up ei pl zr na pe nc
cs=0023  ss=002b  ds=002b  es=002b  fs=0053  gs=002b             efl=00000246
ws7v6!Exceptionloginitialization$qqrv+0x50855:
00673a59 7494            je      ws7v6!Exceptionloginitialization$qqrv+0x507eb (006739ef) [br=1]
 # ChildEBP RetAddr      Args to Child              
WARNING: Stack unwind information not available. Following frames may be wrong.
00 0164d9ac 00679fea     0164d9bc 007a6208 00000000 ws7v6!Exceptionloginitialization$qqrv+0x5081a
01 0164d9e4 007a66e6     00000001 085248d0 007a6fd0 ws7v6!Exceptionloginitialization$qqrv+0x56de6
02 0164da3c 007aa867     0164da64 007aa8a4 0164da58 ws7v6!Shdocvw_ocxFinalize+0x3ce12
eax=00000001 ebx=00c075b8 ecx=089dc2b0 edx=085641a0 esi=0079cdb0 edi=00000000
eip=00673a1e esp=0164d964 ebp=0164d9ac iopl=0         nv up ei pl zr na pe nc
cs=0023  ss=002b  ds=002b  es=002b  fs=0053  gs=002b             efl=00000246
ws7v6!Exceptionloginitialization$qqrv+0x5081a:
00673a1e 31c0            xor     eax,eax
 # ChildEBP RetAddr      Args to Child              
WARNING: Stack unwind information not available. Following frames may be wrong.
00 0164d964 00679fea     0164d974 007a5f92 00000001 ws7v6!Exceptionloginitialization$qqrv+0x504d5
01 0164d9b0 007a62c0     00000011 0164d9e4 00000001 ws7v6!Exceptionloginitialization$qqrv+0x56de6
02 0164d9e4 007a66e6     00000001 085248d0 007a6fd0 ws7v6!Shdocvw_ocxFinalize+0x3c9ec
eax=00000100 ebx=00c075b8 ecx=00000001 edx=00000003 esi=00000000 edi=00000001
eip=006736d9 esp=0164d924 ebp=0164d964 iopl=0         nv up ei pl zr na pe nc
cs=0023  ss=002b  ds=002b  es=002b  fs=0053  gs=002b             efl=00000246
ws7v6!Exceptionloginitialization$qqrv+0x504d5:
006736d9 749f            je      ws7v6!Exceptionloginitialization$qqrv+0x50476 (0067367a) [br=1]
 # ChildEBP RetAddr      Args to Child              
WARNING: Stack unwind information not available. Following frames may be wrong.
00 0164d964 00679fea     0164d974 007a5f92 00000001 ws7v6!Exceptionloginitialization$qqrv+0x504c8
01 0164d9b0 007a62c0     00000011 0164d9e4 00000001 ws7v6!Exceptionloginitialization$qqrv+0x56de6
02 0164d9e4 007a66e6     00000001 085248d0 007a6fd0 ws7v6!Shdocvw_ocxFinalize+0x3c9ec
eax=0856ac20 ebx=00c075b8 ecx=089dc2b0 edx=085641a0 esi=00000000 edi=00000001
eip=006736cc esp=0164d924 ebp=0164d964 iopl=0         nv up ei pl zr na pe nc
cs=0023  ss=002b  ds=002b  es=002b  fs=0053  gs=002b             efl=00000246
ws7v6!Exceptionloginitialization$qqrv+0x504c8:
006736cc 5b              pop     ebx
 # ChildEBP RetAddr      Args to Child              
WARNING: Stack unwind information not available. Following frames may be wrong.
00 0164d42c 0079b906     00000000 ffffffff 0856ac28 ws7v6!Exceptionloginitialization$qqrv+0x504d5
01 0164d450 007a5a8d     08453d84 00000000 ffffffff ws7v6!Shdocvw_ocxFinalize+0x32032
02 0164d4bc 00720093     0164d4d0 007200ae 0164d538 ws7v6!Shdocvw_ocxFinalize+0x3c1b9
eax=00000100 ebx=00c075b8 ecx=12253001 edx=00000003 esi=12253028 edi=11921f50
eip=006736d9 esp=0164d344 ebp=0164d42c iopl=0         nv up ei pl zr na pe nc
cs=0023  ss=002b  ds=002b  es=002b  fs=0053  gs=002b             efl=00000246
ws7v6!Exceptionloginitialization$qqrv+0x504d5:
006736d9 749f            je      ws7v6!Exceptionloginitialization$qqrv+0x50476 (0067367a) [br=1]
 # ChildEBP RetAddr      Args to Child              
WARNING: Stack unwind information not available. Following frames may be wrong.
00 0164d42c 0079b906     00000000 ffffffff 0856ac28 ws7v6!Exceptionloginitialization$qqrv+0x504c8
01 0164d450 007a5a8d     08453d84 00000000 ffffffff ws7v6!Shdocvw_ocxFinalize+0x32032
02 0164d4bc 00720093     0164d4d0 007200ae 0164d538 ws7v6!Shdocvw_ocxFinalize+0x3c1b9
eax=089e1370 ebx=00c075b8 ecx=12302070 edx=089dc2b0 esi=12253028 edi=11921f50
eip=006736cc esp=0164d344 ebp=0164d42c iopl=0         nv up ei pl zr na pe nc
cs=0023  ss=002b  ds=002b  es=002b  fs=0053  gs=002b             efl=00000246
ws7v6!Exceptionloginitialization$qqrv+0x504c8:
006736cc 5b              pop     ebx
 # ChildEBP RetAddr      Args to Child              
WARNING: Stack unwind information not available. Following frames may be wrong.
00 0164d42c 0079b906     00000000 ffffffff 0856ac28 ws7v6!Exceptionloginitialization$qqrv+0x50855
01 0164d450 007a5a8d     08453d84 00000000 ffffffff ws7v6!Shdocvw_ocxFinalize+0x32032
02 0164d4bc 00720093     0164d4d0 007200ae 0164d538 ws7v6!Shdocvw_ocxFinalize+0x3c1b9
eax=00000100 ebx=00c075b8 ecx=089e1370 edx=089dc2b0 esi=089e1370 edi=0856ac28
eip=00673a59 esp=0164d374 ebp=0164d42c iopl=0         nv up ei pl zr na pe nc
cs=0023  ss=002b  ds=002b  es=002b  fs=0053  gs=002b             efl=00000246
ws7v6!Exceptionloginitialization$qqrv+0x50855:
00673a59 7494            je      ws7v6!Exceptionloginitialization$qqrv+0x507eb (006739ef) [br=1]
 # ChildEBP RetAddr      Args to Child              
WARNING: Stack unwind information not available. Following frames may be wrong.
00 0164d42c 0079b906     00000000 ffffffff 0856ac28 ws7v6!Exceptionloginitialization$qqrv+0x5081a
01 0164d450 007a5a8d     08453d84 00000000 ffffffff ws7v6!Shdocvw_ocxFinalize+0x32032
02 0164d4bc 00720093     0164d4d0 007200ae 0164d538 ws7v6!Shdocvw_ocxFinalize+0x3c1b9
eax=00000001 ebx=00c075b8 ecx=12302070 edx=089dc2b0 esi=089e1370 edi=0856ac28
eip=00673a1e esp=0164d374 ebp=0164d42c iopl=0         nv up ei pl zr na pe nc
cs=0023  ss=002b  ds=002b  es=002b  fs=0053  gs=002b             efl=00000246
ws7v6!Exceptionloginitialization$qqrv+0x5081a:
00673a1e 31c0            xor     eax,eax
 # ChildEBP RetAddr      Args to Child              
WARNING: Stack unwind information not available. Following frames may be wrong.
00 0164e664 0067850d     000004e4 0164e744 006268cf ws7v6!Exceptionloginitialization$qqrv+0x504d5
01 0164e6b0 005df37d     086f4dd0 00000005 089abf30 ws7v6!Exceptionloginitialization$qqrv+0x55309
02 0164e750 005e0553     00500000 3910cccd 0000000f ws7v6!FupeditorfFinalize+0xe6d
eax=00000100 ebx=00c075b8 ecx=00000001 edx=00000003 esi=0164d660 edi=00000007
eip=006736d9 esp=0164d630 ebp=0164e664 iopl=0         nv up ei pl zr na pe nc
cs=0023  ss=002b  ds=002b  es=002b  fs=0053  gs=002b             efl=00000246
ws7v6!Exceptionloginitialization$qqrv+0x504d5:
006736d9 749f            je      ws7v6!Exceptionloginitialization$qqrv+0x50476 (0067367a) [br=1]
 # ChildEBP RetAddr      Args to Child              
WARNING: Stack unwind information not available. Following frames may be wrong.
00 0164e664 0067850d     000004e4 0164e744 006268cf ws7v6!Exceptionloginitialization$qqrv+0x504c8
01 0164e6b0 005df37d     086f4dd0 00000005 089abf30 ws7v6!Exceptionloginitialization$qqrv+0x55309
02 0164e750 005e0553     00500000 3910cccd 0000000f ws7v6!FupeditorfFinalize+0xe6d
eax=089e1370 ebx=00c075b8 ecx=12302070 edx=089dc2b0 esi=0164d660 edi=00000007
eip=006736cc esp=0164d630 ebp=0164e664 iopl=0         nv up ei pl zr na pe nc
cs=0023  ss=002b  ds=002b  es=002b  fs=0053  gs=002b             efl=00000246
ws7v6!Exceptionloginitialization$qqrv+0x504c8:
006736cc 5b              pop     ebx
 # ChildEBP RetAddr      Args to Child              
WARNING: Stack unwind information not available. Following frames may be wrong.
00 0164e6b0 005df3a3     086f4dd0 00000005 089abf30 ws7v6!Exceptionloginitialization$qqrv+0x50855
01 0164e750 005e0553     00500000 3910cccd 0000000f ws7v6!FupeditorfFinalize+0xe93
02 0164e7e0 005e08c3     00008195 089abf30 0164e9e8 ws7v6!FupeditorfFinalize+0x2043
eax=00000100 ebx=00c075b8 ecx=089e1370 edx=089dc2b0 esi=00000002 edi=0070ba38
eip=00673a59 esp=0164e690 ebp=0164e6b0 iopl=0         nv up ei pl zr na pe nc
cs=0023  ss=002b  ds=002b  es=002b  fs=0053  gs=002b             efl=00000246
ws7v6!Exceptionloginitialization$qqrv+0x50855:
00673a59 7494            je      ws7v6!Exceptionloginitialization$qqrv+0x507eb (006739ef) [br=1]
 # ChildEBP RetAddr      Args to Child              
WARNING: Stack unwind information not available. Following frames may be wrong.
00 0164e6b0 005df3a3     086f4dd0 00000005 089abf30 ws7v6!Exceptionloginitialization$qqrv+0x5081a
01 0164e750 005e0553     00500000 3910cccd 0000000f ws7v6!FupeditorfFinalize+0xe93
02 0164e7e0 005e08c3     00008195 089abf30 0164e9e8 ws7v6!FupeditorfFinalize+0x2043
eax=00000001 ebx=00c075b8 ecx=12302070 edx=089dc2b0 esi=00000002 edi=0070ba38
eip=00673a1e esp=0164e690 ebp=0164e6b0 iopl=0         nv up ei pl zr na pe nc
cs=0023  ss=002b  ds=002b  es=002b  fs=0053  gs=002b             efl=00000246
ws7v6!Exceptionloginitialization$qqrv+0x5081a:
00673a1e 31c0            xor     eax,eax
 # ChildEBP RetAddr      Args to Child              
WARNING: Stack unwind information not available. Following frames may be wrong.
00 0164e664 0067850d     000004e4 0164e740 006268cf ws7v6!Exceptionloginitialization$qqrv+0x504d5
01 0164e6b0 005df3d4     086f4dd0 00000005 089abf30 ws7v6!Exceptionloginitialization$qqrv+0x55309
02 0164e750 005e0553     00500000 3910cccd 0000000f ws7v6!FupeditorfFinalize+0xec4
eax=00000100 ebx=00c075b8 ecx=00000001 edx=00000003 esi=0164d660 edi=00000005
eip=006736d9 esp=0164d630 ebp=0164e664 iopl=0         nv up ei pl zr na pe nc
cs=0023  ss=002b  ds=002b  es=002b  fs=0053  gs=002b             efl=00000246
ws7v6!Exceptionloginitialization$qqrv+0x504d5:
006736d9 749f            je      ws7v6!Exceptionloginitialization$qqrv+0x50476 (0067367a) [br=1]
 # ChildEBP RetAddr      Args to Child              
WARNING: Stack unwind information not available. Following frames may be wrong.
00 0164e664 0067850d     000004e4 0164e740 006268cf ws7v6!Exceptionloginitialization$qqrv+0x504c8
01 0164e6b0 005df3d4     086f4dd0 00000005 089abf30 ws7v6!Exceptionloginitialization$qqrv+0x55309
02 0164e750 005e0553     00500000 3910cccd 0000000f ws7v6!FupeditorfFinalize+0xec4
eax=089e1370 ebx=00c075b8 ecx=12302070 edx=089dc2b0 esi=0164d660 edi=00000005
eip=006736cc esp=0164d630 ebp=0164e664 iopl=0         nv up ei pl zr na pe nc
cs=0023  ss=002b  ds=002b  es=002b  fs=0053  gs=002b             efl=00000246
ws7v6!Exceptionloginitialization$qqrv+0x504c8:
006736cc 5b              pop     ebx
 # ChildEBP RetAddr      Args to Child              
WARNING: Stack unwind information not available. Following frames may be wrong.
00 0164e6b0 005df3fa     086f4dd0 00000005 089abf30 ws7v6!Exceptionloginitialization$qqrv+0x50855
01 0164e750 005e0553     00500000 3910cccd 0000000f ws7v6!FupeditorfFinalize+0xeea
02 0164e7e0 005e08c3     00008195 089abf30 0164e9e8 ws7v6!FupeditorfFinalize+0x2043
eax=00000100 ebx=00c075b8 ecx=089e1370 edx=089dc2b0 esi=00000002 edi=0070ba38
eip=00673a59 esp=0164e690 ebp=0164e6b0 iopl=0         nv up ei pl zr na pe nc
cs=0023  ss=002b  ds=002b  es=002b  fs=0053  gs=002b             efl=00000246
ws7v6!Exceptionloginitialization$qqrv+0x50855:
00673a59 7494            je      ws7v6!Exceptionloginitialization$qqrv+0x507eb (006739ef) [br=1]
 # ChildEBP RetAddr      Args to Child              
WARNING: Stack unwind information not available. Following frames may be wrong.
00 0164e6b0 005df3fa     086f4dd0 00000005 089abf30 ws7v6!Exceptionloginitialization$qqrv+0x5081a
01 0164e750 005e0553     00500000 3910cccd 0000000f ws7v6!FupeditorfFinalize+0xeea
02 0164e7e0 005e08c3     00008195 089abf30 0164e9e8 ws7v6!FupeditorfFinalize+0x2043
eax=00000001 ebx=00c075b8 ecx=12302070 edx=089dc2b0 esi=00000002 edi=0070ba38
eip=00673a1e esp=0164e690 ebp=0164e6b0 iopl=0         nv up ei pl zr na pe nc
cs=0023  ss=002b  ds=002b  es=002b  fs=0053  gs=002b             efl=00000246
ws7v6!Exceptionloginitialization$qqrv+0x5081a:
00673a1e 31c0            xor     eax,eax
 # ChildEBP RetAddr      Args to Child              
WARNING: Stack unwind information not available. Following frames may be wrong.
00 0164e664 0067850d     000004e4 0164e73c 006268cf ws7v6!Exceptionloginitialization$qqrv+0x504d5
01 0164e6b0 005df44e     086f4dd0 00000005 089abf30 ws7v6!Exceptionloginitialization$qqrv+0x55309
02 0164e750 005e0553     00500000 3910cccd 0000000f ws7v6!FupeditorfFinalize+0xf3e
eax=00000100 ebx=00c075b8 ecx=00000001 edx=00000003 esi=0164d660 edi=00000007
eip=006736d9 esp=0164d630 ebp=0164e664 iopl=0         nv up ei pl zr na pe nc
cs=0023  ss=002b  ds=002b  es=002b  fs=0053  gs=002b             efl=00000246
ws7v6!Exceptionloginitialization$qqrv+0x504d5:
006736d9 749f            je      ws7v6!Exceptionloginitialization$qqrv+0x50476 (0067367a) [br=1]
 # ChildEBP RetAddr      Args to Child              
WARNING: Stack unwind information not available. Following frames may be wrong.
00 0164e664 0067850d     000004e4 0164e73c 006268cf ws7v6!Exceptionloginitialization$qqrv+0x504c8
01 0164e6b0 005df44e     086f4dd0 00000005 089abf30 ws7v6!Exceptionloginitialization$qqrv+0x55309
02 0164e750 005e0553     00500000 3910cccd 0000000f ws7v6!FupeditorfFinalize+0xf3e
eax=089e1370 ebx=00c075b8 ecx=12302070 edx=089dc2b0 esi=0164d660 edi=00000007
eip=006736cc esp=0164d630 ebp=0164e664 iopl=0         nv up ei pl zr na pe nc
cs=0023  ss=002b  ds=002b  es=002b  fs=0053  gs=002b             efl=00000246
ws7v6!Exceptionloginitialization$qqrv+0x504c8:
006736cc 5b              pop     ebx
 # ChildEBP RetAddr      Args to Child              
WARNING: Stack unwind information not available. Following frames may be wrong.
00 0164e6b0 005df474     086f4dd0 00000005 089abf30 ws7v6!Exceptionloginitialization$qqrv+0x50855
01 0164e750 005e0553     00500000 3910cccd 0000000f ws7v6!FupeditorfFinalize+0xf64
02 0164e7e0 005e08c3     00008195 089abf30 0164e9e8 ws7v6!FupeditorfFinalize+0x2043
eax=00000100 ebx=00c075b8 ecx=089e1370 edx=089dc2b0 esi=00000002 edi=0070ba38
eip=00673a59 esp=0164e690 ebp=0164e6b0 iopl=0         nv up ei pl zr na pe nc
cs=0023  ss=002b  ds=002b  es=002b  fs=0053  gs=002b             efl=00000246
ws7v6!Exceptionloginitialization$qqrv+0x50855:
00673a59 7494            je      ws7v6!Exceptionloginitialization$qqrv+0x507eb (006739ef) [br=1]
 # ChildEBP RetAddr      Args to Child              
WARNING: Stack unwind information not available. Following frames may be wrong.
00 0164e6b0 005df474     086f4dd0 00000005 089abf30 ws7v6!Exceptionloginitialization$qqrv+0x5081a
01 0164e750 005e0553     00500000 3910cccd 0000000f ws7v6!FupeditorfFinalize+0xf64
02 0164e7e0 005e08c3     00008195 089abf30 0164e9e8 ws7v6!FupeditorfFinalize+0x2043
eax=00000001 ebx=00c075b8 ecx=12302070 edx=089dc2b0 esi=00000002 edi=0070ba38
eip=00673a1e esp=0164e690 ebp=0164e6b0 iopl=0         nv up ei pl zr na pe nc
cs=0023  ss=002b  ds=002b  es=002b  fs=0053  gs=002b             efl=00000246
ws7v6!Exceptionloginitialization$qqrv+0x5081a:
00673a1e 31c0            xor     eax,eax
 # ChildEBP RetAddr      Args to Child              
WARNING: Stack unwind information not available. Following frames may be wrong.
00 0164dc9c 0067850d     000004e4 0164e758 006268cf ws7v6!Exceptionloginitialization$qqrv+0x504d5
01 0164dce8 005defce     089ac406 00000057 089abf30 ws7v6!Exceptionloginitialization$qqrv+0x55309
02 0164e75c 005e06f3     00000000 089ac406 00000057 ws7v6!FupeditorfFinalize+0xabe
eax=00000100 ebx=00c075b8 ecx=00000001 edx=00000003 esi=0164cc98 edi=00000004
eip=006736d9 esp=0164cc68 ebp=0164dc9c iopl=0         nv up ei pl zr na pe nc
cs=0023  ss=002b  ds=002b  es=002b  fs=0053  gs=002b             efl=00000246
ws7v6!Exceptionloginitialization$qqrv+0x504d5:
006736d9 749f            je      ws7v6!Exceptionloginitialization$qqrv+0x50476 (0067367a) [br=1]
 # ChildEBP RetAddr      Args to Child              
WARNING: Stack unwind information not available. Following frames may be wrong.
00 0164dc9c 0067850d     000004e4 0164e758 006268cf ws7v6!Exceptionloginitialization$qqrv+0x504c8
01 0164dce8 005defce     089ac406 00000057 089abf30 ws7v6!Exceptionloginitialization$qqrv+0x55309
02 0164e75c 005e06f3     00000000 089ac406 00000057 ws7v6!FupeditorfFinalize+0xabe
eax=089e1370 ebx=00c075b8 ecx=12302070 edx=089dc2b0 esi=0164cc98 edi=00000004
eip=006736cc esp=0164cc68 ebp=0164dc9c iopl=0         nv up ei pl zr na pe nc
cs=0023  ss=002b  ds=002b  es=002b  fs=0053  gs=002b             efl=00000246
ws7v6!Exceptionloginitialization$qqrv+0x504c8:
006736cc 5b              pop     ebx
 # ChildEBP RetAddr      Args to Child              
WARNING: Stack unwind information not available. Following frames may be wrong.
00 0164dce8 005defed     089ac406 00000057 089abf30 ws7v6!Exceptionloginitialization$qqrv+0x50855
01 0164e75c 005e06f3     00000000 089ac406 00000057 ws7v6!FupeditorfFinalize+0xadd
02 0164e7e0 005e08c3     00008195 089abf30 0164e9e8 ws7v6!FupeditorfFinalize+0x21e3
eax=00000100 ebx=00c075b8 ecx=089e1370 edx=089dc2b0 esi=00000002 edi=0164e01c
eip=00673a59 esp=0164dcc8 ebp=0164dce8 iopl=0         nv up ei pl zr na pe nc
cs=0023  ss=002b  ds=002b  es=002b  fs=0053  gs=002b             efl=00000246
ws7v6!Exceptionloginitialization$qqrv+0x50855:
00673a59 7494            je      ws7v6!Exceptionloginitialization$qqrv+0x507eb (006739ef) [br=1]
 # ChildEBP RetAddr      Args to Child              
WARNING: Stack unwind information not available. Following frames may be wrong.
00 0164dce8 005defed     089ac406 00000057 089abf30 ws7v6!Exceptionloginitialization$qqrv+0x5081a
01 0164e75c 005e06f3     00000000 089ac406 00000057 ws7v6!FupeditorfFinalize+0xadd
02 0164e7e0 005e08c3     00008195 089abf30 0164e9e8 ws7v6!FupeditorfFinalize+0x21e3
eax=00000001 ebx=00c075b8 ecx=12302070 edx=089dc2b0 esi=00000002 edi=0164e01c
eip=00673a1e esp=0164dcc8 ebp=0164dce8 iopl=0         nv up ei pl zr na pe nc
cs=0023  ss=002b  ds=002b  es=002b  fs=0053  gs=002b             efl=00000246
ws7v6!Exceptionloginitialization$qqrv+0x5081a:
00673a1e 31c0            xor     eax,eax
 # ChildEBP RetAddr      Args to Child              
WARNING: Stack unwind information not available. Following frames may be wrong.
00 0164dc9c 0067850d     000004e4 0164e754 006268cf ws7v6!Exceptionloginitialization$qqrv+0x504d5
01 0164dce8 005df024     089ac406 00000057 089abf30 ws7v6!Exceptionloginitialization$qqrv+0x55309
02 0164e75c 005e06f3     00000000 089ac406 00000057 ws7v6!FupeditorfFinalize+0xb14
eax=00000100 ebx=00c075b8 ecx=00000001 edx=00000003 esi=0164cc98 edi=00000004
eip=006736d9 esp=0164cc68 ebp=0164dc9c iopl=0         nv up ei pl zr na pe nc
cs=0023  ss=002b  ds=002b  es=002b  fs=0053  gs=002b             efl=00000246
ws7v6!Exceptionloginitialization$qqrv+0x504d5:
006736d9 749f            je      ws7v6!Exceptionloginitialization$qqrv+0x50476 (0067367a) [br=1]
 # ChildEBP RetAddr      Args to Child              
WARNING: Stack unwind information not available. Following frames may be wrong.
00 0164dc9c 0067850d     000004e4 0164e754 006268cf ws7v6!Exceptionloginitialization$qqrv+0x504c8
01 0164dce8 005df024     089ac406 00000057 089abf30 ws7v6!Exceptionloginitialization$qqrv+0x55309
02 0164e75c 005e06f3     00000000 089ac406 00000057 ws7v6!FupeditorfFinalize+0xb14
eax=089e1370 ebx=00c075b8 ecx=12302070 edx=089dc2b0 esi=0164cc98 edi=00000004
eip=006736cc esp=0164cc68 ebp=0164dc9c iopl=0         nv up ei pl zr na pe nc
cs=0023  ss=002b  ds=002b  es=002b  fs=0053  gs=002b             efl=00000246
ws7v6!Exceptionloginitialization$qqrv+0x504c8:
006736cc 5b              pop     ebx
 # ChildEBP RetAddr      Args to Child              
WARNING: Stack unwind information not available. Following frames may be wrong.
00 0164dce8 005df04b     089ac406 00000057 089abf30 ws7v6!Exceptionloginitialization$qqrv+0x50855
01 0164e75c 005e06f3     00000000 089ac406 00000057 ws7v6!FupeditorfFinalize+0xb3b
02 0164e7e0 005e08c3     00008195 089abf30 0164e9e8 ws7v6!FupeditorfFinalize+0x21e3
eax=00000100 ebx=00c075b8 ecx=089e1370 edx=089dc2b0 esi=00000002 edi=0164e01c
eip=00673a59 esp=0164dcc8 ebp=0164dce8 iopl=0         nv up ei pl zr na pe nc
cs=0023  ss=002b  ds=002b  es=002b  fs=0053  gs=002b             efl=00000246
ws7v6!Exceptionloginitialization$qqrv+0x50855:
00673a59 7494            je      ws7v6!Exceptionloginitialization$qqrv+0x507eb (006739ef) [br=1]
 # ChildEBP RetAddr      Args to Child              
WARNING: Stack unwind information not available. Following frames may be wrong.
00 0164dce8 005df04b     089ac406 00000057 089abf30 ws7v6!Exceptionloginitialization$qqrv+0x5081a
01 0164e75c 005e06f3     00000000 089ac406 00000057 ws7v6!FupeditorfFinalize+0xb3b
02 0164e7e0 005e08c3     00008195 089abf30 0164e9e8 ws7v6!FupeditorfFinalize+0x21e3
eax=00000001 ebx=00c075b8 ecx=12302070 edx=089dc2b0 esi=00000002 edi=0164e01c
eip=00673a1e esp=0164dcc8 ebp=0164dce8 iopl=0         nv up ei pl zr na pe nc
cs=0023  ss=002b  ds=002b  es=002b  fs=0053  gs=002b             efl=00000246
ws7v6!Exceptionloginitialization$qqrv+0x5081a:
00673a1e 31c0            xor     eax,eax
 # ChildEBP RetAddr      Args to Child              
WARNING: Stack unwind information not available. Following frames may be wrong.
00 0164dc9c 0067850d     000004e4 0164e750 006268cf ws7v6!Exceptionloginitialization$qqrv+0x504d5
01 0164dce8 005df093     089ac406 00000057 089abf30 ws7v6!Exceptionloginitialization$qqrv+0x55309
02 0164e75c 005e06f3     00000000 089ac406 00000057 ws7v6!FupeditorfFinalize+0xb83
eax=00000100 ebx=00c075b8 ecx=00000001 edx=00000003 esi=0164cc98 edi=00000007
eip=006736d9 esp=0164cc68 ebp=0164dc9c iopl=0         nv up ei pl zr na pe nc
cs=0023  ss=002b  ds=002b  es=002b  fs=0053  gs=002b             efl=00000246
ws7v6!Exceptionloginitialization$qqrv+0x504d5:
006736d9 749f            je      ws7v6!Exceptionloginitialization$qqrv+0x50476 (0067367a) [br=1]
 # ChildEBP RetAddr      Args to Child              
WARNING: Stack unwind information not available. Following frames may be wrong.
00 0164dc9c 0067850d     000004e4 0164e750 006268cf ws7v6!Exceptionloginitialization$qqrv+0x504c8
01 0164dce8 005df093     089ac406 00000057 089abf30 ws7v6!Exceptionloginitialization$qqrv+0x55309
02 0164e75c 005e06f3     00000000 089ac406 00000057 ws7v6!FupeditorfFinalize+0xb83
eax=089e1370 ebx=00c075b8 ecx=12302070 edx=089dc2b0 esi=0164cc98 edi=00000007
eip=006736cc esp=0164cc68 ebp=0164dc9c iopl=0         nv up ei pl zr na pe nc
cs=0023  ss=002b  ds=002b  es=002b  fs=0053  gs=002b             efl=00000246
ws7v6!Exceptionloginitialization$qqrv+0x504c8:
006736cc 5b              pop     ebx
 # ChildEBP RetAddr      Args to Child              
WARNING: Stack unwind information not available. Following frames may be wrong.
00 0164dce8 005df0c2     089ac406 00000057 089abf30 ws7v6!Exceptionloginitialization$qqrv+0x50855
01 0164e75c 005e06f3     00000000 089ac406 00000057 ws7v6!FupeditorfFinalize+0xbb2
02 0164e7e0 005e08c3     00008195 089abf30 0164e9e8 ws7v6!FupeditorfFinalize+0x21e3
eax=00000100 ebx=00c075b8 ecx=089e1370 edx=089dc2b0 esi=00000002 edi=0164e01c
eip=00673a59 esp=0164dcc8 ebp=0164dce8 iopl=0         nv up ei pl zr na pe nc
cs=0023  ss=002b  ds=002b  es=002b  fs=0053  gs=002b             efl=00000246
ws7v6!Exceptionloginitialization$qqrv+0x50855:
00673a59 7494            je      ws7v6!Exceptionloginitialization$qqrv+0x507eb (006739ef) [br=1]
 # ChildEBP RetAddr      Args to Child              
WARNING: Stack unwind information not available. Following frames may be wrong.
00 0164dce8 005df0c2     089ac406 00000057 089abf30 ws7v6!Exceptionloginitialization$qqrv+0x5081a
01 0164e75c 005e06f3     00000000 089ac406 00000057 ws7v6!FupeditorfFinalize+0xbb2
02 0164e7e0 005e08c3     00008195 089abf30 0164e9e8 ws7v6!FupeditorfFinalize+0x21e3
eax=00000001 ebx=00c075b8 ecx=12302070 edx=089dc2b0 esi=00000002 edi=0164e01c
eip=00673a1e esp=0164dcc8 ebp=0164dce8 iopl=0         nv up ei pl zr na pe nc
cs=0023  ss=002b  ds=002b  es=002b  fs=0053  gs=002b             efl=00000246
ws7v6!Exceptionloginitialization$qqrv+0x5081a:
00673a1e 31c0            xor     eax,eax
 # ChildEBP RetAddr      Args to Child              
WARNING: Stack unwind information not available. Following frames may be wrong.
00 0164e664 0067850d     000004e4 0164e744 006268cf ws7v6!Exceptionloginitialization$qqrv+0x504d5
01 0164e6b0 005df37d     086f4dd0 00000005 089abf30 ws7v6!Exceptionloginitialization$qqrv+0x55309
02 0164e750 005e0553     00500000 3910cccd 0000000f ws7v6!FupeditorfFinalize+0xe6d
eax=00000100 ebx=00c075b8 ecx=00000001 edx=00000003 esi=0164d660 edi=00000007
eip=006736d9 esp=0164d630 ebp=0164e664 iopl=0         nv up ei pl zr na pe nc
cs=0023  ss=002b  ds=002b  es=002b  fs=0053  gs=002b             efl=00000246
ws7v6!Exceptionloginitialization$qqrv+0x504d5:
006736d9 749f            je      ws7v6!Exceptionloginitialization$qqrv+0x50476 (0067367a) [br=1]
 # ChildEBP RetAddr      Args to Child              
WARNING: Stack unwind information not available. Following frames may be wrong.
00 0164e664 0067850d     000004e4 0164e744 006268cf ws7v6!Exceptionloginitialization$qqrv+0x504c8
01 0164e6b0 005df37d     086f4dd0 00000005 089abf30 ws7v6!Exceptionloginitialization$qqrv+0x55309
02 0164e750 005e0553     00500000 3910cccd 0000000f ws7v6!FupeditorfFinalize+0xe6d
eax=089e1370 ebx=00c075b8 ecx=12302070 edx=089dc2b0 esi=0164d660 edi=00000007
eip=006736cc esp=0164d630 ebp=0164e664 iopl=0         nv up ei pl zr na pe nc
cs=0023  ss=002b  ds=002b  es=002b  fs=0053  gs=002b             efl=00000246
ws7v6!Exceptionloginitialization$qqrv+0x504c8:
006736cc 5b              pop     ebx
 # ChildEBP RetAddr      Args to Child              
WARNING: Stack unwind information not available. Following frames may be wrong.
00 0164e6b0 005df3a3     086f4dd0 00000005 089abf30 ws7v6!Exceptionloginitialization$qqrv+0x50855
01 0164e750 005e0553     00500000 3910cccd 0000000f ws7v6!FupeditorfFinalize+0xe93
02 0164e7e0 005e08c3     00008195 089abf30 0164e9e8 ws7v6!FupeditorfFinalize+0x2043
eax=00000100 ebx=00c075b8 ecx=089e1370 edx=089dc2b0 esi=00000002 edi=0070ba38
eip=00673a59 esp=0164e690 ebp=0164e6b0 iopl=0         nv up ei pl zr na pe nc
cs=0023  ss=002b  ds=002b  es=002b  fs=0053  gs=002b             efl=00000246
ws7v6!Exceptionloginitialization$qqrv+0x50855:
00673a59 7494            je      ws7v6!Exceptionloginitialization$qqrv+0x507eb (006739ef) [br=1]
 # ChildEBP RetAddr      Args to Child              
WARNING: Stack unwind information not available. Following frames may be wrong.
00 0164e6b0 005df3a3     086f4dd0 00000005 089abf30 ws7v6!Exceptionloginitialization$qqrv+0x5081a
01 0164e750 005e0553     00500000 3910cccd 0000000f ws7v6!FupeditorfFinalize+0xe93
02 0164e7e0 005e08c3     00008195 089abf30 0164e9e8 ws7v6!FupeditorfFinalize+0x2043
eax=00000001 ebx=00c075b8 ecx=12302070 edx=089dc2b0 esi=00000002 edi=0070ba38
eip=00673a1e esp=0164e690 ebp=0164e6b0 iopl=0         nv up ei pl zr na pe nc
cs=0023  ss=002b  ds=002b  es=002b  fs=0053  gs=002b             efl=00000246
ws7v6!Exceptionloginitialization$qqrv+0x5081a:
00673a1e 31c0            xor     eax,eax
 # ChildEBP RetAddr      Args to Child              
WARNING: Stack unwind information not available. Following frames may be wrong.
00 0164e664 0067850d     000004e4 0164e740 006268cf ws7v6!Exceptionloginitialization$qqrv+0x504d5
01 0164e6b0 005df3d4     086f4dd0 00000005 089abf30 ws7v6!Exceptionloginitialization$qqrv+0x55309
02 0164e750 005e0553     00500000 3910cccd 0000000f ws7v6!FupeditorfFinalize+0xec4
eax=00000100 ebx=00c075b8 ecx=00000001 edx=00000003 esi=0164d660 edi=00000005
eip=006736d9 esp=0164d630 ebp=0164e664 iopl=0         nv up ei pl zr na pe nc
cs=0023  ss=002b  ds=002b  es=002b  fs=0053  gs=002b             efl=00000246
ws7v6!Exceptionloginitialization$qqrv+0x504d5:
006736d9 749f            je      ws7v6!Exceptionloginitialization$qqrv+0x50476 (0067367a) [br=1]
 # ChildEBP RetAddr      Args to Child              
WARNING: Stack unwind information not available. Following frames may be wrong.
00 0164e664 0067850d     000004e4 0164e740 006268cf ws7v6!Exceptionloginitialization$qqrv+0x504c8
01 0164e6b0 005df3d4     086f4dd0 00000005 089abf30 ws7v6!Exceptionloginitialization$qqrv+0x55309
02 0164e750 005e0553     00500000 3910cccd 0000000f ws7v6!FupeditorfFinalize+0xec4
eax=089e1370 ebx=00c075b8 ecx=12302070 edx=089dc2b0 esi=0164d660 edi=00000005
eip=006736cc esp=0164d630 ebp=0164e664 iopl=0         nv up ei pl zr na pe nc
cs=0023  ss=002b  ds=002b  es=002b  fs=0053  gs=002b             efl=00000246
ws7v6!Exceptionloginitialization$qqrv+0x504c8:
006736cc 5b              pop     ebx
 # ChildEBP RetAddr      Args to Child              
WARNING: Stack unwind information not available. Following frames may be wrong.
00 0164e6b0 005df3fa     086f4dd0 00000005 089abf30 ws7v6!Exceptionloginitialization$qqrv+0x50855
01 0164e750 005e0553     00500000 3910cccd 0000000f ws7v6!FupeditorfFinalize+0xeea
02 0164e7e0 005e08c3     00008195 089abf30 0164e9e8 ws7v6!FupeditorfFinalize+0x2043
eax=00000100 ebx=00c075b8 ecx=089e1370 edx=089dc2b0 esi=00000002 edi=0070ba38
eip=00673a59 esp=0164e690 ebp=0164e6b0 iopl=0         nv up ei pl zr na pe nc
cs=0023  ss=002b  ds=002b  es=002b  fs=0053  gs=002b             efl=00000246
ws7v6!Exceptionloginitialization$qqrv+0x50855:
00673a59 7494            je      ws7v6!Exceptionloginitialization$qqrv+0x507eb (006739ef) [br=1]
 # ChildEBP RetAddr      Args to Child              
WARNING: Stack unwind information not available. Following frames may be wrong.
00 0164e6b0 005df3fa     086f4dd0 00000005 089abf30 ws7v6!Exceptionloginitialization$qqrv+0x5081a
01 0164e750 005e0553     00500000 3910cccd 0000000f ws7v6!FupeditorfFinalize+0xeea
02 0164e7e0 005e08c3     00008195 089abf30 0164e9e8 ws7v6!FupeditorfFinalize+0x2043
eax=00000001 ebx=00c075b8 ecx=12302070 edx=089dc2b0 esi=00000002 edi=0070ba38
eip=00673a1e esp=0164e690 ebp=0164e6b0 iopl=0         nv up ei pl zr na pe nc
cs=0023  ss=002b  ds=002b  es=002b  fs=0053  gs=002b             efl=00000246
ws7v6!Exceptionloginitialization$qqrv+0x5081a:
00673a1e 31c0            xor     eax,eax
 # ChildEBP RetAddr      Args to Child              
WARNING: Stack unwind information not available. Following frames may be wrong.
00 0164e664 0067850d     000004e4 0164e73c 006268cf ws7v6!Exceptionloginitialization$qqrv+0x504d5
01 0164e6b0 005df44e     086f4dd0 00000005 089abf30 ws7v6!Exceptionloginitialization$qqrv+0x55309
02 0164e750 005e0553     00500000 3910cccd 0000000f ws7v6!FupeditorfFinalize+0xf3e
eax=00000100 ebx=00c075b8 ecx=00000001 edx=00000003 esi=0164d660 edi=00000007
eip=006736d9 esp=0164d630 ebp=0164e664 iopl=0         nv up ei pl zr na pe nc
cs=0023  ss=002b  ds=002b  es=002b  fs=0053  gs=002b             efl=00000246
ws7v6!Exceptionloginitialization$qqrv+0x504d5:
006736d9 749f            je      ws7v6!Exceptionloginitialization$qqrv+0x50476 (0067367a) [br=1]
 # ChildEBP RetAddr      Args to Child              
WARNING: Stack unwind information not available. Following frames may be wrong.
00 0164e664 0067850d     000004e4 0164e73c 006268cf ws7v6!Exceptionloginitialization$qqrv+0x504c8
01 0164e6b0 005df44e     086f4dd0 00000005 089abf30 ws7v6!Exceptionloginitialization$qqrv+0x55309
02 0164e750 005e0553     00500000 3910cccd 0000000f ws7v6!FupeditorfFinalize+0xf3e
eax=089e1370 ebx=00c075b8 ecx=12302070 edx=089dc2b0 esi=0164d660 edi=00000007
eip=006736cc esp=0164d630 ebp=0164e664 iopl=0         nv up ei pl zr na pe nc
cs=0023  ss=002b  ds=002b  es=002b  fs=0053  gs=002b             efl=00000246
ws7v6!Exceptionloginitialization$qqrv+0x504c8:
006736cc 5b              pop     ebx
 # ChildEBP RetAddr      Args to Child              
WARNING: Stack unwind information not available. Following frames may be wrong.
00 0164e6b0 005df474     086f4dd0 00000005 089abf30 ws7v6!Exceptionloginitialization$qqrv+0x50855
01 0164e750 005e0553     00500000 3910cccd 0000000f ws7v6!FupeditorfFinalize+0xf64
02 0164e7e0 005e08c3     00008195 089abf30 0164e9e8 ws7v6!FupeditorfFinalize+0x2043
eax=00000100 ebx=00c075b8 ecx=089e1370 edx=089dc2b0 esi=00000002 edi=0070ba38
eip=00673a59 esp=0164e690 ebp=0164e6b0 iopl=0         nv up ei pl zr na pe nc
cs=0023  ss=002b  ds=002b  es=002b  fs=0053  gs=002b             efl=00000246
ws7v6!Exceptionloginitialization$qqrv+0x50855:
00673a59 7494            je      ws7v6!Exceptionloginitialization$qqrv+0x507eb (006739ef) [br=1]
 # ChildEBP RetAddr      Args to Child              
WARNING: Stack unwind information not available. Following frames may be wrong.
00 0164e6b0 005df474     086f4dd0 00000005 089abf30 ws7v6!Exceptionloginitialization$qqrv+0x5081a
01 0164e750 005e0553     00500000 3910cccd 0000000f ws7v6!FupeditorfFinalize+0xf64
02 0164e7e0 005e08c3     00008195 089abf30 0164e9e8 ws7v6!FupeditorfFinalize+0x2043
eax=00000001 ebx=00c075b8 ecx=12302070 edx=089dc2b0 esi=00000002 edi=0070ba38
eip=00673a1e esp=0164e690 ebp=0164e6b0 iopl=0         nv up ei pl zr na pe nc
cs=0023  ss=002b  ds=002b  es=002b  fs=0053  gs=002b             efl=00000246
ws7v6!Exceptionloginitialization$qqrv+0x5081a:
00673a1e 31c0            xor     eax,eax
 # ChildEBP RetAddr      Args to Child              
WARNING: Stack unwind information not available. Following frames may be wrong.
00 0164dc9c 0067850d     000004e4 0164e758 006268cf ws7v6!Exceptionloginitialization$qqrv+0x504d5
01 0164dce8 005defce     089ac406 00000057 089abf30 ws7v6!Exceptionloginitialization$qqrv+0x55309
02 0164e75c 005e06f3     00000000 089ac406 00000057 ws7v6!FupeditorfFinalize+0xabe
eax=00000100 ebx=00c075b8 ecx=00000001 edx=00000003 esi=0164cc98 edi=00000004
eip=006736d9 esp=0164cc68 ebp=0164dc9c iopl=0         nv up ei pl zr na pe nc
cs=0023  ss=002b  ds=002b  es=002b  fs=0053  gs=002b             efl=00000246
ws7v6!Exceptionloginitialization$qqrv+0x504d5:
006736d9 749f            je      ws7v6!Exceptionloginitialization$qqrv+0x50476 (0067367a) [br=1]
 # ChildEBP RetAddr      Args to Child              
WARNING: Stack unwind information not available. Following frames may be wrong.
00 0164dc9c 0067850d     000004e4 0164e758 006268cf ws7v6!Exceptionloginitialization$qqrv+0x504c8
01 0164dce8 005defce     089ac406 00000057 089abf30 ws7v6!Exceptionloginitialization$qqrv+0x55309
02 0164e75c 005e06f3     00000000 089ac406 00000057 ws7v6!FupeditorfFinalize+0xabe
eax=089e1370 ebx=00c075b8 ecx=12302070 edx=089dc2b0 esi=0164cc98 edi=00000004
eip=006736cc esp=0164cc68 ebp=0164dc9c iopl=0         nv up ei pl zr na pe nc
cs=0023  ss=002b  ds=002b  es=002b  fs=0053  gs=002b             efl=00000246
ws7v6!Exceptionloginitialization$qqrv+0x504c8:
006736cc 5b              pop     ebx
 # ChildEBP RetAddr      Args to Child              
WARNING: Stack unwind information not available. Following frames may be wrong.
00 0164dce8 005defed     089ac406 00000057 089abf30 ws7v6!Exceptionloginitialization$qqrv+0x50855
01 0164e75c 005e06f3     00000000 089ac406 00000057 ws7v6!FupeditorfFinalize+0xadd
02 0164e7e0 005e08c3     00008195 089abf30 0164e9e8 ws7v6!FupeditorfFinalize+0x21e3
eax=00000100 ebx=00c075b8 ecx=089e1370 edx=089dc2b0 esi=00000002 edi=0164e01c
eip=00673a59 esp=0164dcc8 ebp=0164dce8 iopl=0         nv up ei pl zr na pe nc
cs=0023  ss=002b  ds=002b  es=002b  fs=0053  gs=002b             efl=00000246
ws7v6!Exceptionloginitialization$qqrv+0x50855:
00673a59 7494            je      ws7v6!Exceptionloginitialization$qqrv+0x507eb (006739ef) [br=1]
 # ChildEBP RetAddr      Args to Child              
WARNING: Stack unwind information not available. Following frames may be wrong.
00 0164dce8 005defed     089ac406 00000057 089abf30 ws7v6!Exceptionloginitialization$qqrv+0x5081a
01 0164e75c 005e06f3     00000000 089ac406 00000057 ws7v6!FupeditorfFinalize+0xadd
02 0164e7e0 005e08c3     00008195 089abf30 0164e9e8 ws7v6!FupeditorfFinalize+0x21e3
eax=00000001 ebx=00c075b8 ecx=12302070 edx=089dc2b0 esi=00000002 edi=0164e01c
eip=00673a1e esp=0164dcc8 ebp=0164dce8 iopl=0         nv up ei pl zr na pe nc
cs=0023  ss=002b  ds=002b  es=002b  fs=0053  gs=002b             efl=00000246
ws7v6!Exceptionloginitialization$qqrv+0x5081a:
00673a1e 31c0            xor     eax,eax
 # ChildEBP RetAddr      Args to Child              
WARNING: Stack unwind information not available. Following frames may be wrong.
00 0164dc9c 0067850d     000004e4 0164e754 006268cf ws7v6!Exceptionloginitialization$qqrv+0x504d5
01 0164dce8 005df024     089ac406 00000057 089abf30 ws7v6!Exceptionloginitialization$qqrv+0x55309
02 0164e75c 005e06f3     00000000 089ac406 00000057 ws7v6!FupeditorfFinalize+0xb14
eax=00000100 ebx=00c075b8 ecx=00000001 edx=00000003 esi=0164cc98 edi=00000004
eip=006736d9 esp=0164cc68 ebp=0164dc9c iopl=0         nv up ei pl zr na pe nc
cs=0023  ss=002b  ds=002b  es=002b  fs=0053  gs=002b             efl=00000246
ws7v6!Exceptionloginitialization$qqrv+0x504d5:
006736d9 749f            je      ws7v6!Exceptionloginitialization$qqrv+0x50476 (0067367a) [br=1]
 # ChildEBP RetAddr      Args to Child              
WARNING: Stack unwind information not available. Following frames may be wrong.
00 0164dc9c 0067850d     000004e4 0164e754 006268cf ws7v6!Exceptionloginitialization$qqrv+0x504c8
01 0164dce8 005df024     089ac406 00000057 089abf30 ws7v6!Exceptionloginitialization$qqrv+0x55309
02 0164e75c 005e06f3     00000000 089ac406 00000057 ws7v6!FupeditorfFinalize+0xb14
eax=089e1370 ebx=00c075b8 ecx=12302070 edx=089dc2b0 esi=0164cc98 edi=00000004
eip=006736cc esp=0164cc68 ebp=0164dc9c iopl=0         nv up ei pl zr na pe nc
cs=0023  ss=002b  ds=002b  es=002b  fs=0053  gs=002b             efl=00000246
ws7v6!Exceptionloginitialization$qqrv+0x504c8:
006736cc 5b              pop     ebx
 # ChildEBP RetAddr      Args to Child              
WARNING: Stack unwind information not available. Following frames may be wrong.
00 0164dce8 005df04b     089ac406 00000057 089abf30 ws7v6!Exceptionloginitialization$qqrv+0x50855
01 0164e75c 005e06f3     00000000 089ac406 00000057 ws7v6!FupeditorfFinalize+0xb3b
02 0164e7e0 005e08c3     00008195 089abf30 0164e9e8 ws7v6!FupeditorfFinalize+0x21e3
eax=00000100 ebx=00c075b8 ecx=089e1370 edx=089dc2b0 esi=00000002 edi=0164e01c
eip=00673a59 esp=0164dcc8 ebp=0164dce8 iopl=0         nv up ei pl zr na pe nc
cs=0023  ss=002b  ds=002b  es=002b  fs=0053  gs=002b             efl=00000246
ws7v6!Exceptionloginitialization$qqrv+0x50855:
00673a59 7494            je      ws7v6!Exceptionloginitialization$qqrv+0x507eb (006739ef) [br=1]
 # ChildEBP RetAddr      Args to Child              
WARNING: Stack unwind information not available. Following frames may be wrong.
00 0164dce8 005df04b     089ac406 00000057 089abf30 ws7v6!Exceptionloginitialization$qqrv+0x5081a
01 0164e75c 005e06f3     00000000 089ac406 00000057 ws7v6!FupeditorfFinalize+0xb3b
02 0164e7e0 005e08c3     00008195 089abf30 0164e9e8 ws7v6!FupeditorfFinalize+0x21e3
eax=00000001 ebx=00c075b8 ecx=12302070 edx=089dc2b0 esi=00000002 edi=0164e01c
eip=00673a1e esp=0164dcc8 ebp=0164dce8 iopl=0         nv up ei pl zr na pe nc
cs=0023  ss=002b  ds=002b  es=002b  fs=0053  gs=002b             efl=00000246
ws7v6!Exceptionloginitialization$qqrv+0x5081a:
00673a1e 31c0            xor     eax,eax
 # ChildEBP RetAddr      Args to Child              
WARNING: Stack unwind information not available. Following frames may be wrong.
00 0164dc9c 0067850d     000004e4 0164e750 006268cf ws7v6!Exceptionloginitialization$qqrv+0x504d5
01 0164dce8 005df093     089ac406 00000057 089abf30 ws7v6!Exceptionloginitialization$qqrv+0x55309
02 0164e75c 005e06f3     00000000 089ac406 00000057 ws7v6!FupeditorfFinalize+0xb83
eax=00000100 ebx=00c075b8 ecx=00000001 edx=00000003 esi=0164cc98 edi=00000007
eip=006736d9 esp=0164cc68 ebp=0164dc9c iopl=0         nv up ei pl zr na pe nc
cs=0023  ss=002b  ds=002b  es=002b  fs=0053  gs=002b             efl=00000246
ws7v6!Exceptionloginitialization$qqrv+0x504d5:
006736d9 749f            je      ws7v6!Exceptionloginitialization$qqrv+0x50476 (0067367a) [br=1]
 # ChildEBP RetAddr      Args to Child              
WARNING: Stack unwind information not available. Following frames may be wrong.
00 0164dc9c 0067850d     000004e4 0164e750 006268cf ws7v6!Exceptionloginitialization$qqrv+0x504c8
01 0164dce8 005df093     089ac406 00000057 089abf30 ws7v6!Exceptionloginitialization$qqrv+0x55309
02 0164e75c 005e06f3     00000000 089ac406 00000057 ws7v6!FupeditorfFinalize+0xb83
eax=089e1370 ebx=00c075b8 ecx=12302070 edx=089dc2b0 esi=0164cc98 edi=00000007
eip=006736cc esp=0164cc68 ebp=0164dc9c iopl=0         nv up ei pl zr na pe nc
cs=0023  ss=002b  ds=002b  es=002b  fs=0053  gs=002b             efl=00000246
ws7v6!Exceptionloginitialization$qqrv+0x504c8:
006736cc 5b              pop     ebx
 # ChildEBP RetAddr      Args to Child              
WARNING: Stack unwind information not available. Following frames may be wrong.
00 0164dce8 005df0c2     089ac406 00000057 089abf30 ws7v6!Exceptionloginitialization$qqrv+0x50855
01 0164e75c 005e06f3     00000000 089ac406 00000057 ws7v6!FupeditorfFinalize+0xbb2
02 0164e7e0 005e08c3     00008195 089abf30 0164e9e8 ws7v6!FupeditorfFinalize+0x21e3
eax=00000100 ebx=00c075b8 ecx=089e1370 edx=089dc2b0 esi=00000002 edi=0164e01c
eip=00673a59 esp=0164dcc8 ebp=0164dce8 iopl=0         nv up ei pl zr na pe nc
cs=0023  ss=002b  ds=002b  es=002b  fs=0053  gs=002b             efl=00000246
ws7v6!Exceptionloginitialization$qqrv+0x50855:
00673a59 7494            je      ws7v6!Exceptionloginitialization$qqrv+0x507eb (006739ef) [br=1]
 # ChildEBP RetAddr      Args to Child              
WARNING: Stack unwind information not available. Following frames may be wrong.
00 0164dce8 005df0c2     089ac406 00000057 089abf30 ws7v6!Exceptionloginitialization$qqrv+0x5081a
01 0164e75c 005e06f3     00000000 089ac406 00000057 ws7v6!FupeditorfFinalize+0xbb2
02 0164e7e0 005e08c3     00008195 089abf30 0164e9e8 ws7v6!FupeditorfFinalize+0x21e3
eax=00000001 ebx=00c075b8 ecx=12302070 edx=089dc2b0 esi=00000002 edi=0164e01c
eip=00673a1e esp=0164dcc8 ebp=0164dce8 iopl=0         nv up ei pl zr na pe nc
cs=0023  ss=002b  ds=002b  es=002b  fs=0053  gs=002b             efl=00000246
ws7v6!Exceptionloginitialization$qqrv+0x5081a:
00673a1e 31c0            xor     eax,eax
 # ChildEBP RetAddr      Args to Child              
WARNING: Stack unwind information not available. Following frames may be wrong.
00 0164e664 0067850d     000004e4 0164e744 006268cf ws7v6!Exceptionloginitialization$qqrv+0x504d5
01 0164e6b0 005df37d     086f4dd0 00000005 089abf30 ws7v6!Exceptionloginitialization$qqrv+0x55309
02 0164e750 005e0553     00500000 3910cccd 0000000f ws7v6!FupeditorfFinalize+0xe6d
eax=00000100 ebx=00c075b8 ecx=00000001 edx=00000003 esi=0164d660 edi=00000007
eip=006736d9 esp=0164d630 ebp=0164e664 iopl=0         nv up ei pl zr na pe nc
cs=0023  ss=002b  ds=002b  es=002b  fs=0053  gs=002b             efl=00000246
ws7v6!Exceptionloginitialization$qqrv+0x504d5:
006736d9 749f            je      ws7v6!Exceptionloginitialization$qqrv+0x50476 (0067367a) [br=1]
 # ChildEBP RetAddr      Args to Child              
WARNING: Stack unwind information not available. Following frames may be wrong.
00 0164e664 0067850d     000004e4 0164e744 006268cf ws7v6!Exceptionloginitialization$qqrv+0x504c8
01 0164e6b0 005df37d     086f4dd0 00000005 089abf30 ws7v6!Exceptionloginitialization$qqrv+0x55309
02 0164e750 005e0553     00500000 3910cccd 0000000f ws7v6!FupeditorfFinalize+0xe6d
eax=089e1370 ebx=00c075b8 ecx=12302070 edx=089dc2b0 esi=0164d660 edi=00000007
eip=006736cc esp=0164d630 ebp=0164e664 iopl=0         nv up ei pl zr na pe nc
cs=0023  ss=002b  ds=002b  es=002b  fs=0053  gs=002b             efl=00000246
ws7v6!Exceptionloginitialization$qqrv+0x504c8:
006736cc 5b              pop     ebx
 # ChildEBP RetAddr      Args to Child              
WARNING: Stack unwind information not available. Following frames may be wrong.
00 0164e6b0 005df3a3     086f4dd0 00000005 089abf30 ws7v6!Exceptionloginitialization$qqrv+0x50855
01 0164e750 005e0553     00500000 3910cccd 0000000f ws7v6!FupeditorfFinalize+0xe93
02 0164e7e0 005e08c3     00008195 089abf30 0164e9e8 ws7v6!FupeditorfFinalize+0x2043
eax=00000100 ebx=00c075b8 ecx=089e1370 edx=089dc2b0 esi=00000002 edi=0070ba38
eip=00673a59 esp=0164e690 ebp=0164e6b0 iopl=0         nv up ei pl zr na pe nc
cs=0023  ss=002b  ds=002b  es=002b  fs=0053  gs=002b             efl=00000246
ws7v6!Exceptionloginitialization$qqrv+0x50855:
00673a59 7494            je      ws7v6!Exceptionloginitialization$qqrv+0x507eb (006739ef) [br=1]
 # ChildEBP RetAddr      Args to Child              
WARNING: Stack unwind information not available. Following frames may be wrong.
00 0164e6b0 005df3a3     086f4dd0 00000005 089abf30 ws7v6!Exceptionloginitialization$qqrv+0x5081a
01 0164e750 005e0553     00500000 3910cccd 0000000f ws7v6!FupeditorfFinalize+0xe93
02 0164e7e0 005e08c3     00008195 089abf30 0164e9e8 ws7v6!FupeditorfFinalize+0x2043
eax=00000001 ebx=00c075b8 ecx=12302070 edx=089dc2b0 esi=00000002 edi=0070ba38
eip=00673a1e esp=0164e690 ebp=0164e6b0 iopl=0         nv up ei pl zr na pe nc
cs=0023  ss=002b  ds=002b  es=002b  fs=0053  gs=002b             efl=00000246
ws7v6!Exceptionloginitialization$qqrv+0x5081a:
00673a1e 31c0            xor     eax,eax
 # ChildEBP RetAddr      Args to Child              
WARNING: Stack unwind information not available. Following frames may be wrong.
00 0164e664 0067850d     000004e4 0164e740 006268cf ws7v6!Exceptionloginitialization$qqrv+0x504d5
01 0164e6b0 005df3d4     086f4dd0 00000005 089abf30 ws7v6!Exceptionloginitialization$qqrv+0x55309
02 0164e750 005e0553     00500000 3910cccd 0000000f ws7v6!FupeditorfFinalize+0xec4
eax=00000100 ebx=00c075b8 ecx=00000001 edx=00000003 esi=0164d660 edi=00000005
eip=006736d9 esp=0164d630 ebp=0164e664 iopl=0         nv up ei pl zr na pe nc
cs=0023  ss=002b  ds=002b  es=002b  fs=0053  gs=002b             efl=00000246
ws7v6!Exceptionloginitialization$qqrv+0x504d5:
006736d9 749f            je      ws7v6!Exceptionloginitialization$qqrv+0x50476 (0067367a) [br=1]
 # ChildEBP RetAddr      Args to Child              
WARNING: Stack unwind information not available. Following frames may be wrong.
00 0164e664 0067850d     000004e4 0164e740 006268cf ws7v6!Exceptionloginitialization$qqrv+0x504c8
01 0164e6b0 005df3d4     086f4dd0 00000005 089abf30 ws7v6!Exceptionloginitialization$qqrv+0x55309
02 0164e750 005e0553     00500000 3910cccd 0000000f ws7v6!FupeditorfFinalize+0xec4
eax=089e1370 ebx=00c075b8 ecx=12302070 edx=089dc2b0 esi=0164d660 edi=00000005
eip=006736cc esp=0164d630 ebp=0164e664 iopl=0         nv up ei pl zr na pe nc
cs=0023  ss=002b  ds=002b  es=002b  fs=0053  gs=002b             efl=00000246
ws7v6!Exceptionloginitialization$qqrv+0x504c8:
006736cc 5b              pop     ebx
 # ChildEBP RetAddr      Args to Child              
WARNING: Stack unwind information not available. Following frames may be wrong.
00 0164e6b0 005df3fa     086f4dd0 00000005 089abf30 ws7v6!Exceptionloginitialization$qqrv+0x50855
01 0164e750 005e0553     00500000 3910cccd 0000000f ws7v6!FupeditorfFinalize+0xeea
02 0164e7e0 005e08c3     00008195 089abf30 0164e9e8 ws7v6!FupeditorfFinalize+0x2043
eax=00000100 ebx=00c075b8 ecx=089e1370 edx=089dc2b0 esi=00000002 edi=0070ba38
eip=00673a59 esp=0164e690 ebp=0164e6b0 iopl=0         nv up ei pl zr na pe nc
cs=0023  ss=002b  ds=002b  es=002b  fs=0053  gs=002b             efl=00000246
ws7v6!Exceptionloginitialization$qqrv+0x50855:
00673a59 7494            je      ws7v6!Exceptionloginitialization$qqrv+0x507eb (006739ef) [br=1]
 # ChildEBP RetAddr      Args to Child              
WARNING: Stack unwind information not available. Following frames may be wrong.
00 0164e6b0 005df3fa     086f4dd0 00000005 089abf30 ws7v6!Exceptionloginitialization$qqrv+0x5081a
01 0164e750 005e0553     00500000 3910cccd 0000000f ws7v6!FupeditorfFinalize+0xeea
02 0164e7e0 005e08c3     00008195 089abf30 0164e9e8 ws7v6!FupeditorfFinalize+0x2043
eax=00000001 ebx=00c075b8 ecx=12302070 edx=089dc2b0 esi=00000002 edi=0070ba38
eip=00673a1e esp=0164e690 ebp=0164e6b0 iopl=0         nv up ei pl zr na pe nc
cs=0023  ss=002b  ds=002b  es=002b  fs=0053  gs=002b             efl=00000246
ws7v6!Exceptionloginitialization$qqrv+0x5081a:
00673a1e 31c0            xor     eax,eax
 # ChildEBP RetAddr      Args to Child              
WARNING: Stack unwind information not available. Following frames may be wrong.
00 0164e664 0067850d     000004e4 0164e73c 006268cf ws7v6!Exceptionloginitialization$qqrv+0x504d5
01 0164e6b0 005df44e     086f4dd0 00000005 089abf30 ws7v6!Exceptionloginitialization$qqrv+0x55309
02 0164e750 005e0553     00500000 3910cccd 0000000f ws7v6!FupeditorfFinalize+0xf3e
eax=00000100 ebx=00c075b8 ecx=00000001 edx=00000003 esi=0164d660 edi=00000007
eip=006736d9 esp=0164d630 ebp=0164e664 iopl=0         nv up ei pl zr na pe nc
cs=0023  ss=002b  ds=002b  es=002b  fs=0053  gs=002b             efl=00000246
ws7v6!Exceptionloginitialization$qqrv+0x504d5:
006736d9 749f            je      ws7v6!Exceptionloginitialization$qqrv+0x50476 (0067367a) [br=1]
 # ChildEBP RetAddr      Args to Child              
WARNING: Stack unwind information not available. Following frames may be wrong.
00 0164e664 0067850d     000004e4 0164e73c 006268cf ws7v6!Exceptionloginitialization$qqrv+0x504c8
01 0164e6b0 005df44e     086f4dd0 00000005 089abf30 ws7v6!Exceptionloginitialization$qqrv+0x55309
02 0164e750 005e0553     00500000 3910cccd 0000000f ws7v6!FupeditorfFinalize+0xf3e
eax=089e1370 ebx=00c075b8 ecx=12302070 edx=089dc2b0 esi=0164d660 edi=00000007
eip=006736cc esp=0164d630 ebp=0164e664 iopl=0         nv up ei pl zr na pe nc
cs=0023  ss=002b  ds=002b  es=002b  fs=0053  gs=002b             efl=00000246
ws7v6!Exceptionloginitialization$qqrv+0x504c8:
006736cc 5b              pop     ebx
 # ChildEBP RetAddr      Args to Child              
WARNING: Stack unwind information not available. Following frames may be wrong.
00 0164e6b0 005df474     086f4dd0 00000005 089abf30 ws7v6!Exceptionloginitialization$qqrv+0x50855
01 0164e750 005e0553     00500000 3910cccd 0000000f ws7v6!FupeditorfFinalize+0xf64
02 0164e7e0 005e08c3     00008195 089abf30 0164e9e8 ws7v6!FupeditorfFinalize+0x2043
eax=00000100 ebx=00c075b8 ecx=089e1370 edx=089dc2b0 esi=00000002 edi=0070ba38
eip=00673a59 esp=0164e690 ebp=0164e6b0 iopl=0         nv up ei pl zr na pe nc
cs=0023  ss=002b  ds=002b  es=002b  fs=0053  gs=002b             efl=00000246
ws7v6!Exceptionloginitialization$qqrv+0x50855:
00673a59 7494            je      ws7v6!Exceptionloginitialization$qqrv+0x507eb (006739ef) [br=1]
 # ChildEBP RetAddr      Args to Child              
WARNING: Stack unwind information not available. Following frames may be wrong.
00 0164e6b0 005df474     086f4dd0 00000005 089abf30 ws7v6!Exceptionloginitialization$qqrv+0x5081a
01 0164e750 005e0553     00500000 3910cccd 0000000f ws7v6!FupeditorfFinalize+0xf64
02 0164e7e0 005e08c3     00008195 089abf30 0164e9e8 ws7v6!FupeditorfFinalize+0x2043
eax=00000001 ebx=00c075b8 ecx=12302070 edx=089dc2b0 esi=00000002 edi=0070ba38
eip=00673a1e esp=0164e690 ebp=0164e6b0 iopl=0         nv up ei pl zr na pe nc
cs=0023  ss=002b  ds=002b  es=002b  fs=0053  gs=002b             efl=00000246
ws7v6!Exceptionloginitialization$qqrv+0x5081a:
00673a1e 31c0            xor     eax,eax
 # ChildEBP RetAddr      Args to Child              
WARNING: Stack unwind information not available. Following frames may be wrong.
00 0164dc9c 0067850d     000004e4 0164e758 006268cf ws7v6!Exceptionloginitialization$qqrv+0x504d5
01 0164dce8 005defce     089ac406 00000057 089abf30 ws7v6!Exceptionloginitialization$qqrv+0x55309
02 0164e75c 005e06f3     00000000 089ac406 00000057 ws7v6!FupeditorfFinalize+0xabe
eax=00000100 ebx=00c075b8 ecx=00000001 edx=00000003 esi=0164cc98 edi=00000004
eip=006736d9 esp=0164cc68 ebp=0164dc9c iopl=0         nv up ei pl zr na pe nc
cs=0023  ss=002b  ds=002b  es=002b  fs=0053  gs=002b             efl=00000246
ws7v6!Exceptionloginitialization$qqrv+0x504d5:
006736d9 749f            je      ws7v6!Exceptionloginitialization$qqrv+0x50476 (0067367a) [br=1]
 # ChildEBP RetAddr      Args to Child              
WARNING: Stack unwind information not available. Following frames may be wrong.
00 0164dc9c 0067850d     000004e4 0164e758 006268cf ws7v6!Exceptionloginitialization$qqrv+0x504c8
01 0164dce8 005defce     089ac406 00000057 089abf30 ws7v6!Exceptionloginitialization$qqrv+0x55309
02 0164e75c 005e06f3     00000000 089ac406 00000057 ws7v6!FupeditorfFinalize+0xabe
eax=089e1370 ebx=00c075b8 ecx=12302070 edx=089dc2b0 esi=0164cc98 edi=00000004
eip=006736cc esp=0164cc68 ebp=0164dc9c iopl=0         nv up ei pl zr na pe nc
cs=0023  ss=002b  ds=002b  es=002b  fs=0053  gs=002b             efl=00000246
ws7v6!Exceptionloginitialization$qqrv+0x504c8:
006736cc 5b              pop     ebx
 # ChildEBP RetAddr      Args to Child              
WARNING: Stack unwind information not available. Following frames may be wrong.
00 0164dce8 005defed     089ac406 00000057 089abf30 ws7v6!Exceptionloginitialization$qqrv+0x50855
01 0164e75c 005e06f3     00000000 089ac406 00000057 ws7v6!FupeditorfFinalize+0xadd
02 0164e7e0 005e08c3     00008195 089abf30 0164e9e8 ws7v6!FupeditorfFinalize+0x21e3
eax=00000100 ebx=00c075b8 ecx=089e1370 edx=089dc2b0 esi=00000002 edi=0164e01c
eip=00673a59 esp=0164dcc8 ebp=0164dce8 iopl=0         nv up ei pl zr na pe nc
cs=0023  ss=002b  ds=002b  es=002b  fs=0053  gs=002b             efl=00000246
ws7v6!Exceptionloginitialization$qqrv+0x50855:
00673a59 7494            je      ws7v6!Exceptionloginitialization$qqrv+0x507eb (006739ef) [br=1]
 # ChildEBP RetAddr      Args to Child              
WARNING: Stack unwind information not available. Following frames may be wrong.
00 0164dce8 005defed     089ac406 00000057 089abf30 ws7v6!Exceptionloginitialization$qqrv+0x5081a
01 0164e75c 005e06f3     00000000 089ac406 00000057 ws7v6!FupeditorfFinalize+0xadd
02 0164e7e0 005e08c3     00008195 089abf30 0164e9e8 ws7v6!FupeditorfFinalize+0x21e3
eax=00000001 ebx=00c075b8 ecx=12302070 edx=089dc2b0 esi=00000002 edi=0164e01c
eip=00673a1e esp=0164dcc8 ebp=0164dce8 iopl=0         nv up ei pl zr na pe nc
cs=0023  ss=002b  ds=002b  es=002b  fs=0053  gs=002b             efl=00000246
ws7v6!Exceptionloginitialization$qqrv+0x5081a:
00673a1e 31c0            xor     eax,eax
 # ChildEBP RetAddr      Args to Child              
WARNING: Stack unwind information not available. Following frames may be wrong.
00 0164dc9c 0067850d     000004e4 0164e754 006268cf ws7v6!Exceptionloginitialization$qqrv+0x504d5
01 0164dce8 005df024     089ac406 00000057 089abf30 ws7v6!Exceptionloginitialization$qqrv+0x55309
02 0164e75c 005e06f3     00000000 089ac406 00000057 ws7v6!FupeditorfFinalize+0xb14
eax=00000100 ebx=00c075b8 ecx=00000001 edx=00000003 esi=0164cc98 edi=00000004
eip=006736d9 esp=0164cc68 ebp=0164dc9c iopl=0         nv up ei pl zr na pe nc
cs=0023  ss=002b  ds=002b  es=002b  fs=0053  gs=002b             efl=00000246
ws7v6!Exceptionloginitialization$qqrv+0x504d5:
006736d9 749f            je      ws7v6!Exceptionloginitialization$qqrv+0x50476 (0067367a) [br=1]
 # ChildEBP RetAddr      Args to Child              
WARNING: Stack unwind information not available. Following frames may be wrong.
00 0164dc9c 0067850d     000004e4 0164e754 006268cf ws7v6!Exceptionloginitialization$qqrv+0x504c8
01 0164dce8 005df024     089ac406 00000057 089abf30 ws7v6!Exceptionloginitialization$qqrv+0x55309
02 0164e75c 005e06f3     00000000 089ac406 00000057 ws7v6!FupeditorfFinalize+0xb14
eax=089e1370 ebx=00c075b8 ecx=12302070 edx=089dc2b0 esi=0164cc98 edi=00000004
eip=006736cc esp=0164cc68 ebp=0164dc9c iopl=0         nv up ei pl zr na pe nc
cs=0023  ss=002b  ds=002b  es=002b  fs=0053  gs=002b             efl=00000246
ws7v6!Exceptionloginitialization$qqrv+0x504c8:
006736cc 5b              pop     ebx
 # ChildEBP RetAddr      Args to Child              
WARNING: Stack unwind information not available. Following frames may be wrong.
00 0164dce8 005df04b     089ac406 00000057 089abf30 ws7v6!Exceptionloginitialization$qqrv+0x50855
01 0164e75c 005e06f3     00000000 089ac406 00000057 ws7v6!FupeditorfFinalize+0xb3b
02 0164e7e0 005e08c3     00008195 089abf30 0164e9e8 ws7v6!FupeditorfFinalize+0x21e3
eax=00000100 ebx=00c075b8 ecx=089e1370 edx=089dc2b0 esi=00000002 edi=0164e01c
eip=00673a59 esp=0164dcc8 ebp=0164dce8 iopl=0         nv up ei pl zr na pe nc
cs=0023  ss=002b  ds=002b  es=002b  fs=0053  gs=002b             efl=00000246
ws7v6!Exceptionloginitialization$qqrv+0x50855:
00673a59 7494            je      ws7v6!Exceptionloginitialization$qqrv+0x507eb (006739ef) [br=1]
 # ChildEBP RetAddr      Args to Child              
WARNING: Stack unwind information not available. Following frames may be wrong.
00 0164dce8 005df04b     089ac406 00000057 089abf30 ws7v6!Exceptionloginitialization$qqrv+0x5081a
01 0164e75c 005e06f3     00000000 089ac406 00000057 ws7v6!FupeditorfFinalize+0xb3b
02 0164e7e0 005e08c3     00008195 089abf30 0164e9e8 ws7v6!FupeditorfFinalize+0x21e3
eax=00000001 ebx=00c075b8 ecx=12302070 edx=089dc2b0 esi=00000002 edi=0164e01c
eip=00673a1e esp=0164dcc8 ebp=0164dce8 iopl=0         nv up ei pl zr na pe nc
cs=0023  ss=002b  ds=002b  es=002b  fs=0053  gs=002b             efl=00000246
ws7v6!Exceptionloginitialization$qqrv+0x5081a:
00673a1e 31c0            xor     eax,eax
 # ChildEBP RetAddr      Args to Child              
WARNING: Stack unwind information not available. Following frames may be wrong.
00 0164dc9c 0067850d     000004e4 0164e750 006268cf ws7v6!Exceptionloginitialization$qqrv+0x504d5
01 0164dce8 005df093     089ac406 00000057 089abf30 ws7v6!Exceptionloginitialization$qqrv+0x55309
02 0164e75c 005e06f3     00000000 089ac406 00000057 ws7v6!FupeditorfFinalize+0xb83
eax=00000100 ebx=00c075b8 ecx=00000001 edx=00000003 esi=0164cc98 edi=00000007
eip=006736d9 esp=0164cc68 ebp=0164dc9c iopl=0         nv up ei pl zr na pe nc
cs=0023  ss=002b  ds=002b  es=002b  fs=0053  gs=002b             efl=00000246
ws7v6!Exceptionloginitialization$qqrv+0x504d5:
006736d9 749f            je      ws7v6!Exceptionloginitialization$qqrv+0x50476 (0067367a) [br=1]
 # ChildEBP RetAddr      Args to Child              
WARNING: Stack unwind information not available. Following frames may be wrong.
00 0164dc9c 0067850d     000004e4 0164e750 006268cf ws7v6!Exceptionloginitialization$qqrv+0x504c8
01 0164dce8 005df093     089ac406 00000057 089abf30 ws7v6!Exceptionloginitialization$qqrv+0x55309
02 0164e75c 005e06f3     00000000 089ac406 00000057 ws7v6!FupeditorfFinalize+0xb83
eax=089e1370 ebx=00c075b8 ecx=12302070 edx=089dc2b0 esi=0164cc98 edi=00000007
eip=006736cc esp=0164cc68 ebp=0164dc9c iopl=0         nv up ei pl zr na pe nc
cs=0023  ss=002b  ds=002b  es=002b  fs=0053  gs=002b             efl=00000246
ws7v6!Exceptionloginitialization$qqrv+0x504c8:
006736cc 5b              pop     ebx
 # ChildEBP RetAddr      Args to Child              
WARNING: Stack unwind information not available. Following frames may be wrong.
00 0164dce8 005df0c2     089ac406 00000057 089abf30 ws7v6!Exceptionloginitialization$qqrv+0x50855
01 0164e75c 005e06f3     00000000 089ac406 00000057 ws7v6!FupeditorfFinalize+0xbb2
02 0164e7e0 005e08c3     00008195 089abf30 0164e9e8 ws7v6!FupeditorfFinalize+0x21e3
eax=00000100 ebx=00c075b8 ecx=089e1370 edx=089dc2b0 esi=00000002 edi=0164e01c
eip=00673a59 esp=0164dcc8 ebp=0164dce8 iopl=0         nv up ei pl zr na pe nc
cs=0023  ss=002b  ds=002b  es=002b  fs=0053  gs=002b             efl=00000246
ws7v6!Exceptionloginitialization$qqrv+0x50855:
00673a59 7494            je      ws7v6!Exceptionloginitialization$qqrv+0x507eb (006739ef) [br=1]
 # ChildEBP RetAddr      Args to Child              
WARNING: Stack unwind information not available. Following frames may be wrong.
00 0164dce8 005df0c2     089ac406 00000057 089abf30 ws7v6!Exceptionloginitialization$qqrv+0x5081a
01 0164e75c 005e06f3     00000000 089ac406 00000057 ws7v6!FupeditorfFinalize+0xbb2
02 0164e7e0 005e08c3     00008195 089abf30 0164e9e8 ws7v6!FupeditorfFinalize+0x21e3
eax=00000001 ebx=00c075b8 ecx=12302070 edx=089dc2b0 esi=00000002 edi=0164e01c
eip=00673a1e esp=0164dcc8 ebp=0164dce8 iopl=0         nv up ei pl zr na pe nc
cs=0023  ss=002b  ds=002b  es=002b  fs=0053  gs=002b             efl=00000246
ws7v6!Exceptionloginitialization$qqrv+0x5081a:
00673a1e 31c0            xor     eax,eax
 # ChildEBP RetAddr      Args to Child              
WARNING: Stack unwind information not available. Following frames may be wrong.
00 0164e664 0067850d     000004e4 0164e744 006268cf ws7v6!Exceptionloginitialization$qqrv+0x504d5
01 0164e6b0 005df37d     086f4dd0 00000005 089abf30 ws7v6!Exceptionloginitialization$qqrv+0x55309
02 0164e750 005e0553     00500000 3910cccd 0000000f ws7v6!FupeditorfFinalize+0xe6d
eax=00000100 ebx=00c075b8 ecx=00000001 edx=00000003 esi=0164d660 edi=00000007
eip=006736d9 esp=0164d630 ebp=0164e664 iopl=0         nv up ei pl zr na pe nc
cs=0023  ss=002b  ds=002b  es=002b  fs=0053  gs=002b             efl=00000246
ws7v6!Exceptionloginitialization$qqrv+0x504d5:
006736d9 749f            je      ws7v6!Exceptionloginitialization$qqrv+0x50476 (0067367a) [br=1]
 # ChildEBP RetAddr      Args to Child              
WARNING: Stack unwind information not available. Following frames may be wrong.
00 0164e664 0067850d     000004e4 0164e744 006268cf ws7v6!Exceptionloginitialization$qqrv+0x504c8
01 0164e6b0 005df37d     086f4dd0 00000005 089abf30 ws7v6!Exceptionloginitialization$qqrv+0x55309
02 0164e750 005e0553     00500000 3910cccd 0000000f ws7v6!FupeditorfFinalize+0xe6d
eax=089e1370 ebx=00c075b8 ecx=12302070 edx=089dc2b0 esi=0164d660 edi=00000007
eip=006736cc esp=0164d630 ebp=0164e664 iopl=0         nv up ei pl zr na pe nc
cs=0023  ss=002b  ds=002b  es=002b  fs=0053  gs=002b             efl=00000246
ws7v6!Exceptionloginitialization$qqrv+0x504c8:
006736cc 5b              pop     ebx
 # ChildEBP RetAddr      Args to Child              
WARNING: Stack unwind information not available. Following frames may be wrong.
00 0164e6b0 005df3a3     086f4dd0 00000005 089abf30 ws7v6!Exceptionloginitialization$qqrv+0x50855
01 0164e750 005e0553     00500000 3910cccd 0000000f ws7v6!FupeditorfFinalize+0xe93
02 0164e7e0 005e08c3     00008195 089abf30 0164e9e8 ws7v6!FupeditorfFinalize+0x2043
eax=00000100 ebx=00c075b8 ecx=089e1370 edx=089dc2b0 esi=00000002 edi=0070ba38
eip=00673a59 esp=0164e690 ebp=0164e6b0 iopl=0         nv up ei pl zr na pe nc
cs=0023  ss=002b  ds=002b  es=002b  fs=0053  gs=002b             efl=00000246
ws7v6!Exceptionloginitialization$qqrv+0x50855:
00673a59 7494            je      ws7v6!Exceptionloginitialization$qqrv+0x507eb (006739ef) [br=1]
 # ChildEBP RetAddr      Args to Child              
WARNING: Stack unwind information not available. Following frames may be wrong.
00 0164e6b0 005df3a3     086f4dd0 00000005 089abf30 ws7v6!Exceptionloginitialization$qqrv+0x5081a
01 0164e750 005e0553     00500000 3910cccd 0000000f ws7v6!FupeditorfFinalize+0xe93
02 0164e7e0 005e08c3     00008195 089abf30 0164e9e8 ws7v6!FupeditorfFinalize+0x2043
eax=00000001 ebx=00c075b8 ecx=12302070 edx=089dc2b0 esi=00000002 edi=0070ba38
eip=00673a1e esp=0164e690 ebp=0164e6b0 iopl=0         nv up ei pl zr na pe nc
cs=0023  ss=002b  ds=002b  es=002b  fs=0053  gs=002b             efl=00000246
ws7v6!Exceptionloginitialization$qqrv+0x5081a:
00673a1e 31c0            xor     eax,eax
 # ChildEBP RetAddr      Args to Child              
WARNING: Stack unwind information not available. Following frames may be wrong.
00 0164e664 0067850d     000004e4 0164e740 006268cf ws7v6!Exceptionloginitialization$qqrv+0x504d5
01 0164e6b0 005df3d4     086f4dd0 00000005 089abf30 ws7v6!Exceptionloginitialization$qqrv+0x55309
02 0164e750 005e0553     00500000 3910cccd 0000000f ws7v6!FupeditorfFinalize+0xec4
eax=00000100 ebx=00c075b8 ecx=00000001 edx=00000003 esi=0164d660 edi=00000005
eip=006736d9 esp=0164d630 ebp=0164e664 iopl=0         nv up ei pl zr na pe nc
cs=0023  ss=002b  ds=002b  es=002b  fs=0053  gs=002b             efl=00000246
ws7v6!Exceptionloginitialization$qqrv+0x504d5:
006736d9 749f            je      ws7v6!Exceptionloginitialization$qqrv+0x50476 (0067367a) [br=1]
 # ChildEBP RetAddr      Args to Child              
WARNING: Stack unwind information not available. Following frames may be wrong.
00 0164e664 0067850d     000004e4 0164e740 006268cf ws7v6!Exceptionloginitialization$qqrv+0x504c8
01 0164e6b0 005df3d4     086f4dd0 00000005 089abf30 ws7v6!Exceptionloginitialization$qqrv+0x55309
02 0164e750 005e0553     00500000 3910cccd 0000000f ws7v6!FupeditorfFinalize+0xec4
eax=089e1370 ebx=00c075b8 ecx=12302070 edx=089dc2b0 esi=0164d660 edi=00000005
eip=006736cc esp=0164d630 ebp=0164e664 iopl=0         nv up ei pl zr na pe nc
cs=0023  ss=002b  ds=002b  es=002b  fs=0053  gs=002b             efl=00000246
ws7v6!Exceptionloginitialization$qqrv+0x504c8:
006736cc 5b              pop     ebx
 # ChildEBP RetAddr      Args to Child              
WARNING: Stack unwind information not available. Following frames may be wrong.
00 0164e6b0 005df3fa     086f4dd0 00000005 089abf30 ws7v6!Exceptionloginitialization$qqrv+0x50855
01 0164e750 005e0553     00500000 3910cccd 0000000f ws7v6!FupeditorfFinalize+0xeea
02 0164e7e0 005e08c3     00008195 089abf30 0164e9e8 ws7v6!FupeditorfFinalize+0x2043
eax=00000100 ebx=00c075b8 ecx=089e1370 edx=089dc2b0 esi=00000002 edi=0070ba38
eip=00673a59 esp=0164e690 ebp=0164e6b0 iopl=0         nv up ei pl zr na pe nc
cs=0023  ss=002b  ds=002b  es=002b  fs=0053  gs=002b             efl=00000246
ws7v6!Exceptionloginitialization$qqrv+0x50855:
00673a59 7494            je      ws7v6!Exceptionloginitialization$qqrv+0x507eb (006739ef) [br=1]
 # ChildEBP RetAddr      Args to Child              
WARNING: Stack unwind information not available. Following frames may be wrong.
00 0164e6b0 005df3fa     086f4dd0 00000005 089abf30 ws7v6!Exceptionloginitialization$qqrv+0x5081a
01 0164e750 005e0553     00500000 3910cccd 0000000f ws7v6!FupeditorfFinalize+0xeea
02 0164e7e0 005e08c3     00008195 089abf30 0164e9e8 ws7v6!FupeditorfFinalize+0x2043
eax=00000001 ebx=00c075b8 ecx=12302070 edx=089dc2b0 esi=00000002 edi=0070ba38
eip=00673a1e esp=0164e690 ebp=0164e6b0 iopl=0         nv up ei pl zr na pe nc
cs=0023  ss=002b  ds=002b  es=002b  fs=0053  gs=002b             efl=00000246
ws7v6!Exceptionloginitialization$qqrv+0x5081a:
00673a1e 31c0            xor     eax,eax
 # ChildEBP RetAddr      Args to Child              
WARNING: Stack unwind information not available. Following frames may be wrong.
00 0164e664 0067850d     000004e4 0164e73c 006268cf ws7v6!Exceptionloginitialization$qqrv+0x504d5
01 0164e6b0 005df44e     086f4dd0 00000005 089abf30 ws7v6!Exceptionloginitialization$qqrv+0x55309
02 0164e750 005e0553     00500000 3910cccd 0000000f ws7v6!FupeditorfFinalize+0xf3e
eax=00000100 ebx=00c075b8 ecx=00000001 edx=00000003 esi=0164d660 edi=00000007
eip=006736d9 esp=0164d630 ebp=0164e664 iopl=0         nv up ei pl zr na pe nc
cs=0023  ss=002b  ds=002b  es=002b  fs=0053  gs=002b             efl=00000246
ws7v6!Exceptionloginitialization$qqrv+0x504d5:
006736d9 749f            je      ws7v6!Exceptionloginitialization$qqrv+0x50476 (0067367a) [br=1]
 # ChildEBP RetAddr      Args to Child              
WARNING: Stack unwind information not available. Following frames may be wrong.
00 0164e664 0067850d     000004e4 0164e73c 006268cf ws7v6!Exceptionloginitialization$qqrv+0x504c8
01 0164e6b0 005df44e     086f4dd0 00000005 089abf30 ws7v6!Exceptionloginitialization$qqrv+0x55309
02 0164e750 005e0553     00500000 3910cccd 0000000f ws7v6!FupeditorfFinalize+0xf3e
eax=089e1370 ebx=00c075b8 ecx=12302070 edx=089dc2b0 esi=0164d660 edi=00000007
eip=006736cc esp=0164d630 ebp=0164e664 iopl=0         nv up ei pl zr na pe nc
cs=0023  ss=002b  ds=002b  es=002b  fs=0053  gs=002b             efl=00000246
ws7v6!Exceptionloginitialization$qqrv+0x504c8:
006736cc 5b              pop     ebx
 # ChildEBP RetAddr      Args to Child              
WARNING: Stack unwind information not available. Following frames may be wrong.
00 0164e6b0 005df474     086f4dd0 00000005 089abf30 ws7v6!Exceptionloginitialization$qqrv+0x50855
01 0164e750 005e0553     00500000 3910cccd 0000000f ws7v6!FupeditorfFinalize+0xf64
02 0164e7e0 005e08c3     00008195 089abf30 0164e9e8 ws7v6!FupeditorfFinalize+0x2043
eax=00000100 ebx=00c075b8 ecx=089e1370 edx=089dc2b0 esi=00000002 edi=0070ba38
eip=00673a59 esp=0164e690 ebp=0164e6b0 iopl=0         nv up ei pl zr na pe nc
cs=0023  ss=002b  ds=002b  es=002b  fs=0053  gs=002b             efl=00000246
ws7v6!Exceptionloginitialization$qqrv+0x50855:
00673a59 7494            je      ws7v6!Exceptionloginitialization$qqrv+0x507eb (006739ef) [br=1]
 # ChildEBP RetAddr      Args to Child              
WARNING: Stack unwind information not available. Following frames may be wrong.
00 0164e6b0 005df474     086f4dd0 00000005 089abf30 ws7v6!Exceptionloginitialization$qqrv+0x5081a
01 0164e750 005e0553     00500000 3910cccd 0000000f ws7v6!FupeditorfFinalize+0xf64
02 0164e7e0 005e08c3     00008195 089abf30 0164e9e8 ws7v6!FupeditorfFinalize+0x2043
eax=00000001 ebx=00c075b8 ecx=12302070 edx=089dc2b0 esi=00000002 edi=0070ba38
eip=00673a1e esp=0164e690 ebp=0164e6b0 iopl=0         nv up ei pl zr na pe nc
cs=0023  ss=002b  ds=002b  es=002b  fs=0053  gs=002b             efl=00000246
ws7v6!Exceptionloginitialization$qqrv+0x5081a:
00673a1e 31c0            xor     eax,eax
 # ChildEBP RetAddr      Args to Child              
WARNING: Stack unwind information not available. Following frames may be wrong.
00 0164dc9c 0067850d     000004e4 0164e758 006268cf ws7v6!Exceptionloginitialization$qqrv+0x504d5
01 0164dce8 005defce     089ac406 00000057 089abf30 ws7v6!Exceptionloginitialization$qqrv+0x55309
02 0164e75c 005e06f3     00000000 089ac406 00000057 ws7v6!FupeditorfFinalize+0xabe
eax=00000100 ebx=00c075b8 ecx=00000001 edx=00000003 esi=0164cc98 edi=00000004
eip=006736d9 esp=0164cc68 ebp=0164dc9c iopl=0         nv up ei pl zr na pe nc
cs=0023  ss=002b  ds=002b  es=002b  fs=0053  gs=002b             efl=00000246
ws7v6!Exceptionloginitialization$qqrv+0x504d5:
006736d9 749f            je      ws7v6!Exceptionloginitialization$qqrv+0x50476 (0067367a) [br=1]
 # ChildEBP RetAddr      Args to Child              
WARNING: Stack unwind information not available. Following frames may be wrong.
00 0164dc9c 0067850d     000004e4 0164e758 006268cf ws7v6!Exceptionloginitialization$qqrv+0x504c8
01 0164dce8 005defce     089ac406 00000057 089abf30 ws7v6!Exceptionloginitialization$qqrv+0x55309
02 0164e75c 005e06f3     00000000 089ac406 00000057 ws7v6!FupeditorfFinalize+0xabe
eax=089e1370 ebx=00c075b8 ecx=12302070 edx=089dc2b0 esi=0164cc98 edi=00000004
eip=006736cc esp=0164cc68 ebp=0164dc9c iopl=0         nv up ei pl zr na pe nc
cs=0023  ss=002b  ds=002b  es=002b  fs=0053  gs=002b             efl=00000246
ws7v6!Exceptionloginitialization$qqrv+0x504c8:
006736cc 5b              pop     ebx
 # ChildEBP RetAddr      Args to Child              
WARNING: Stack unwind information not available. Following frames may be wrong.
00 0164dce8 005defed     089ac406 00000057 089abf30 ws7v6!Exceptionloginitialization$qqrv+0x50855
01 0164e75c 005e06f3     00000000 089ac406 00000057 ws7v6!FupeditorfFinalize+0xadd
02 0164e7e0 005e08c3     00008195 089abf30 0164e9e8 ws7v6!FupeditorfFinalize+0x21e3
eax=00000100 ebx=00c075b8 ecx=089e1370 edx=089dc2b0 esi=00000002 edi=0164e01c
eip=00673a59 esp=0164dcc8 ebp=0164dce8 iopl=0         nv up ei pl zr na pe nc
cs=0023  ss=002b  ds=002b  es=002b  fs=0053  gs=002b             efl=00000246
ws7v6!Exceptionloginitialization$qqrv+0x50855:
00673a59 7494            je      ws7v6!Exceptionloginitialization$qqrv+0x507eb (006739ef) [br=1]
 # ChildEBP RetAddr      Args to Child              
WARNING: Stack unwind information not available. Following frames may be wrong.
00 0164dce8 005defed     089ac406 00000057 089abf30 ws7v6!Exceptionloginitialization$qqrv+0x5081a
01 0164e75c 005e06f3     00000000 089ac406 00000057 ws7v6!FupeditorfFinalize+0xadd
02 0164e7e0 005e08c3     00008195 089abf30 0164e9e8 ws7v6!FupeditorfFinalize+0x21e3
eax=00000001 ebx=00c075b8 ecx=12302070 edx=089dc2b0 esi=00000002 edi=0164e01c
eip=00673a1e esp=0164dcc8 ebp=0164dce8 iopl=0         nv up ei pl zr na pe nc
cs=0023  ss=002b  ds=002b  es=002b  fs=0053  gs=002b             efl=00000246
ws7v6!Exceptionloginitialization$qqrv+0x5081a:
00673a1e 31c0            xor     eax,eax
 # ChildEBP RetAddr      Args to Child              
WARNING: Stack unwind information not available. Following frames may be wrong.
00 0164dc9c 0067850d     000004e4 0164e754 006268cf ws7v6!Exceptionloginitialization$qqrv+0x504d5
01 0164dce8 005df024     089ac406 00000057 089abf30 ws7v6!Exceptionloginitialization$qqrv+0x55309
02 0164e75c 005e06f3     00000000 089ac406 00000057 ws7v6!FupeditorfFinalize+0xb14
eax=00000100 ebx=00c075b8 ecx=00000001 edx=00000003 esi=0164cc98 edi=00000004
eip=006736d9 esp=0164cc68 ebp=0164dc9c iopl=0         nv up ei pl zr na pe nc
cs=0023  ss=002b  ds=002b  es=002b  fs=0053  gs=002b             efl=00000246
ws7v6!Exceptionloginitialization$qqrv+0x504d5:
006736d9 749f            je      ws7v6!Exceptionloginitialization$qqrv+0x50476 (0067367a) [br=1]
 # ChildEBP RetAddr      Args to Child              
WARNING: Stack unwind information not available. Following frames may be wrong.
00 0164dc9c 0067850d     000004e4 0164e754 006268cf ws7v6!Exceptionloginitialization$qqrv+0x504c8
01 0164dce8 005df024     089ac406 00000057 089abf30 ws7v6!Exceptionloginitialization$qqrv+0x55309
02 0164e75c 005e06f3     00000000 089ac406 00000057 ws7v6!FupeditorfFinalize+0xb14
eax=089e1370 ebx=00c075b8 ecx=12302070 edx=089dc2b0 esi=0164cc98 edi=00000004
eip=006736cc esp=0164cc68 ebp=0164dc9c iopl=0         nv up ei pl zr na pe nc
cs=0023  ss=002b  ds=002b  es=002b  fs=0053  gs=002b             efl=00000246
ws7v6!Exceptionloginitialization$qqrv+0x504c8:
006736cc 5b              pop     ebx
 # ChildEBP RetAddr      Args to Child              
WARNING: Stack unwind information not available. Following frames may be wrong.
00 0164dce8 005df04b     089ac406 00000057 089abf30 ws7v6!Exceptionloginitialization$qqrv+0x50855
01 0164e75c 005e06f3     00000000 089ac406 00000057 ws7v6!FupeditorfFinalize+0xb3b
02 0164e7e0 005e08c3     00008195 089abf30 0164e9e8 ws7v6!FupeditorfFinalize+0x21e3
eax=00000100 ebx=00c075b8 ecx=089e1370 edx=089dc2b0 esi=00000002 edi=0164e01c
eip=00673a59 esp=0164dcc8 ebp=0164dce8 iopl=0         nv up ei pl zr na pe nc
cs=0023  ss=002b  ds=002b  es=002b  fs=0053  gs=002b             efl=00000246
ws7v6!Exceptionloginitialization$qqrv+0x50855:
00673a59 7494            je      ws7v6!Exceptionloginitialization$qqrv+0x507eb (006739ef) [br=1]
 # ChildEBP RetAddr      Args to Child              
WARNING: Stack unwind information not available. Following frames may be wrong.
00 0164dce8 005df04b     089ac406 00000057 089abf30 ws7v6!Exceptionloginitialization$qqrv+0x5081a
01 0164e75c 005e06f3     00000000 089ac406 00000057 ws7v6!FupeditorfFinalize+0xb3b
02 0164e7e0 005e08c3     00008195 089abf30 0164e9e8 ws7v6!FupeditorfFinalize+0x21e3
eax=00000001 ebx=00c075b8 ecx=12302070 edx=089dc2b0 esi=00000002 edi=0164e01c
eip=00673a1e esp=0164dcc8 ebp=0164dce8 iopl=0         nv up ei pl zr na pe nc
cs=0023  ss=002b  ds=002b  es=002b  fs=0053  gs=002b             efl=00000246
ws7v6!Exceptionloginitialization$qqrv+0x5081a:
00673a1e 31c0            xor     eax,eax
 # ChildEBP RetAddr      Args to Child              
WARNING: Stack unwind information not available. Following frames may be wrong.
00 0164dc9c 0067850d     000004e4 0164e750 006268cf ws7v6!Exceptionloginitialization$qqrv+0x504d5
01 0164dce8 005df093     089ac406 00000057 089abf30 ws7v6!Exceptionloginitialization$qqrv+0x55309
02 0164e75c 005e06f3     00000000 089ac406 00000057 ws7v6!FupeditorfFinalize+0xb83
eax=00000100 ebx=00c075b8 ecx=00000001 edx=00000003 esi=0164cc98 edi=00000007
eip=006736d9 esp=0164cc68 ebp=0164dc9c iopl=0         nv up ei pl zr na pe nc
cs=0023  ss=002b  ds=002b  es=002b  fs=0053  gs=002b             efl=00000246
ws7v6!Exceptionloginitialization$qqrv+0x504d5:
006736d9 749f            je      ws7v6!Exceptionloginitialization$qqrv+0x50476 (0067367a) [br=1]
 # ChildEBP RetAddr      Args to Child              
WARNING: Stack unwind information not available. Following frames may be wrong.
00 0164dc9c 0067850d     000004e4 0164e750 006268cf ws7v6!Exceptionloginitialization$qqrv+0x504c8
01 0164dce8 005df093     089ac406 00000057 089abf30 ws7v6!Exceptionloginitialization$qqrv+0x55309
02 0164e75c 005e06f3     00000000 089ac406 00000057 ws7v6!FupeditorfFinalize+0xb83
eax=089e1370 ebx=00c075b8 ecx=12302070 edx=089dc2b0 esi=0164cc98 edi=00000007
eip=006736cc esp=0164cc68 ebp=0164dc9c iopl=0         nv up ei pl zr na pe nc
cs=0023  ss=002b  ds=002b  es=002b  fs=0053  gs=002b             efl=00000246
ws7v6!Exceptionloginitialization$qqrv+0x504c8:
006736cc 5b              pop     ebx
 # ChildEBP RetAddr      Args to Child              
WARNING: Stack unwind information not available. Following frames may be wrong.
00 0164dce8 005df0c2     089ac406 00000057 089abf30 ws7v6!Exceptionloginitialization$qqrv+0x50855
01 0164e75c 005e06f3     00000000 089ac406 00000057 ws7v6!FupeditorfFinalize+0xbb2
02 0164e7e0 005e08c3     00008195 089abf30 0164e9e8 ws7v6!FupeditorfFinalize+0x21e3
eax=00000100 ebx=00c075b8 ecx=089e1370 edx=089dc2b0 esi=00000002 edi=0164e01c
eip=00673a59 esp=0164dcc8 ebp=0164dce8 iopl=0         nv up ei pl zr na pe nc
cs=0023  ss=002b  ds=002b  es=002b  fs=0053  gs=002b             efl=00000246
ws7v6!Exceptionloginitialization$qqrv+0x50855:
00673a59 7494            je      ws7v6!Exceptionloginitialization$qqrv+0x507eb (006739ef) [br=1]
 # ChildEBP RetAddr      Args to Child              
WARNING: Stack unwind information not available. Following frames may be wrong.
00 0164dce8 005df0c2     089ac406 00000057 089abf30 ws7v6!Exceptionloginitialization$qqrv+0x5081a
01 0164e75c 005e06f3     00000000 089ac406 00000057 ws7v6!FupeditorfFinalize+0xbb2
02 0164e7e0 005e08c3     00008195 089abf30 0164e9e8 ws7v6!FupeditorfFinalize+0x21e3
eax=00000001 ebx=00c075b8 ecx=12302070 edx=089dc2b0 esi=00000002 edi=0164e01c
eip=00673a1e esp=0164dcc8 ebp=0164dce8 iopl=0         nv up ei pl zr na pe nc
cs=0023  ss=002b  ds=002b  es=002b  fs=0053  gs=002b             efl=00000246
ws7v6!Exceptionloginitialization$qqrv+0x5081a:
00673a1e 31c0            xor     eax,eax
 # ChildEBP RetAddr      Args to Child              
WARNING: Stack unwind information not available. Following frames may be wrong.
00 0164e664 0067850d     000004e4 0164e744 006268cf ws7v6!Exceptionloginitialization$qqrv+0x504d5
01 0164e6b0 005df37d     086f4dd0 00000005 089abf30 ws7v6!Exceptionloginitialization$qqrv+0x55309
02 0164e750 005e0553     00500000 3910cccd 0000000f ws7v6!FupeditorfFinalize+0xe6d
eax=00000100 ebx=00c075b8 ecx=00000001 edx=00000003 esi=0164d660 edi=00000007
eip=006736d9 esp=0164d630 ebp=0164e664 iopl=0         nv up ei pl zr na pe nc
cs=0023  ss=002b  ds=002b  es=002b  fs=0053  gs=002b             efl=00000246
ws7v6!Exceptionloginitialization$qqrv+0x504d5:
006736d9 749f            je      ws7v6!Exceptionloginitialization$qqrv+0x50476 (0067367a) [br=1]
 # ChildEBP RetAddr      Args to Child              
WARNING: Stack unwind information not available. Following frames may be wrong.
00 0164e664 0067850d     000004e4 0164e744 006268cf ws7v6!Exceptionloginitialization$qqrv+0x504c8
01 0164e6b0 005df37d     086f4dd0 00000005 089abf30 ws7v6!Exceptionloginitialization$qqrv+0x55309
02 0164e750 005e0553     00500000 3910cccd 0000000f ws7v6!FupeditorfFinalize+0xe6d
eax=089e1370 ebx=00c075b8 ecx=12302070 edx=089dc2b0 esi=0164d660 edi=00000007
eip=006736cc esp=0164d630 ebp=0164e664 iopl=0         nv up ei pl zr na pe nc
cs=0023  ss=002b  ds=002b  es=002b  fs=0053  gs=002b             efl=00000246
ws7v6!Exceptionloginitialization$qqrv+0x504c8:
006736cc 5b              pop     ebx
 # ChildEBP RetAddr      Args to Child              
WARNING: Stack unwind information not available. Following frames may be wrong.
00 0164e6b0 005df3a3     086f4dd0 00000005 089abf30 ws7v6!Exceptionloginitialization$qqrv+0x50855
01 0164e750 005e0553     00500000 3910cccd 0000000f ws7v6!FupeditorfFinalize+0xe93
02 0164e7e0 005e08c3     00008195 089abf30 0164e9e8 ws7v6!FupeditorfFinalize+0x2043
eax=00000100 ebx=00c075b8 ecx=089e1370 edx=089dc2b0 esi=00000002 edi=0070ba38
eip=00673a59 esp=0164e690 ebp=0164e6b0 iopl=0         nv up ei pl zr na pe nc
cs=0023  ss=002b  ds=002b  es=002b  fs=0053  gs=002b             efl=00000246
ws7v6!Exceptionloginitialization$qqrv+0x50855:
00673a59 7494            je      ws7v6!Exceptionloginitialization$qqrv+0x507eb (006739ef) [br=1]
 # ChildEBP RetAddr      Args to Child              
WARNING: Stack unwind information not available. Following frames may be wrong.
00 0164e6b0 005df3a3     086f4dd0 00000005 089abf30 ws7v6!Exceptionloginitialization$qqrv+0x5081a
01 0164e750 005e0553     00500000 3910cccd 0000000f ws7v6!FupeditorfFinalize+0xe93
02 0164e7e0 005e08c3     00008195 089abf30 0164e9e8 ws7v6!FupeditorfFinalize+0x2043
eax=00000001 ebx=00c075b8 ecx=12302070 edx=089dc2b0 esi=00000002 edi=0070ba38
eip=00673a1e esp=0164e690 ebp=0164e6b0 iopl=0         nv up ei pl zr na pe nc
cs=0023  ss=002b  ds=002b  es=002b  fs=0053  gs=002b             efl=00000246
ws7v6!Exceptionloginitialization$qqrv+0x5081a:
00673a1e 31c0            xor     eax,eax
 # ChildEBP RetAddr      Args to Child              
WARNING: Stack unwind information not available. Following frames may be wrong.
00 0164e664 0067850d     000004e4 0164e740 006268cf ws7v6!Exceptionloginitialization$qqrv+0x504d5
01 0164e6b0 005df3d4     086f4dd0 00000005 089abf30 ws7v6!Exceptionloginitialization$qqrv+0x55309
02 0164e750 005e0553     00500000 3910cccd 0000000f ws7v6!FupeditorfFinalize+0xec4
eax=00000100 ebx=00c075b8 ecx=00000001 edx=00000003 esi=0164d660 edi=00000005
eip=006736d9 esp=0164d630 ebp=0164e664 iopl=0         nv up ei pl zr na pe nc
cs=0023  ss=002b  ds=002b  es=002b  fs=0053  gs=002b             efl=00000246
ws7v6!Exceptionloginitialization$qqrv+0x504d5:
006736d9 749f            je      ws7v6!Exceptionloginitialization$qqrv+0x50476 (0067367a) [br=1]
 # ChildEBP RetAddr      Args to Child              
WARNING: Stack unwind information not available. Following frames may be wrong.
00 0164e664 0067850d     000004e4 0164e740 006268cf ws7v6!Exceptionloginitialization$qqrv+0x504c8
01 0164e6b0 005df3d4     086f4dd0 00000005 089abf30 ws7v6!Exceptionloginitialization$qqrv+0x55309
02 0164e750 005e0553     00500000 3910cccd 0000000f ws7v6!FupeditorfFinalize+0xec4
eax=089e1370 ebx=00c075b8 ecx=12302070 edx=089dc2b0 esi=0164d660 edi=00000005
eip=006736cc esp=0164d630 ebp=0164e664 iopl=0         nv up ei pl zr na pe nc
cs=0023  ss=002b  ds=002b  es=002b  fs=0053  gs=002b             efl=00000246
ws7v6!Exceptionloginitialization$qqrv+0x504c8:
006736cc 5b              pop     ebx
 # ChildEBP RetAddr      Args to Child              
WARNING: Stack unwind information not available. Following frames may be wrong.
00 0164e6b0 005df3fa     086f4dd0 00000005 089abf30 ws7v6!Exceptionloginitialization$qqrv+0x50855
01 0164e750 005e0553     00500000 3910cccd 0000000f ws7v6!FupeditorfFinalize+0xeea
02 0164e7e0 005e08c3     00008195 089abf30 0164e9e8 ws7v6!FupeditorfFinalize+0x2043
eax=00000100 ebx=00c075b8 ecx=089e1370 edx=089dc2b0 esi=00000002 edi=0070ba38
eip=00673a59 esp=0164e690 ebp=0164e6b0 iopl=0         nv up ei pl zr na pe nc
cs=0023  ss=002b  ds=002b  es=002b  fs=0053  gs=002b             efl=00000246
ws7v6!Exceptionloginitialization$qqrv+0x50855:
00673a59 7494            je      ws7v6!Exceptionloginitialization$qqrv+0x507eb (006739ef) [br=1]
 # ChildEBP RetAddr      Args to Child              
WARNING: Stack unwind information not available. Following frames may be wrong.
00 0164e6b0 005df3fa     086f4dd0 00000005 089abf30 ws7v6!Exceptionloginitialization$qqrv+0x5081a
01 0164e750 005e0553     00500000 3910cccd 0000000f ws7v6!FupeditorfFinalize+0xeea
02 0164e7e0 005e08c3     00008195 089abf30 0164e9e8 ws7v6!FupeditorfFinalize+0x2043
eax=00000001 ebx=00c075b8 ecx=12302070 edx=089dc2b0 esi=00000002 edi=0070ba38
eip=00673a1e esp=0164e690 ebp=0164e6b0 iopl=0         nv up ei pl zr na pe nc
cs=0023  ss=002b  ds=002b  es=002b  fs=0053  gs=002b             efl=00000246
ws7v6!Exceptionloginitialization$qqrv+0x5081a:
00673a1e 31c0            xor     eax,eax
 # ChildEBP RetAddr      Args to Child              
WARNING: Stack unwind information not available. Following frames may be wrong.
00 0164e664 0067850d     000004e4 0164e73c 006268cf ws7v6!Exceptionloginitialization$qqrv+0x504d5
01 0164e6b0 005df44e     086f4dd0 00000005 089abf30 ws7v6!Exceptionloginitialization$qqrv+0x55309
02 0164e750 005e0553     00500000 3910cccd 0000000f ws7v6!FupeditorfFinalize+0xf3e
eax=00000100 ebx=00c075b8 ecx=00000001 edx=00000003 esi=0164d660 edi=00000007
eip=006736d9 esp=0164d630 ebp=0164e664 iopl=0         nv up ei pl zr na pe nc
cs=0023  ss=002b  ds=002b  es=002b  fs=0053  gs=002b             efl=00000246
ws7v6!Exceptionloginitialization$qqrv+0x504d5:
006736d9 749f            je      ws7v6!Exceptionloginitialization$qqrv+0x50476 (0067367a) [br=1]
 # ChildEBP RetAddr      Args to Child              
WARNING: Stack unwind information not available. Following frames may be wrong.
00 0164e664 0067850d     000004e4 0164e73c 006268cf ws7v6!Exceptionloginitialization$qqrv+0x504c8
01 0164e6b0 005df44e     086f4dd0 00000005 089abf30 ws7v6!Exceptionloginitialization$qqrv+0x55309
02 0164e750 005e0553     00500000 3910cccd 0000000f ws7v6!FupeditorfFinalize+0xf3e
eax=089e1370 ebx=00c075b8 ecx=12302070 edx=089dc2b0 esi=0164d660 edi=00000007
eip=006736cc esp=0164d630 ebp=0164e664 iopl=0         nv up ei pl zr na pe nc
cs=0023  ss=002b  ds=002b  es=002b  fs=0053  gs=002b             efl=00000246
ws7v6!Exceptionloginitialization$qqrv+0x504c8:
006736cc 5b              pop     ebx
 # ChildEBP RetAddr      Args to Child              
WARNING: Stack unwind information not available. Following frames may be wrong.
00 0164e6b0 005df474     086f4dd0 00000005 089abf30 ws7v6!Exceptionloginitialization$qqrv+0x50855
01 0164e750 005e0553     00500000 3910cccd 0000000f ws7v6!FupeditorfFinalize+0xf64
02 0164e7e0 005e08c3     00008195 089abf30 0164e9e8 ws7v6!FupeditorfFinalize+0x2043
eax=00000100 ebx=00c075b8 ecx=089e1370 edx=089dc2b0 esi=00000002 edi=0070ba38
eip=00673a59 esp=0164e690 ebp=0164e6b0 iopl=0         nv up ei pl zr na pe nc
cs=0023  ss=002b  ds=002b  es=002b  fs=0053  gs=002b             efl=00000246
ws7v6!Exceptionloginitialization$qqrv+0x50855:
00673a59 7494            je      ws7v6!Exceptionloginitialization$qqrv+0x507eb (006739ef) [br=1]
 # ChildEBP RetAddr      Args to Child              
WARNING: Stack unwind information not available. Following frames may be wrong.
00 0164e6b0 005df474     086f4dd0 00000005 089abf30 ws7v6!Exceptionloginitialization$qqrv+0x5081a
01 0164e750 005e0553     00500000 3910cccd 0000000f ws7v6!FupeditorfFinalize+0xf64
02 0164e7e0 005e08c3     00008195 089abf30 0164e9e8 ws7v6!FupeditorfFinalize+0x2043
eax=00000001 ebx=00c075b8 ecx=12302070 edx=089dc2b0 esi=00000002 edi=0070ba38
eip=00673a1e esp=0164e690 ebp=0164e6b0 iopl=0         nv up ei pl zr na pe nc
cs=0023  ss=002b  ds=002b  es=002b  fs=0053  gs=002b             efl=00000246
ws7v6!Exceptionloginitialization$qqrv+0x5081a:
00673a1e 31c0            xor     eax,eax
 # ChildEBP RetAddr      Args to Child              
WARNING: Stack unwind information not available. Following frames may be wrong.
00 0164dc9c 0067850d     000004e4 0164e758 006268cf ws7v6!Exceptionloginitialization$qqrv+0x504d5
01 0164dce8 005defce     089ac406 00000057 089abf30 ws7v6!Exceptionloginitialization$qqrv+0x55309
02 0164e75c 005e06f3     00000000 089ac406 00000057 ws7v6!FupeditorfFinalize+0xabe
eax=00000100 ebx=00c075b8 ecx=00000001 edx=00000003 esi=0164cc98 edi=00000004
eip=006736d9 esp=0164cc68 ebp=0164dc9c iopl=0         nv up ei pl zr na pe nc
cs=0023  ss=002b  ds=002b  es=002b  fs=0053  gs=002b             efl=00000246
ws7v6!Exceptionloginitialization$qqrv+0x504d5:
006736d9 749f            je      ws7v6!Exceptionloginitialization$qqrv+0x50476 (0067367a) [br=1]
 # ChildEBP RetAddr      Args to Child              
WARNING: Stack unwind information not available. Following frames may be wrong.
00 0164dc9c 0067850d     000004e4 0164e758 006268cf ws7v6!Exceptionloginitialization$qqrv+0x504c8
01 0164dce8 005defce     089ac406 00000057 089abf30 ws7v6!Exceptionloginitialization$qqrv+0x55309
02 0164e75c 005e06f3     00000000 089ac406 00000057 ws7v6!FupeditorfFinalize+0xabe
eax=089e1370 ebx=00c075b8 ecx=12302070 edx=089dc2b0 esi=0164cc98 edi=00000004
eip=006736cc esp=0164cc68 ebp=0164dc9c iopl=0         nv up ei pl zr na pe nc
cs=0023  ss=002b  ds=002b  es=002b  fs=0053  gs=002b             efl=00000246
ws7v6!Exceptionloginitialization$qqrv+0x504c8:
006736cc 5b              pop     ebx
 # ChildEBP RetAddr      Args to Child              
WARNING: Stack unwind information not available. Following frames may be wrong.
00 0164dce8 005defed     089ac406 00000057 089abf30 ws7v6!Exceptionloginitialization$qqrv+0x50855
01 0164e75c 005e06f3     00000000 089ac406 00000057 ws7v6!FupeditorfFinalize+0xadd
02 0164e7e0 005e08c3     00008195 089abf30 0164e9e8 ws7v6!FupeditorfFinalize+0x21e3
eax=00000100 ebx=00c075b8 ecx=089e1370 edx=089dc2b0 esi=00000002 edi=0164e01c
eip=00673a59 esp=0164dcc8 ebp=0164dce8 iopl=0         nv up ei pl zr na pe nc
cs=0023  ss=002b  ds=002b  es=002b  fs=0053  gs=002b             efl=00000246
ws7v6!Exceptionloginitialization$qqrv+0x50855:
00673a59 7494            je      ws7v6!Exceptionloginitialization$qqrv+0x507eb (006739ef) [br=1]
 # ChildEBP RetAddr      Args to Child              
WARNING: Stack unwind information not available. Following frames may be wrong.
00 0164dce8 005defed     089ac406 00000057 089abf30 ws7v6!Exceptionloginitialization$qqrv+0x5081a
01 0164e75c 005e06f3     00000000 089ac406 00000057 ws7v6!FupeditorfFinalize+0xadd
02 0164e7e0 005e08c3     00008195 089abf30 0164e9e8 ws7v6!FupeditorfFinalize+0x21e3
eax=00000001 ebx=00c075b8 ecx=12302070 edx=089dc2b0 esi=00000002 edi=0164e01c
eip=00673a1e esp=0164dcc8 ebp=0164dce8 iopl=0         nv up ei pl zr na pe nc
cs=0023  ss=002b  ds=002b  es=002b  fs=0053  gs=002b             efl=00000246
ws7v6!Exceptionloginitialization$qqrv+0x5081a:
00673a1e 31c0            xor     eax,eax
 # ChildEBP RetAddr      Args to Child              
WARNING: Stack unwind information not available. Following frames may be wrong.
00 0164dc9c 0067850d     000004e4 0164e754 006268cf ws7v6!Exceptionloginitialization$qqrv+0x504d5
01 0164dce8 005df024     089ac406 00000057 089abf30 ws7v6!Exceptionloginitialization$qqrv+0x55309
02 0164e75c 005e06f3     00000000 089ac406 00000057 ws7v6!FupeditorfFinalize+0xb14
eax=00000100 ebx=00c075b8 ecx=00000001 edx=00000003 esi=0164cc98 edi=00000004
eip=006736d9 esp=0164cc68 ebp=0164dc9c iopl=0         nv up ei pl zr na pe nc
cs=0023  ss=002b  ds=002b  es=002b  fs=0053  gs=002b             efl=00000246
ws7v6!Exceptionloginitialization$qqrv+0x504d5:
006736d9 749f            je      ws7v6!Exceptionloginitialization$qqrv+0x50476 (0067367a) [br=1]
 # ChildEBP RetAddr      Args to Child              
WARNING: Stack unwind information not available. Following frames may be wrong.
00 0164dc9c 0067850d     000004e4 0164e754 006268cf ws7v6!Exceptionloginitialization$qqrv+0x504c8
01 0164dce8 005df024     089ac406 00000057 089abf30 ws7v6!Exceptionloginitialization$qqrv+0x55309
02 0164e75c 005e06f3     00000000 089ac406 00000057 ws7v6!FupeditorfFinalize+0xb14
eax=089e1370 ebx=00c075b8 ecx=12302070 edx=089dc2b0 esi=0164cc98 edi=00000004
eip=006736cc esp=0164cc68 ebp=0164dc9c iopl=0         nv up ei pl zr na pe nc
cs=0023  ss=002b  ds=002b  es=002b  fs=0053  gs=002b             efl=00000246
ws7v6!Exceptionloginitialization$qqrv+0x504c8:
006736cc 5b              pop     ebx
 # ChildEBP RetAddr      Args to Child              
WARNING: Stack unwind information not available. Following frames may be wrong.
00 0164dce8 005df04b     089ac406 00000057 089abf30 ws7v6!Exceptionloginitialization$qqrv+0x50855
01 0164e75c 005e06f3     00000000 089ac406 00000057 ws7v6!FupeditorfFinalize+0xb3b
02 0164e7e0 005e08c3     00008195 089abf30 0164e9e8 ws7v6!FupeditorfFinalize+0x21e3
eax=00000100 ebx=00c075b8 ecx=089e1370 edx=089dc2b0 esi=00000002 edi=0164e01c
eip=00673a59 esp=0164dcc8 ebp=0164dce8 iopl=0         nv up ei pl zr na pe nc
cs=0023  ss=002b  ds=002b  es=002b  fs=0053  gs=002b             efl=00000246
ws7v6!Exceptionloginitialization$qqrv+0x50855:
00673a59 7494            je      ws7v6!Exceptionloginitialization$qqrv+0x507eb (006739ef) [br=1]
 # ChildEBP RetAddr      Args to Child              
WARNING: Stack unwind information not available. Following frames may be wrong.
00 0164dce8 005df04b     089ac406 00000057 089abf30 ws7v6!Exceptionloginitialization$qqrv+0x5081a
01 0164e75c 005e06f3     00000000 089ac406 00000057 ws7v6!FupeditorfFinalize+0xb3b
02 0164e7e0 005e08c3     00008195 089abf30 0164e9e8 ws7v6!FupeditorfFinalize+0x21e3
eax=00000001 ebx=00c075b8 ecx=12302070 edx=089dc2b0 esi=00000002 edi=0164e01c
eip=00673a1e esp=0164dcc8 ebp=0164dce8 iopl=0         nv up ei pl zr na pe nc
cs=0023  ss=002b  ds=002b  es=002b  fs=0053  gs=002b             efl=00000246
ws7v6!Exceptionloginitialization$qqrv+0x5081a:
00673a1e 31c0            xor     eax,eax
eax=00000001 ebx=00c075b8 ecx=12302070 edx=089dc2b0 esi=00000002 edi=0164e01c
eip=00673a1e esp=0164dcc8 ebp=0164dce8 iopl=0         nv up ei pl zr na pe nc
cs=0023  ss=002b  ds=002b  es=002b  fs=0053  gs=002b             efl=00000246
ws7v6!Exceptionloginitialization$qqrv+0x5081a:
00673a1e 31c0            xor     eax,eax
