00 0164e9b0 0071f4cb     0164e9c4 0071f4e3 0164e9e0 ws7v6!Exceptionloginitialization$qqrv+0x5047c
01 0164e9e0 00645ab6     00000200 00000000 00340006 ws7v6!Exceptionloginitialization$qqrv+0xfc2c7
02 0164e9f8 76192edb     00020918 00000200 00000000 ws7v6!Exceptionloginitialization$qqrv+0x228b2
eax=124bb7d0 ebx=00c07598 ecx=00000001 edx=00c07598 esi=00000004 edi=08452970
eip=00673680 esp=0164e924 ebp=0164e9b0 iopl=0         nv up ei pl zr na pe nc
cs=0023  ss=002b  ds=002b  es=002b  fs=0053  gs=002b             efl=00000246
ws7v6!Exceptionloginitialization$qqrv+0x5047c:
00673680 b9f8ffffff      mov     ecx,0FFFFFFF8h
 # ChildEBP RetAddr      Args to Child              
WARNING: Stack unwind information not available. Following frames may be wrong.
00 0164e9b0 0071f4cb     0164e9c4 0071f4e3 0164e9e0 ws7v6!Exceptionloginitialization$qqrv+0x504b1
01 0164e9e0 00645ab6     00000200 00000000 00340006 ws7v6!Exceptionloginitialization$qqrv+0xfc2c7
02 0164e9f8 76192edb     00020918 00000200 00000000 ws7v6!Exceptionloginitialization$qqrv+0x228b2
eax=124bb7d0 ebx=00c07598 ecx=124bb7e8 edx=124ba760 esi=00000004 edi=08452970
eip=006736b5 esp=0164e924 ebp=0164e9b0 iopl=0         nv up ei pl nz na pe nc
cs=0023  ss=002b  ds=002b  es=002b  fs=0053  gs=002b             efl=00000206
ws7v6!Exceptionloginitialization$qqrv+0x504b1:
006736b5 c60300          mov     byte ptr [ebx],0           ds:002b:00c07598=01
 # ChildEBP RetAddr      Args to Child              
WARNING: Stack unwind information not available. Following frames may be wrong.
00 0164e54c 0067850d     000004e4 0164e5d0 006268cf ws7v6!Exceptionloginitialization$qqrv+0x5047c
01 0164e598 0043b60c     0164e5d4 1013e6c0 00000001 ws7v6!Exceptionloginitialization$qqrv+0x55309
02 0164e5d8 004367fc     00000113 006fbb70 1013e6c0 ws7v6!DlgdemouFinalize+0x9fa0
eax=124bb7e8 ebx=00c07598 ecx=00000001 edx=00c07598 esi=0164d548 edi=00000001
eip=00673680 esp=0164d518 ebp=0164e54c iopl=0         nv up ei pl zr na pe nc
cs=0023  ss=002b  ds=002b  es=002b  fs=0053  gs=002b             efl=00000246
ws7v6!Exceptionloginitialization$qqrv+0x5047c:
00673680 b9f8ffffff      mov     ecx,0FFFFFFF8h
 # ChildEBP RetAddr      Args to Child              
WARNING: Stack unwind information not available. Following frames may be wrong.
00 0164e54c 0067850d     000004e4 0164e5d0 006268cf ws7v6!Exceptionloginitialization$qqrv+0x504b1
01 0164e598 0043b60c     0164e5d4 1013e6c0 00000001 ws7v6!Exceptionloginitialization$qqrv+0x55309
02 0164e5d8 004367fc     00000113 006fbb70 1013e6c0 ws7v6!DlgdemouFinalize+0x9fa0
eax=124bb7e8 ebx=00c07598 ecx=124bb800 edx=124ba760 esi=0164d548 edi=00000001
eip=006736b5 esp=0164d518 ebp=0164e54c iopl=0         nv up ei pl nz ac po nc
cs=0023  ss=002b  ds=002b  es=002b  fs=0053  gs=002b             efl=00000212
ws7v6!Exceptionloginitialization$qqrv+0x504b1:
006736b5 c60300          mov     byte ptr [ebx],0           ds:002b:00c07598=01
 # ChildEBP RetAddr      Args to Child              
WARNING: Stack unwind information not available. Following frames may be wrong.
00 0164e410 007a59e7     00000000 0071e1b9 0164e62c ws7v6!Exceptionloginitialization$qqrv+0x5047c
01 0164e448 0071e213     007a62dd 0000b01b 08453730 ws7v6!Shdocvw_ocxFinalize+0x3c113
02 0164e478 007a4f58     0164e65c 0071b563 0000b01b ws7v6!Exceptionloginitialization$qqrv+0xfb00f
eax=124bb800 ebx=00c07598 ecx=0079d301 edx=00c07598 esi=00000000 edi=08453a08
eip=00673680 esp=0164e3b0 ebp=0164e410 iopl=0         nv up ei pl zr na pe nc
cs=0023  ss=002b  ds=002b  es=002b  fs=0053  gs=002b             efl=00000246
ws7v6!Exceptionloginitialization$qqrv+0x5047c:
00673680 b9f8ffffff      mov     ecx,0FFFFFFF8h
 # ChildEBP RetAddr      Args to Child              
WARNING: Stack unwind information not available. Following frames may be wrong.
00 0164e410 007a59e7     00000000 0071e1b9 0164e62c ws7v6!Exceptionloginitialization$qqrv+0x504b1
01 0164e448 0071e213     007a62dd 0000b01b 08453730 ws7v6!Shdocvw_ocxFinalize+0x3c113
02 0164e478 007a4f58     0164e65c 0071b563 0000b01b ws7v6!Exceptionloginitialization$qqrv+0xfb00f
eax=124bb800 ebx=00c07598 ecx=124bb818 edx=124ba760 esi=00000000 edi=08453a08
eip=006736b5 esp=0164e3b0 ebp=0164e410 iopl=0         nv up ei pl nz na pe nc
cs=0023  ss=002b  ds=002b  es=002b  fs=0053  gs=002b             efl=00000206
ws7v6!Exceptionloginitialization$qqrv+0x504b1:
006736b5 c60300          mov     byte ptr [ebx],0           ds:002b:00c07598=01
 # ChildEBP RetAddr      Args to Child              
WARNING: Stack unwind information not available. Following frames may be wrong.
00 0164e3d0 0071e084     0164e410 0164e3e8 0071e0b9 ws7v6!Exceptionloginitialization$qqrv+0x5047c
01 0164e410 007a59e7     00000000 0071e1b9 0164e62c ws7v6!Exceptionloginitialization$qqrv+0xfae80
02 0164e448 0071e213     007a62dd 0000b01b 08453730 ws7v6!Shdocvw_ocxFinalize+0x3c113
eax=124bb818 ebx=00c07598 ecx=00000001 edx=00c07598 esi=00000004 edi=085a0de0
eip=00673680 esp=0164e37c ebp=0164e3d0 iopl=0         nv up ei pl zr na pe nc
cs=0023  ss=002b  ds=002b  es=002b  fs=0053  gs=002b             efl=00000246
ws7v6!Exceptionloginitialization$qqrv+0x5047c:
00673680 b9f8ffffff      mov     ecx,0FFFFFFF8h
 # ChildEBP RetAddr      Args to Child              
WARNING: Stack unwind information not available. Following frames may be wrong.
00 0164e3d0 0071e084     0164e410 0164e3e8 0071e0b9 ws7v6!Exceptionloginitialization$qqrv+0x504b1
01 0164e410 007a59e7     00000000 0071e1b9 0164e62c ws7v6!Exceptionloginitialization$qqrv+0xfae80
02 0164e448 0071e213     007a62dd 0000b01b 08453730 ws7v6!Shdocvw_ocxFinalize+0x3c113
eax=124bb818 ebx=00c07598 ecx=124bb830 edx=124ba760 esi=00000004 edi=085a0de0
eip=006736b5 esp=0164e37c ebp=0164e3d0 iopl=0         nv up ei pl nz na pe nc
cs=0023  ss=002b  ds=002b  es=002b  fs=0053  gs=002b             efl=00000206
ws7v6!Exceptionloginitialization$qqrv+0x504b1:
006736b5 c60300          mov     byte ptr [ebx],0           ds:002b:00c07598=01
 # ChildEBP RetAddr      Args to Child              
WARNING: Stack unwind information not available. Following frames may be wrong.
00 0164e28c 00679fea     0164e29c 007acf23 00000001 ws7v6!Exceptionloginitialization$qqrv+0x5047c
01 0164e2e8 007a7788     124bb800 00000000 0164e348 ws7v6!Exceptionloginitialization$qqrv+0x56de6
02 0164e31c 007a81a6     0164e32c 007a03ec 00000018 ws7v6!Shdocvw_ocxFinalize+0x3deb4
eax=124bb830 ebx=00c07598 ecx=00000001 edx=00c07598 esi=00000000 edi=00000001
eip=00673680 esp=0164e24c ebp=0164e28c iopl=0         nv up ei pl zr na pe nc
cs=0023  ss=002b  ds=002b  es=002b  fs=0053  gs=002b             efl=00000246
ws7v6!Exceptionloginitialization$qqrv+0x5047c:
00673680 b9f8ffffff      mov     ecx,0FFFFFFF8h
 # ChildEBP RetAddr      Args to Child              
WARNING: Stack unwind information not available. Following frames may be wrong.
00 0164e28c 00679fea     0164e29c 007acf23 00000001 ws7v6!Exceptionloginitialization$qqrv+0x504b1
01 0164e2e8 007a7788     124bb800 00000000 0164e348 ws7v6!Exceptionloginitialization$qqrv+0x56de6
02 0164e31c 007a81a6     0164e32c 007a03ec 00000018 ws7v6!Shdocvw_ocxFinalize+0x3deb4
eax=124bb830 ebx=00c07598 ecx=124bb848 edx=124ba760 esi=00000000 edi=00000001
eip=006736b5 esp=0164e24c ebp=0164e28c iopl=0         nv up ei pl nz na po nc
cs=0023  ss=002b  ds=002b  es=002b  fs=0053  gs=002b             efl=00000202
ws7v6!Exceptionloginitialization$qqrv+0x504b1:
006736b5 c60300          mov     byte ptr [ebx],0           ds:002b:00c07598=01
 # ChildEBP RetAddr      Args to Child              
WARNING: Stack unwind information not available. Following frames may be wrong.
00 0164e688 006eafa7     0164e69c 006eb001 0164e6d4 ws7v6!Exceptionloginitialization$qqrv+0x5047c
01 0164e6d4 00402b9f     086f4dd0 0164e701 0164e71c ws7v6!Exceptionloginitialization$qqrv+0xc7da3
02 0164e70c 0044cd4f     085b3ec0 086f4dd0 0164e784 ws7v6!_GetExceptDLLinfo+0xc5e
eax=124bb848 ebx=00c07598 ecx=124bb701 edx=00c07598 esi=006eb0bc edi=084f3570
eip=00673680 esp=0164e630 ebp=0164e688 iopl=0         nv up ei pl zr na pe nc
cs=0023  ss=002b  ds=002b  es=002b  fs=0053  gs=002b             efl=00000246
ws7v6!Exceptionloginitialization$qqrv+0x5047c:
00673680 b9f8ffffff      mov     ecx,0FFFFFFF8h
 # ChildEBP RetAddr      Args to Child              
WARNING: Stack unwind information not available. Following frames may be wrong.
00 0164e688 006eafa7     0164e69c 006eb001 0164e6d4 ws7v6!Exceptionloginitialization$qqrv+0x504b1
01 0164e6d4 00402b9f     086f4dd0 0164e701 0164e71c ws7v6!Exceptionloginitialization$qqrv+0xc7da3
02 0164e70c 0044cd4f     085b3ec0 086f4dd0 0164e784 ws7v6!_GetExceptDLLinfo+0xc5e
eax=124bb848 ebx=00c07598 ecx=124bb860 edx=124ba760 esi=006eb0bc edi=084f3570
eip=006736b5 esp=0164e630 ebp=0164e688 iopl=0         nv up ei pl nz na pe nc
cs=0023  ss=002b  ds=002b  es=002b  fs=0053  gs=002b             efl=00000206
ws7v6!Exceptionloginitialization$qqrv+0x504b1:
006736b5 c60300          mov     byte ptr [ebx],0           ds:002b:00c07598=01
 # ChildEBP RetAddr      Args to Child              
WARNING: Stack unwind information not available. Following frames may be wrong.
00 0164e55c 00679fea     0164e56c 0063fb56 0000000c ws7v6!Exceptionloginitialization$qqrv+0x5047c
01 0164e58c 0063f6fb     0164e5a0 0063f8cb 0164e5f4 ws7v6!Exceptionloginitialization$qqrv+0x56de6
02 0164e5f4 0063be13     0164e61c 0063be2c 0164e614 ws7v6!Exceptionloginitialization$qqrv+0x1c4f7
eax=124bb860 ebx=00c07598 ecx=00000001 edx=00c07598 esi=00000000 edi=0000000c
eip=00673680 esp=0164e51c ebp=0164e55c iopl=0         nv up ei pl zr na pe nc
cs=0023  ss=002b  ds=002b  es=002b  fs=0053  gs=002b             efl=00000246
ws7v6!Exceptionloginitialization$qqrv+0x5047c:
00673680 b9f8ffffff      mov     ecx,0FFFFFFF8h
 # ChildEBP RetAddr      Args to Child              
WARNING: Stack unwind information not available. Following frames may be wrong.
00 0164e55c 00679fea     0164e56c 0063fb56 0000000c ws7v6!Exceptionloginitialization$qqrv+0x504b1
01 0164e58c 0063f6fb     0164e5a0 0063f8cb 0164e5f4 ws7v6!Exceptionloginitialization$qqrv+0x56de6
02 0164e5f4 0063be13     0164e61c 0063be2c 0164e614 ws7v6!Exceptionloginitialization$qqrv+0x1c4f7
eax=124bb860 ebx=00c07598 ecx=124bb878 edx=124ba760 esi=00000000 edi=0000000c
eip=006736b5 esp=0164e51c ebp=0164e55c iopl=0         nv up ei pl nz na po nc
cs=0023  ss=002b  ds=002b  es=002b  fs=0053  gs=002b             efl=00000202
ws7v6!Exceptionloginitialization$qqrv+0x504b1:
006736b5 c60300          mov     byte ptr [ebx],0           ds:002b:00c07598=01
 # ChildEBP RetAddr      Args to Child              
WARNING: Stack unwind information not available. Following frames may be wrong.
00 0164e588 0063f731     00000001 0164e5a0 0063f8cb ws7v6!Exceptionloginitialization$qqrv+0x5047c
01 0164e5f4 0063be13     0164e61c 0063be2c 0164e614 ws7v6!Exceptionloginitialization$qqrv+0x1c52d
02 0164e614 00637a88     0164e640 00637aa0 0164e638 ws7v6!Exceptionloginitialization$qqrv+0x18c0f
eax=124bb878 ebx=00c07598 ecx=00000001 edx=00c07598 esi=00000004 edi=08564360
eip=00673680 esp=0164e51c ebp=0164e588 iopl=0         nv up ei pl zr na pe nc
cs=0023  ss=002b  ds=002b  es=002b  fs=0053  gs=002b             efl=00000246
ws7v6!Exceptionloginitialization$qqrv+0x5047c:
00673680 b9f8ffffff      mov     ecx,0FFFFFFF8h
 # ChildEBP RetAddr      Args to Child              
WARNING: Stack unwind information not available. Following frames may be wrong.
00 0164e588 0063f731     00000001 0164e5a0 0063f8cb ws7v6!Exceptionloginitialization$qqrv+0x504b1
01 0164e5f4 0063be13     0164e61c 0063be2c 0164e614 ws7v6!Exceptionloginitialization$qqrv+0x1c52d
02 0164e614 00637a88     0164e640 00637aa0 0164e638 ws7v6!Exceptionloginitialization$qqrv+0x18c0f
eax=124bb878 ebx=00c07598 ecx=124bb890 edx=124ba760 esi=00000004 edi=08564360
eip=006736b5 esp=0164e51c ebp=0164e588 iopl=0         nv up ei pl nz na po nc
cs=0023  ss=002b  ds=002b  es=002b  fs=0053  gs=002b             efl=00000202
ws7v6!Exceptionloginitialization$qqrv+0x504b1:
006736b5 c60300          mov     byte ptr [ebx],0           ds:002b:00c07598=01
 # ChildEBP RetAddr      Args to Child              
WARNING: Stack unwind information not available. Following frames may be wrong.
00 0164e5f4 0063be13     0164e61c 0063be2c 0164e614 ws7v6!Exceptionloginitialization$qqrv+0x5047c
01 0164e614 00637a88     0164e640 00637aa0 0164e638 ws7v6!Exceptionloginitialization$qqrv+0x18c0f
02 0164e638 00637bf8     0164e664 00637c10 0164e658 ws7v6!Exceptionloginitialization$qqrv+0x14884
eax=124bb890 ebx=00c07598 ecx=00000001 edx=00c07598 esi=00000004 edi=124b2800
eip=00673680 esp=0164e54c ebp=0164e5f4 iopl=0         nv up ei pl zr na pe nc
cs=0023  ss=002b  ds=002b  es=002b  fs=0053  gs=002b             efl=00000246
ws7v6!Exceptionloginitialization$qqrv+0x5047c:
00673680 b9f8ffffff      mov     ecx,0FFFFFFF8h
 # ChildEBP RetAddr      Args to Child              
WARNING: Stack unwind information not available. Following frames may be wrong.
00 0164e5f4 0063be13     0164e61c 0063be2c 0164e614 ws7v6!Exceptionloginitialization$qqrv+0x504b1
01 0164e614 00637a88     0164e640 00637aa0 0164e638 ws7v6!Exceptionloginitialization$qqrv+0x18c0f
02 0164e638 00637bf8     0164e664 00637c10 0164e658 ws7v6!Exceptionloginitialization$qqrv+0x14884
eax=124bb890 ebx=00c07598 ecx=124bb8a8 edx=124ba760 esi=00000004 edi=124b2800
eip=006736b5 esp=0164e54c ebp=0164e5f4 iopl=0         nv up ei pl nz na pe nc
cs=0023  ss=002b  ds=002b  es=002b  fs=0053  gs=002b             efl=00000206
ws7v6!Exceptionloginitialization$qqrv+0x504b1:
006736b5 c60300          mov     byte ptr [ebx],0           ds:002b:00c07598=01
 # ChildEBP RetAddr      Args to Child              
WARNING: Stack unwind information not available. Following frames may be wrong.
00 0164e524 006449f2     00718e1d 1225900c 0851e680 ws7v6!Exceptionloginitialization$qqrv+0x5047c
01 0164e554 006eb736     0164e57c 006eb941 0164e574 ws7v6!Exceptionloginitialization$qqrv+0x217ee
02 0164e574 0063f7e6     0164e588 0063f84d 0164e5f4 ws7v6!Exceptionloginitialization$qqrv+0xc8532
eax=124bb8a8 ebx=00c07598 ecx=008fbe01 edx=00c07598 esi=0851e680 edi=00000000
eip=00673680 esp=0164e4e4 ebp=0164e524 iopl=0         nv up ei pl zr na pe nc
cs=0023  ss=002b  ds=002b  es=002b  fs=0053  gs=002b             efl=00000246
ws7v6!Exceptionloginitialization$qqrv+0x5047c:
00673680 b9f8ffffff      mov     ecx,0FFFFFFF8h
 # ChildEBP RetAddr      Args to Child              
WARNING: Stack unwind information not available. Following frames may be wrong.
00 0164e524 006449f2     00718e1d 1225900c 0851e680 ws7v6!Exceptionloginitialization$qqrv+0x504b1
01 0164e554 006eb736     0164e57c 006eb941 0164e574 ws7v6!Exceptionloginitialization$qqrv+0x217ee
02 0164e574 0063f7e6     0164e588 0063f84d 0164e5f4 ws7v6!Exceptionloginitialization$qqrv+0xc8532
eax=124bb8a8 ebx=00c07598 ecx=124bb8c0 edx=124ba760 esi=0851e680 edi=00000000
eip=006736b5 esp=0164e4e4 ebp=0164e524 iopl=0         nv up ei pl nz na pe nc
cs=0023  ss=002b  ds=002b  es=002b  fs=0053  gs=002b             efl=00000206
ws7v6!Exceptionloginitialization$qqrv+0x504b1:
006736b5 c60300          mov     byte ptr [ebx],0           ds:002b:00c07598=01
 # ChildEBP RetAddr      Args to Child              
WARNING: Stack unwind information not available. Following frames may be wrong.
00 0164e40c 00679fea     0164e41c 00666402 00000004 ws7v6!Exceptionloginitialization$qqrv+0x5047c
01 0164e43c 0066661f     0164e464 00000004 0164e488 ws7v6!Exceptionloginitialization$qqrv+0x56de6
02 0164e468 006665e9     0164e4e0 00000004 00000000 ws7v6!Exceptionloginitialization$qqrv+0x4341b
eax=124bb8c0 ebx=00c07598 ecx=00000001 edx=00c07598 esi=00000000 edi=00000004
eip=00673680 esp=0164e3cc ebp=0164e40c iopl=0         nv up ei pl zr na pe nc
cs=0023  ss=002b  ds=002b  es=002b  fs=0053  gs=002b             efl=00000246
ws7v6!Exceptionloginitialization$qqrv+0x5047c:
00673680 b9f8ffffff      mov     ecx,0FFFFFFF8h
 # ChildEBP RetAddr      Args to Child              
WARNING: Stack unwind information not available. Following frames may be wrong.
00 0164e40c 00679fea     0164e41c 00666402 00000004 ws7v6!Exceptionloginitialization$qqrv+0x504b1
01 0164e43c 0066661f     0164e464 00000004 0164e488 ws7v6!Exceptionloginitialization$qqrv+0x56de6
02 0164e468 006665e9     0164e4e0 00000004 00000000 ws7v6!Exceptionloginitialization$qqrv+0x4341b
eax=124bb8c0 ebx=00c07598 ecx=124bb8d8 edx=124ba760 esi=00000000 edi=00000004
eip=006736b5 esp=0164e3cc ebp=0164e40c iopl=0         nv up ei pl nz na po nc
cs=0023  ss=002b  ds=002b  es=002b  fs=0053  gs=002b             efl=00000202
ws7v6!Exceptionloginitialization$qqrv+0x504b1:
006736b5 c60300          mov     byte ptr [ebx],0           ds:002b:00c07598=01
 # ChildEBP RetAddr      Args to Child              
WARNING: Stack unwind information not available. Following frames may be wrong.
00 0164e468 006665e9     0164e4e0 00000003 00000000 ws7v6!Exceptionloginitialization$qqrv+0x5047c
01 0164e4a4 0063ee5f     0164e4b8 0063f03e 0164e4e8 ws7v6!Exceptionloginitialization$qqrv+0x433e5
02 0164e4e8 0063e896     00000000 0851e680 124b2800 ws7v6!Exceptionloginitialization$qqrv+0x1bc5b
eax=124bb8d8 ebx=00c07598 ecx=00000001 edx=00c07598 esi=124bb8c8 edi=00000003
eip=00673680 esp=0164e428 ebp=0164e468 iopl=0         nv up ei pl zr na pe nc
cs=0023  ss=002b  ds=002b  es=002b  fs=0053  gs=002b             efl=00000246
ws7v6!Exceptionloginitialization$qqrv+0x5047c:
00673680 b9f8ffffff      mov     ecx,0FFFFFFF8h
 # ChildEBP RetAddr      Args to Child              
WARNING: Stack unwind information not available. Following frames may be wrong.
00 0164e468 006665e9     0164e4e0 00000003 00000000 ws7v6!Exceptionloginitialization$qqrv+0x504b1
01 0164e4a4 0063ee5f     0164e4b8 0063f03e 0164e4e8 ws7v6!Exceptionloginitialization$qqrv+0x433e5
02 0164e4e8 0063e896     00000000 0851e680 124b2800 ws7v6!Exceptionloginitialization$qqrv+0x1bc5b
eax=124bb8d8 ebx=00c07598 ecx=124bb8f0 edx=124ba760 esi=124bb8c8 edi=00000003
eip=006736b5 esp=0164e428 ebp=0164e468 iopl=0         nv up ei pl nz na po nc
cs=0023  ss=002b  ds=002b  es=002b  fs=0053  gs=002b             efl=00000202
ws7v6!Exceptionloginitialization$qqrv+0x504b1:
006736b5 c60300          mov     byte ptr [ebx],0           ds:002b:00c07598=01
 # ChildEBP RetAddr      Args to Child              
WARNING: Stack unwind information not available. Following frames may be wrong.
00 0164e3e8 0071c51d     12269fd0 007189c1 12269fd0 ws7v6!Exceptionloginitialization$qqrv+0x5047c
01 0164e404 0071d019     0164e444 0071d115 0164e428 ws7v6!Exceptionloginitialization$qqrv+0xf9319
02 0164e428 00740e50     12269fd0 ffffffff 004b2800 ws7v6!Exceptionloginitialization$qqrv+0xf9e15
eax=124bb8f0 ebx=00c07598 ecx=12269f01 edx=00c07598 esi=12269fd0 edi=00000000
eip=00673680 esp=0164e390 ebp=0164e3e8 iopl=0         nv up ei pl zr na pe nc
cs=0023  ss=002b  ds=002b  es=002b  fs=0053  gs=002b             efl=00000246
ws7v6!Exceptionloginitialization$qqrv+0x5047c:
00673680 b9f8ffffff      mov     ecx,0FFFFFFF8h
 # ChildEBP RetAddr      Args to Child              
WARNING: Stack unwind information not available. Following frames may be wrong.
00 0164e3e8 0071c51d     12269fd0 007189c1 12269fd0 ws7v6!Exceptionloginitialization$qqrv+0x504b1
01 0164e404 0071d019     0164e444 0071d115 0164e428 ws7v6!Exceptionloginitialization$qqrv+0xf9319
02 0164e428 00740e50     12269fd0 ffffffff 004b2800 ws7v6!Exceptionloginitialization$qqrv+0xf9e15
eax=124bb8f0 ebx=00c07598 ecx=124bb908 edx=124ba760 esi=12269fd0 edi=00000000
eip=006736b5 esp=0164e390 ebp=0164e3e8 iopl=0         nv up ei pl nz na pe nc
cs=0023  ss=002b  ds=002b  es=002b  fs=0053  gs=002b             efl=00000206
ws7v6!Exceptionloginitialization$qqrv+0x504b1:
006736b5 c60300          mov     byte ptr [ebx],0           ds:002b:00c07598=01
 # ChildEBP RetAddr      Args to Child              
WARNING: Stack unwind information not available. Following frames may be wrong.
00 0164e3e8 0071c51d     12269fd0 007189c1 12269fd0 ws7v6!Exceptionloginitialization$qqrv+0x5047c
01 0164e404 0071d019     0164e444 0071d115 0164e428 ws7v6!Exceptionloginitialization$qqrv+0xf9319
02 0164e428 00740e50     12269fd0 ffffffff 004b2800 ws7v6!Exceptionloginitialization$qqrv+0xf9e15
eax=124bb908 ebx=00c07598 ecx=00000001 edx=00c07598 esi=00000004 edi=12269fd0
eip=00673680 esp=0164e398 ebp=0164e3e8 iopl=0         nv up ei pl zr na pe nc
cs=0023  ss=002b  ds=002b  es=002b  fs=0053  gs=002b             efl=00000246
ws7v6!Exceptionloginitialization$qqrv+0x5047c:
00673680 b9f8ffffff      mov     ecx,0FFFFFFF8h
 # ChildEBP RetAddr      Args to Child              
WARNING: Stack unwind information not available. Following frames may be wrong.
00 0164e3e8 0071c51d     12269fd0 007189c1 12269fd0 ws7v6!Exceptionloginitialization$qqrv+0x504b1
01 0164e404 0071d019     0164e444 0071d115 0164e428 ws7v6!Exceptionloginitialization$qqrv+0xf9319
02 0164e428 00740e50     12269fd0 ffffffff 004b2800 ws7v6!Exceptionloginitialization$qqrv+0xf9e15
eax=124bb908 ebx=00c07598 ecx=124bb920 edx=124ba760 esi=00000004 edi=12269fd0
eip=006736b5 esp=0164e398 ebp=0164e3e8 iopl=0         nv up ei pl nz na po nc
cs=0023  ss=002b  ds=002b  es=002b  fs=0053  gs=002b             efl=00000202
ws7v6!Exceptionloginitialization$qqrv+0x504b1:
006736b5 c60300          mov     byte ptr [ebx],0           ds:002b:00c07598=01
 # ChildEBP RetAddr      Args to Child              
WARNING: Stack unwind information not available. Following frames may be wrong.
00 0164e43c 007424db     0164e460 0067636d 0164e484 ws7v6!Exceptionloginitialization$qqrv+0x5047c
01 0164e484 0063e659     0164e4dc 0164e49c 0063e7c0 ws7v6!Exceptionloginitialization$qqrv+0x11f2d7
02 0164e4dc 0063e90a     0164e510 0063e93e 0164e508 ws7v6!Exceptionloginitialization$qqrv+0x1b455
eax=124bb920 ebx=00c07598 ecx=11921e01 edx=00c07598 esi=11921e70 edi=00000000
eip=00673680 esp=0164e3f8 ebp=0164e43c iopl=0         nv up ei pl zr na pe nc
cs=0023  ss=002b  ds=002b  es=002b  fs=0053  gs=002b             efl=00000246
ws7v6!Exceptionloginitialization$qqrv+0x5047c:
00673680 b9f8ffffff      mov     ecx,0FFFFFFF8h
 # ChildEBP RetAddr      Args to Child              
WARNING: Stack unwind information not available. Following frames may be wrong.
00 0164e43c 007424db     0164e460 0067636d 0164e484 ws7v6!Exceptionloginitialization$qqrv+0x504b1
01 0164e484 0063e659     0164e4dc 0164e49c 0063e7c0 ws7v6!Exceptionloginitialization$qqrv+0x11f2d7
02 0164e4dc 0063e90a     0164e510 0063e93e 0164e508 ws7v6!Exceptionloginitialization$qqrv+0x1b455
eax=124bb920 ebx=00c07598 ecx=124bb938 edx=124ba760 esi=11921e70 edi=00000000
eip=006736b5 esp=0164e3f8 ebp=0164e43c iopl=0         nv up ei pl nz na pe nc
cs=0023  ss=002b  ds=002b  es=002b  fs=0053  gs=002b             efl=00000206
ws7v6!Exceptionloginitialization$qqrv+0x504b1:
006736b5 c60300          mov     byte ptr [ebx],0           ds:002b:00c07598=01
 # ChildEBP RetAddr      Args to Child              
WARNING: Stack unwind information not available. Following frames may be wrong.
00 0164e484 0063e659     0164e4dc 0164e49c 0063e7c0 ws7v6!Exceptionloginitialization$qqrv+0x5047c
01 0164e4dc 0063e90a     0164e510 0063e93e 0164e508 ws7v6!Exceptionloginitialization$qqrv+0x1b455
02 0164e508 0063e849     0164e540 0063e867 0164e524 ws7v6!Exceptionloginitialization$qqrv+0x1b706
eax=124bb938 ebx=00c07598 ecx=004b2801 edx=00c07598 esi=12269fd0 edi=00000000
eip=00673680 esp=0164e40c ebp=0164e484 iopl=0         nv up ei pl zr na pe nc
cs=0023  ss=002b  ds=002b  es=002b  fs=0053  gs=002b             efl=00000246
ws7v6!Exceptionloginitialization$qqrv+0x5047c:
00673680 b9f8ffffff      mov     ecx,0FFFFFFF8h
 # ChildEBP RetAddr      Args to Child              
WARNING: Stack unwind information not available. Following frames may be wrong.
00 0164e484 0063e659     0164e4dc 0164e49c 0063e7c0 ws7v6!Exceptionloginitialization$qqrv+0x504b1
01 0164e4dc 0063e90a     0164e510 0063e93e 0164e508 ws7v6!Exceptionloginitialization$qqrv+0x1b455
02 0164e508 0063e849     0164e540 0063e867 0164e524 ws7v6!Exceptionloginitialization$qqrv+0x1b706
eax=124bb938 ebx=00c07598 ecx=124bb950 edx=124ba760 esi=12269fd0 edi=00000000
eip=006736b5 esp=0164e40c ebp=0164e484 iopl=0         nv up ei pl nz na pe nc
cs=0023  ss=002b  ds=002b  es=002b  fs=0053  gs=002b             efl=00000206
ws7v6!Exceptionloginitialization$qqrv+0x504b1:
006736b5 c60300          mov     byte ptr [ebx],0           ds:002b:00c07598=01
 # ChildEBP RetAddr      Args to Child              
WARNING: Stack unwind information not available. Following frames may be wrong.
00 0164e44c 00718b55     00718b30 006324b8 0063e4b4 ws7v6!Exceptionloginitialization$qqrv+0x5047c
01 0164e478 0063e6a0     0164e4dc 0164e490 0063e77e ws7v6!Exceptionloginitialization$qqrv+0xf5951
02 0164e4dc 0063e90a     0164e510 0063e93e 0164e508 ws7v6!Exceptionloginitialization$qqrv+0x1b49c
eax=124bb950 ebx=00c07598 ecx=00000001 edx=00c07598 esi=12269fd0 edi=124b2800
eip=00673680 esp=0164e3c0 ebp=0164e44c iopl=0         nv up ei pl zr na pe nc
cs=0023  ss=002b  ds=002b  es=002b  fs=0053  gs=002b             efl=00000246
ws7v6!Exceptionloginitialization$qqrv+0x5047c:
00673680 b9f8ffffff      mov     ecx,0FFFFFFF8h
 # ChildEBP RetAddr      Args to Child              
WARNING: Stack unwind information not available. Following frames may be wrong.
00 0164e44c 00718b55     00718b30 006324b8 0063e4b4 ws7v6!Exceptionloginitialization$qqrv+0x504b1
01 0164e478 0063e6a0     0164e4dc 0164e490 0063e77e ws7v6!Exceptionloginitialization$qqrv+0xf5951
02 0164e4dc 0063e90a     0164e510 0063e93e 0164e508 ws7v6!Exceptionloginitialization$qqrv+0x1b49c
eax=124bb950 ebx=00c07598 ecx=124bb968 edx=124ba760 esi=12269fd0 edi=124b2800
eip=006736b5 esp=0164e3c0 ebp=0164e44c iopl=0         nv up ei pl nz na po nc
cs=0023  ss=002b  ds=002b  es=002b  fs=0053  gs=002b             efl=00000202
ws7v6!Exceptionloginitialization$qqrv+0x504b1:
006736b5 c60300          mov     byte ptr [ebx],0           ds:002b:00c07598=01
 # ChildEBP RetAddr      Args to Child              
WARNING: Stack unwind information not available. Following frames may be wrong.
00 0164e44c 00718b55     00718b30 006324b8 0063e4b4 ws7v6!Exceptionloginitialization$qqrv+0x5047c
01 0164e478 0063e6a0     0164e4dc 0164e490 0063e77e ws7v6!Exceptionloginitialization$qqrv+0xf5951
02 0164e4dc 0063e90a     0164e510 0063e93e 0164e508 ws7v6!Exceptionloginitialization$qqrv+0x1b49c
eax=124bb968 ebx=00c07598 ecx=00000001 edx=00c07598 esi=00000004 edi=12269fd0
eip=00673680 esp=0164e3c8 ebp=0164e44c iopl=0         nv up ei pl zr na pe nc
cs=0023  ss=002b  ds=002b  es=002b  fs=0053  gs=002b             efl=00000246
ws7v6!Exceptionloginitialization$qqrv+0x5047c:
00673680 b9f8ffffff      mov     ecx,0FFFFFFF8h
 # ChildEBP RetAddr      Args to Child              
WARNING: Stack unwind information not available. Following frames may be wrong.
00 0164e44c 00718b55     00718b30 006324b8 0063e4b4 ws7v6!Exceptionloginitialization$qqrv+0x504b1
01 0164e478 0063e6a0     0164e4dc 0164e490 0063e77e ws7v6!Exceptionloginitialization$qqrv+0xf5951
02 0164e4dc 0063e90a     0164e510 0063e93e 0164e508 ws7v6!Exceptionloginitialization$qqrv+0x1b49c
eax=124bb968 ebx=00c07598 ecx=124bb980 edx=124ba760 esi=00000004 edi=12269fd0
eip=006736b5 esp=0164e3c8 ebp=0164e44c iopl=0         nv up ei pl nz ac pe nc
cs=0023  ss=002b  ds=002b  es=002b  fs=0053  gs=002b             efl=00000216
ws7v6!Exceptionloginitialization$qqrv+0x504b1:
006736b5 c60300          mov     byte ptr [ebx],0           ds:002b:00c07598=01
 # ChildEBP RetAddr      Args to Child              
WARNING: Stack unwind information not available. Following frames may be wrong.
00 0164e44c 00718b55     00718b30 006324b8 0063e4b4 ws7v6!Exceptionloginitialization$qqrv+0x5047c
01 0164e478 0063e6a0     0164e4dc 0164e490 0063e77e ws7v6!Exceptionloginitialization$qqrv+0xf5951
02 0164e4dc 0063e90a     0164e510 0063e93e 0164e508 ws7v6!Exceptionloginitialization$qqrv+0x1b49c
eax=124bb980 ebx=00c07598 ecx=124bb901 edx=00c07598 esi=12269fd0 edi=124b2800
eip=00673680 esp=0164e3c0 ebp=0164e44c iopl=0         nv up ei pl zr na pe nc
cs=0023  ss=002b  ds=002b  es=002b  fs=0053  gs=002b             efl=00000246
ws7v6!Exceptionloginitialization$qqrv+0x5047c:
00673680 b9f8ffffff      mov     ecx,0FFFFFFF8h
 # ChildEBP RetAddr      Args to Child              
WARNING: Stack unwind information not available. Following frames may be wrong.
00 0164e44c 00718b55     00718b30 006324b8 0063e4b4 ws7v6!Exceptionloginitialization$qqrv+0x504b1
01 0164e478 0063e6a0     0164e4dc 0164e490 0063e77e ws7v6!Exceptionloginitialization$qqrv+0xf5951
02 0164e4dc 0063e90a     0164e510 0063e93e 0164e508 ws7v6!Exceptionloginitialization$qqrv+0x1b49c
eax=124bb980 ebx=00c07598 ecx=124bb998 edx=124ba760 esi=12269fd0 edi=124b2800
eip=006736b5 esp=0164e3c0 ebp=0164e44c iopl=0         nv up ei pl nz na po nc
cs=0023  ss=002b  ds=002b  es=002b  fs=0053  gs=002b             efl=00000202
ws7v6!Exceptionloginitialization$qqrv+0x504b1:
006736b5 c60300          mov     byte ptr [ebx],0           ds:002b:00c07598=01
 # ChildEBP RetAddr      Args to Child              
WARNING: Stack unwind information not available. Following frames may be wrong.
00 0164e44c 00718b55     00718b30 006324b8 0063e4b4 ws7v6!Exceptionloginitialization$qqrv+0x5047c
01 0164e478 0063e6a0     0164e4dc 0164e490 0063e77e ws7v6!Exceptionloginitialization$qqrv+0xf5951
02 0164e4dc 0063e90a     0164e510 0063e93e 0164e508 ws7v6!Exceptionloginitialization$qqrv+0x1b49c
eax=124bb998 ebx=00c07598 ecx=00000001 edx=00c07598 esi=00000004 edi=12269fd0
eip=00673680 esp=0164e3c8 ebp=0164e44c iopl=0         nv up ei pl zr na pe nc
cs=0023  ss=002b  ds=002b  es=002b  fs=0053  gs=002b             efl=00000246
ws7v6!Exceptionloginitialization$qqrv+0x5047c:
00673680 b9f8ffffff      mov     ecx,0FFFFFFF8h
 # ChildEBP RetAddr      Args to Child              
WARNING: Stack unwind information not available. Following frames may be wrong.
00 0164e44c 00718b55     00718b30 006324b8 0063e4b4 ws7v6!Exceptionloginitialization$qqrv+0x504b1
01 0164e478 0063e6a0     0164e4dc 0164e490 0063e77e ws7v6!Exceptionloginitialization$qqrv+0xf5951
02 0164e4dc 0063e90a     0164e510 0063e93e 0164e508 ws7v6!Exceptionloginitialization$qqrv+0x1b49c
eax=124bb998 ebx=00c07598 ecx=124bb9b0 edx=124ba760 esi=00000004 edi=12269fd0
eip=006736b5 esp=0164e3c8 ebp=0164e44c iopl=0         nv up ei pl nz na po nc
cs=0023  ss=002b  ds=002b  es=002b  fs=0053  gs=002b             efl=00000202
ws7v6!Exceptionloginitialization$qqrv+0x504b1:
006736b5 c60300          mov     byte ptr [ebx],0           ds:002b:00c07598=01
 # ChildEBP RetAddr      Args to Child              
WARNING: Stack unwind information not available. Following frames may be wrong.
00 0164e3c8 00644a35     00000000 12269fd0 124b2800 ws7v6!Exceptionloginitialization$qqrv+0x5047c
01 0164e3ec 006ec0a3     1225909c 008fbeb8 1225909c ws7v6!Exceptionloginitialization$qqrv+0x21831
02 0164e404 00644d9d     1225909c 12269fd0 0164e44c ws7v6!Exceptionloginitialization$qqrv+0xc8e9f
eax=124bb9b0 ebx=00c07598 ecx=00000001 edx=00c07598 esi=124b2800 edi=1225909c
eip=00673680 esp=0164e368 ebp=0164e3c8 iopl=0         nv up ei pl zr na pe nc
cs=0023  ss=002b  ds=002b  es=002b  fs=0053  gs=002b             efl=00000246
ws7v6!Exceptionloginitialization$qqrv+0x5047c:
00673680 b9f8ffffff      mov     ecx,0FFFFFFF8h
 # ChildEBP RetAddr      Args to Child              
WARNING: Stack unwind information not available. Following frames may be wrong.
00 0164e3c8 00644a35     00000000 12269fd0 124b2800 ws7v6!Exceptionloginitialization$qqrv+0x504b1
01 0164e3ec 006ec0a3     1225909c 008fbeb8 1225909c ws7v6!Exceptionloginitialization$qqrv+0x21831
02 0164e404 00644d9d     1225909c 12269fd0 0164e44c ws7v6!Exceptionloginitialization$qqrv+0xc8e9f
eax=124bb9b0 ebx=00c07598 ecx=124bb9c8 edx=124ba760 esi=124b2800 edi=1225909c
eip=006736b5 esp=0164e368 ebp=0164e3c8 iopl=0         nv up ei pl nz na pe nc
cs=0023  ss=002b  ds=002b  es=002b  fs=0053  gs=002b             efl=00000206
ws7v6!Exceptionloginitialization$qqrv+0x504b1:
006736b5 c60300          mov     byte ptr [ebx],0           ds:002b:00c07598=01
 # ChildEBP RetAddr      Args to Child              
WARNING: Stack unwind information not available. Following frames may be wrong.
00 0164e3c8 00644a35     00000000 12269fd0 124b2800 ws7v6!Exceptionloginitialization$qqrv+0x5047c
01 0164e3ec 006ec0a3     1225909c 008fbeb8 1225909c ws7v6!Exceptionloginitialization$qqrv+0x21831
02 0164e404 00644d9d     1225909c 12269fd0 0164e44c ws7v6!Exceptionloginitialization$qqrv+0xc8e9f
eax=124bb9c8 ebx=00c07598 ecx=00000001 edx=00c07598 esi=00000000 edi=124bb9b0
eip=00673680 esp=0164e36c ebp=0164e3c8 iopl=0         nv up ei pl zr na pe nc
cs=0023  ss=002b  ds=002b  es=002b  fs=0053  gs=002b             efl=00000246
ws7v6!Exceptionloginitialization$qqrv+0x5047c:
00673680 b9f8ffffff      mov     ecx,0FFFFFFF8h
 # ChildEBP RetAddr      Args to Child              
WARNING: Stack unwind information not available. Following frames may be wrong.
00 0164e3c8 00644a35     00000000 12269fd0 124b2800 ws7v6!Exceptionloginitialization$qqrv+0x504b1
01 0164e3ec 006ec0a3     1225909c 008fbeb8 1225909c ws7v6!Exceptionloginitialization$qqrv+0x21831
02 0164e404 00644d9d     1225909c 12269fd0 0164e44c ws7v6!Exceptionloginitialization$qqrv+0xc8e9f
eax=124bb9c8 ebx=00c07598 ecx=124bb9e0 edx=124ba760 esi=00000000 edi=124bb9b0
eip=006736b5 esp=0164e36c ebp=0164e3c8 iopl=0         nv up ei pl nz na po nc
cs=0023  ss=002b  ds=002b  es=002b  fs=0053  gs=002b             efl=00000202
ws7v6!Exceptionloginitialization$qqrv+0x504b1:
006736b5 c60300          mov     byte ptr [ebx],0           ds:002b:00c07598=01
 # ChildEBP RetAddr      Args to Child              
WARNING: Stack unwind information not available. Following frames may be wrong.
00 0164e39c 006665e9     0164e414 00000003 124b2800 ws7v6!Exceptionloginitialization$qqrv+0x5047c
01 0164e3d8 0063ee5f     0164e3ec 0063f03e 0164e41c ws7v6!Exceptionloginitialization$qqrv+0x433e5
02 0164e41c 0063e896     124b2800 0851e680 12269fd0 ws7v6!Exceptionloginitialization$qqrv+0x1bc5b
eax=124bb9e0 ebx=00c07598 ecx=00000001 edx=00c07598 esi=124bb9b8 edi=00000003
eip=00673680 esp=0164e35c ebp=0164e39c iopl=0         nv up ei pl zr na pe nc
cs=0023  ss=002b  ds=002b  es=002b  fs=0053  gs=002b             efl=00000246
ws7v6!Exceptionloginitialization$qqrv+0x5047c:
00673680 b9f8ffffff      mov     ecx,0FFFFFFF8h
 # ChildEBP RetAddr      Args to Child              
WARNING: Stack unwind information not available. Following frames may be wrong.
00 0164e39c 006665e9     0164e414 00000003 124b2800 ws7v6!Exceptionloginitialization$qqrv+0x504b1
01 0164e3d8 0063ee5f     0164e3ec 0063f03e 0164e41c ws7v6!Exceptionloginitialization$qqrv+0x433e5
02 0164e41c 0063e896     124b2800 0851e680 12269fd0 ws7v6!Exceptionloginitialization$qqrv+0x1bc5b
eax=124bb9e0 ebx=00c07598 ecx=124bb9f8 edx=124ba760 esi=124bb9b8 edi=00000003
eip=006736b5 esp=0164e35c ebp=0164e39c iopl=0         nv up ei pl nz na pe nc
cs=0023  ss=002b  ds=002b  es=002b  fs=0053  gs=002b             efl=00000206
ws7v6!Exceptionloginitialization$qqrv+0x504b1:
006736b5 c60300          mov     byte ptr [ebx],0           ds:002b:00c07598=01
 # ChildEBP RetAddr      Args to Child              
WARNING: Stack unwind information not available. Following frames may be wrong.
00 0164e340 00679fea     0164e350 00666402 00000005 ws7v6!Exceptionloginitialization$qqrv+0x5047c
01 0164e370 0066661f     0164e398 00000005 0164e3bc ws7v6!Exceptionloginitialization$qqrv+0x56de6
02 0164e39c 006665e9     0164e414 00000005 124b2800 ws7v6!Exceptionloginitialization$qqrv+0x4341b
eax=124bb9f8 ebx=00c07598 ecx=00000001 edx=00c07598 esi=00000000 edi=00000005
eip=00673680 esp=0164e300 ebp=0164e340 iopl=0         nv up ei pl zr na pe nc
cs=0023  ss=002b  ds=002b  es=002b  fs=0053  gs=002b             efl=00000246
ws7v6!Exceptionloginitialization$qqrv+0x5047c:
00673680 b9f8ffffff      mov     ecx,0FFFFFFF8h
 # ChildEBP RetAddr      Args to Child              
WARNING: Stack unwind information not available. Following frames may be wrong.
00 0164e340 00679fea     0164e350 00666402 00000005 ws7v6!Exceptionloginitialization$qqrv+0x504b1
01 0164e370 0066661f     0164e398 00000005 0164e3bc ws7v6!Exceptionloginitialization$qqrv+0x56de6
02 0164e39c 006665e9     0164e414 00000005 124b2800 ws7v6!Exceptionloginitialization$qqrv+0x4341b
eax=124bb9f8 ebx=00c07598 ecx=124bba10 edx=124ba760 esi=00000000 edi=00000005
eip=006736b5 esp=0164e300 ebp=0164e340 iopl=0         nv up ei pl nz na pe nc
cs=0023  ss=002b  ds=002b  es=002b  fs=0053  gs=002b             efl=00000206
ws7v6!Exceptionloginitialization$qqrv+0x504b1:
006736b5 c60300          mov     byte ptr [ebx],0           ds:002b:00c07598=01
 # ChildEBP RetAddr      Args to Child              
WARNING: Stack unwind information not available. Following frames may be wrong.
00 0164e380 00718b55     00718b30 006324b8 0063e4b4 ws7v6!Exceptionloginitialization$qqrv+0x5047c
01 0164e3ac 0063e6a0     0164e410 0164e3c4 0063e77e ws7v6!Exceptionloginitialization$qqrv+0xf5951
02 0164e410 0063e90a     0164e468 0063e93e 0164e43c ws7v6!Exceptionloginitialization$qqrv+0x1b49c
eax=124bba10 ebx=00c07598 ecx=00000001 edx=00c07598 esi=1225e5c0 edi=12269fd0
eip=00673680 esp=0164e2f4 ebp=0164e380 iopl=0         nv up ei pl zr na pe nc
cs=0023  ss=002b  ds=002b  es=002b  fs=0053  gs=002b             efl=00000246
ws7v6!Exceptionloginitialization$qqrv+0x5047c:
00673680 b9f8ffffff      mov     ecx,0FFFFFFF8h
 # ChildEBP RetAddr      Args to Child              
WARNING: Stack unwind information not available. Following frames may be wrong.
00 0164e380 00718b55     00718b30 006324b8 0063e4b4 ws7v6!Exceptionloginitialization$qqrv+0x504b1
01 0164e3ac 0063e6a0     0164e410 0164e3c4 0063e77e ws7v6!Exceptionloginitialization$qqrv+0xf5951
02 0164e410 0063e90a     0164e468 0063e93e 0164e43c ws7v6!Exceptionloginitialization$qqrv+0x1b49c
eax=124bba10 ebx=00c07598 ecx=124bba28 edx=124ba760 esi=1225e5c0 edi=12269fd0
eip=006736b5 esp=0164e2f4 ebp=0164e380 iopl=0         nv up ei pl nz na po nc
cs=0023  ss=002b  ds=002b  es=002b  fs=0053  gs=002b             efl=00000202
ws7v6!Exceptionloginitialization$qqrv+0x504b1:
006736b5 c60300          mov     byte ptr [ebx],0           ds:002b:00c07598=01
 # ChildEBP RetAddr      Args to Child              
WARNING: Stack unwind information not available. Following frames may be wrong.
00 0164e380 00718b55     00718b30 006324b8 0063e4b4 ws7v6!Exceptionloginitialization$qqrv+0x5047c
01 0164e3ac 0063e6a0     0164e410 0164e3c4 0063e77e ws7v6!Exceptionloginitialization$qqrv+0xf5951
02 0164e410 0063e90a     0164e468 0063e93e 0164e43c ws7v6!Exceptionloginitialization$qqrv+0x1b49c
eax=124bba28 ebx=00c07598 ecx=00000001 edx=00c07598 esi=00000004 edi=1225e5c0
eip=00673680 esp=0164e2fc ebp=0164e380 iopl=0         nv up ei pl zr na pe nc
cs=0023  ss=002b  ds=002b  es=002b  fs=0053  gs=002b             efl=00000246
ws7v6!Exceptionloginitialization$qqrv+0x5047c:
00673680 b9f8ffffff      mov     ecx,0FFFFFFF8h
 # ChildEBP RetAddr      Args to Child              
WARNING: Stack unwind information not available. Following frames may be wrong.
00 0164e380 00718b55     00718b30 006324b8 0063e4b4 ws7v6!Exceptionloginitialization$qqrv+0x504b1
01 0164e3ac 0063e6a0     0164e410 0164e3c4 0063e77e ws7v6!Exceptionloginitialization$qqrv+0xf5951
02 0164e410 0063e90a     0164e468 0063e93e 0164e43c ws7v6!Exceptionloginitialization$qqrv+0x1b49c
eax=124bba28 ebx=00c07598 ecx=124bba40 edx=124ba760 esi=00000004 edi=1225e5c0
eip=006736b5 esp=0164e2fc ebp=0164e380 iopl=0         nv up ei pl nz na po nc
cs=0023  ss=002b  ds=002b  es=002b  fs=0053  gs=002b             efl=00000202
ws7v6!Exceptionloginitialization$qqrv+0x504b1:
006736b5 c60300          mov     byte ptr [ebx],0           ds:002b:00c07598=01
 # ChildEBP RetAddr      Args to Child              
WARNING: Stack unwind information not available. Following frames may be wrong.
00 0164e380 00718b55     00718b30 006324b8 0063e4b4 ws7v6!Exceptionloginitialization$qqrv+0x5047c
01 0164e3ac 0063e6a0     0164e410 0164e3c4 0063e77e ws7v6!Exceptionloginitialization$qqrv+0xf5951
02 0164e410 0063e90a     0164e468 0063e93e 0164e43c ws7v6!Exceptionloginitialization$qqrv+0x1b49c
eax=124bba40 ebx=00c07598 ecx=124bba01 edx=00c07598 esi=1225e5c0 edi=12269fd0
eip=00673680 esp=0164e2f4 ebp=0164e380 iopl=0         nv up ei pl zr na pe nc
cs=0023  ss=002b  ds=002b  es=002b  fs=0053  gs=002b             efl=00000246
ws7v6!Exceptionloginitialization$qqrv+0x5047c:
00673680 b9f8ffffff      mov     ecx,0FFFFFFF8h
 # ChildEBP RetAddr      Args to Child              
WARNING: Stack unwind information not available. Following frames may be wrong.
00 0164e380 00718b55     00718b30 006324b8 0063e4b4 ws7v6!Exceptionloginitialization$qqrv+0x504b1
01 0164e3ac 0063e6a0     0164e410 0164e3c4 0063e77e ws7v6!Exceptionloginitialization$qqrv+0xf5951
02 0164e410 0063e90a     0164e468 0063e93e 0164e43c ws7v6!Exceptionloginitialization$qqrv+0x1b49c
eax=124bba40 ebx=00c07598 ecx=124bba58 edx=124ba760 esi=1225e5c0 edi=12269fd0
eip=006736b5 esp=0164e2f4 ebp=0164e380 iopl=0         nv up ei pl nz na pe nc
cs=0023  ss=002b  ds=002b  es=002b  fs=0053  gs=002b             efl=00000206
ws7v6!Exceptionloginitialization$qqrv+0x504b1:
006736b5 c60300          mov     byte ptr [ebx],0           ds:002b:00c07598=01
 # ChildEBP RetAddr      Args to Child              
WARNING: Stack unwind information not available. Following frames may be wrong.
00 0164e380 00718b55     00718b30 006324b8 0063e4b4 ws7v6!Exceptionloginitialization$qqrv+0x5047c
01 0164e3ac 0063e6a0     0164e410 0164e3c4 0063e77e ws7v6!Exceptionloginitialization$qqrv+0xf5951
02 0164e410 0063e90a     0164e468 0063e93e 0164e43c ws7v6!Exceptionloginitialization$qqrv+0x1b49c
eax=124bba58 ebx=00c07598 ecx=00000001 edx=00c07598 esi=00000004 edi=1225e5c0
eip=00673680 esp=0164e2fc ebp=0164e380 iopl=0         nv up ei pl zr na pe nc
cs=0023  ss=002b  ds=002b  es=002b  fs=0053  gs=002b             efl=00000246
ws7v6!Exceptionloginitialization$qqrv+0x5047c:
00673680 b9f8ffffff      mov     ecx,0FFFFFFF8h
 # ChildEBP RetAddr      Args to Child              
WARNING: Stack unwind information not available. Following frames may be wrong.
00 0164e380 00718b55     00718b30 006324b8 0063e4b4 ws7v6!Exceptionloginitialization$qqrv+0x504b1
01 0164e3ac 0063e6a0     0164e410 0164e3c4 0063e77e ws7v6!Exceptionloginitialization$qqrv+0xf5951
02 0164e410 0063e90a     0164e468 0063e93e 0164e43c ws7v6!Exceptionloginitialization$qqrv+0x1b49c
eax=124bba58 ebx=00c07598 ecx=124bba70 edx=124ba760 esi=00000004 edi=1225e5c0
eip=006736b5 esp=0164e2fc ebp=0164e380 iopl=0         nv up ei pl nz na pe nc
cs=0023  ss=002b  ds=002b  es=002b  fs=0053  gs=002b             efl=00000206
ws7v6!Exceptionloginitialization$qqrv+0x504b1:
006736b5 c60300          mov     byte ptr [ebx],0           ds:002b:00c07598=01
 # ChildEBP RetAddr      Args to Child              
WARNING: Stack unwind information not available. Following frames may be wrong.
00 0164e2fc 00644a35     00000000 1225e5c0 124b2800 ws7v6!Exceptionloginitialization$qqrv+0x5047c
01 0164e320 006ec0a3     122532dc 008fbeb8 122532dc ws7v6!Exceptionloginitialization$qqrv+0x21831
02 0164e338 00644d9d     122532dc 1225e5c0 0164e380 ws7v6!Exceptionloginitialization$qqrv+0xc8e9f
eax=124bba70 ebx=00c07598 ecx=00000001 edx=00c07598 esi=124b2800 edi=122532dc
eip=00673680 esp=0164e29c ebp=0164e2fc iopl=0         nv up ei pl zr na pe nc
cs=0023  ss=002b  ds=002b  es=002b  fs=0053  gs=002b             efl=00000246
ws7v6!Exceptionloginitialization$qqrv+0x5047c:
00673680 b9f8ffffff      mov     ecx,0FFFFFFF8h
 # ChildEBP RetAddr      Args to Child              
WARNING: Stack unwind information not available. Following frames may be wrong.
00 0164e2fc 00644a35     00000000 1225e5c0 124b2800 ws7v6!Exceptionloginitialization$qqrv+0x504b1
01 0164e320 006ec0a3     122532dc 008fbeb8 122532dc ws7v6!Exceptionloginitialization$qqrv+0x21831
02 0164e338 00644d9d     122532dc 1225e5c0 0164e380 ws7v6!Exceptionloginitialization$qqrv+0xc8e9f
eax=124bba70 ebx=00c07598 ecx=124bba88 edx=124ba760 esi=124b2800 edi=122532dc
eip=006736b5 esp=0164e29c ebp=0164e2fc iopl=0         nv up ei pl nz na po nc
cs=0023  ss=002b  ds=002b  es=002b  fs=0053  gs=002b             efl=00000202
ws7v6!Exceptionloginitialization$qqrv+0x504b1:
006736b5 c60300          mov     byte ptr [ebx],0           ds:002b:00c07598=01
 # ChildEBP RetAddr      Args to Child              
WARNING: Stack unwind information not available. Following frames may be wrong.
00 0164e240 0071c51d     1225e860 007189c1 1225e860 ws7v6!Exceptionloginitialization$qqrv+0x5047c
01 0164e25c 0071d019     0164e29c 0071d115 0164e280 ws7v6!Exceptionloginitialization$qqrv+0xf9319
02 0164e280 007257b8     1225e860 ffffffff 004b2800 ws7v6!Exceptionloginitialization$qqrv+0xf9e15
eax=124bba88 ebx=00c07598 ecx=00000001 edx=00c07598 esi=00000004 edi=1225e860
eip=00673680 esp=0164e1f0 ebp=0164e240 iopl=0         nv up ei pl zr na pe nc
cs=0023  ss=002b  ds=002b  es=002b  fs=0053  gs=002b             efl=00000246
ws7v6!Exceptionloginitialization$qqrv+0x5047c:
00673680 b9f8ffffff      mov     ecx,0FFFFFFF8h
 # ChildEBP RetAddr      Args to Child              
WARNING: Stack unwind information not available. Following frames may be wrong.
00 0164e240 0071c51d     1225e860 007189c1 1225e860 ws7v6!Exceptionloginitialization$qqrv+0x504b1
01 0164e25c 0071d019     0164e29c 0071d115 0164e280 ws7v6!Exceptionloginitialization$qqrv+0xf9319
02 0164e280 007257b8     1225e860 ffffffff 004b2800 ws7v6!Exceptionloginitialization$qqrv+0xf9e15
eax=124bba88 ebx=00c07598 ecx=124bbaa0 edx=124ba760 esi=00000004 edi=1225e860
eip=006736b5 esp=0164e1f0 ebp=0164e240 iopl=0         nv up ei pl nz na pe nc
cs=0023  ss=002b  ds=002b  es=002b  fs=0053  gs=002b             efl=00000206
ws7v6!Exceptionloginitialization$qqrv+0x504b1:
006736b5 c60300          mov     byte ptr [ebx],0           ds:002b:00c07598=01
 # ChildEBP RetAddr      Args to Child              
WARNING: Stack unwind information not available. Following frames may be wrong.
00 0164e2a4 00718b55     00718b30 006324b8 0063e4b4 ws7v6!Exceptionloginitialization$qqrv+0x5047c
01 0164e2d0 0063e6a0     0164e334 0164e2e8 0063e77e ws7v6!Exceptionloginitialization$qqrv+0xf5951
02 0164e334 0063e90a     0164e38c 0063e93e 0164e360 ws7v6!Exceptionloginitialization$qqrv+0x1b49c
eax=124bbaa0 ebx=00c07598 ecx=00000001 edx=00c07598 esi=1225e860 edi=1225e5c0
eip=00673680 esp=0164e218 ebp=0164e2a4 iopl=0         nv up ei pl zr na pe nc
cs=0023  ss=002b  ds=002b  es=002b  fs=0053  gs=002b             efl=00000246
ws7v6!Exceptionloginitialization$qqrv+0x5047c:
00673680 b9f8ffffff      mov     ecx,0FFFFFFF8h
 # ChildEBP RetAddr      Args to Child              
WARNING: Stack unwind information not available. Following frames may be wrong.
00 0164e2a4 00718b55     00718b30 006324b8 0063e4b4 ws7v6!Exceptionloginitialization$qqrv+0x504b1
01 0164e2d0 0063e6a0     0164e334 0164e2e8 0063e77e ws7v6!Exceptionloginitialization$qqrv+0xf5951
02 0164e334 0063e90a     0164e38c 0063e93e 0164e360 ws7v6!Exceptionloginitialization$qqrv+0x1b49c
eax=124bbaa0 ebx=00c07598 ecx=124bbab8 edx=124ba760 esi=1225e860 edi=1225e5c0
eip=006736b5 esp=0164e218 ebp=0164e2a4 iopl=0         nv up ei pl nz na po nc
cs=0023  ss=002b  ds=002b  es=002b  fs=0053  gs=002b             efl=00000202
ws7v6!Exceptionloginitialization$qqrv+0x504b1:
006736b5 c60300          mov     byte ptr [ebx],0           ds:002b:00c07598=01
 # ChildEBP RetAddr      Args to Child              
WARNING: Stack unwind information not available. Following frames may be wrong.
00 0164e2a4 00718b55     00718b30 006324b8 0063e4b4 ws7v6!Exceptionloginitialization$qqrv+0x5047c
01 0164e2d0 0063e6a0     0164e334 0164e2e8 0063e77e ws7v6!Exceptionloginitialization$qqrv+0xf5951
02 0164e334 0063e90a     0164e38c 0063e93e 0164e360 ws7v6!Exceptionloginitialization$qqrv+0x1b49c
eax=124bbab8 ebx=00c07598 ecx=00000001 edx=00c07598 esi=00000004 edi=1225e860
eip=00673680 esp=0164e220 ebp=0164e2a4 iopl=0         nv up ei pl zr na pe nc
cs=0023  ss=002b  ds=002b  es=002b  fs=0053  gs=002b             efl=00000246
ws7v6!Exceptionloginitialization$qqrv+0x5047c:
00673680 b9f8ffffff      mov     ecx,0FFFFFFF8h
 # ChildEBP RetAddr      Args to Child              
WARNING: Stack unwind information not available. Following frames may be wrong.
00 0164e2a4 00718b55     00718b30 006324b8 0063e4b4 ws7v6!Exceptionloginitialization$qqrv+0x504b1
01 0164e2d0 0063e6a0     0164e334 0164e2e8 0063e77e ws7v6!Exceptionloginitialization$qqrv+0xf5951
02 0164e334 0063e90a     0164e38c 0063e93e 0164e360 ws7v6!Exceptionloginitialization$qqrv+0x1b49c
eax=124bbab8 ebx=00c07598 ecx=124bbad0 edx=124ba760 esi=00000004 edi=1225e860
eip=006736b5 esp=0164e220 ebp=0164e2a4 iopl=0         nv up ei pl nz na po nc
cs=0023  ss=002b  ds=002b  es=002b  fs=0053  gs=002b             efl=00000202
ws7v6!Exceptionloginitialization$qqrv+0x504b1:
006736b5 c60300          mov     byte ptr [ebx],0           ds:002b:00c07598=01
 # ChildEBP RetAddr      Args to Child              
WARNING: Stack unwind information not available. Following frames may be wrong.
00 0164e2a4 00718b55     00718b30 006324b8 0063e4b4 ws7v6!Exceptionloginitialization$qqrv+0x5047c
01 0164e2d0 0063e6a0     0164e334 0164e2e8 0063e77e ws7v6!Exceptionloginitialization$qqrv+0xf5951
02 0164e334 0063e90a     0164e38c 0063e93e 0164e360 ws7v6!Exceptionloginitialization$qqrv+0x1b49c
eax=124bbad0 ebx=00c07598 ecx=124bba01 edx=00c07598 esi=1225e860 edi=1225e5c0
eip=00673680 esp=0164e218 ebp=0164e2a4 iopl=0         nv up ei pl zr na pe nc
cs=0023  ss=002b  ds=002b  es=002b  fs=0053  gs=002b             efl=00000246
ws7v6!Exceptionloginitialization$qqrv+0x5047c:
00673680 b9f8ffffff      mov     ecx,0FFFFFFF8h
 # ChildEBP RetAddr      Args to Child              
WARNING: Stack unwind information not available. Following frames may be wrong.
00 0164e2a4 00718b55     00718b30 006324b8 0063e4b4 ws7v6!Exceptionloginitialization$qqrv+0x504b1
01 0164e2d0 0063e6a0     0164e334 0164e2e8 0063e77e ws7v6!Exceptionloginitialization$qqrv+0xf5951
02 0164e334 0063e90a     0164e38c 0063e93e 0164e360 ws7v6!Exceptionloginitialization$qqrv+0x1b49c
eax=124bbad0 ebx=00c07598 ecx=124bbae8 edx=124ba760 esi=1225e860 edi=1225e5c0
eip=006736b5 esp=0164e218 ebp=0164e2a4 iopl=0         nv up ei pl nz na pe nc
cs=0023  ss=002b  ds=002b  es=002b  fs=0053  gs=002b             efl=00000206
ws7v6!Exceptionloginitialization$qqrv+0x504b1:
006736b5 c60300          mov     byte ptr [ebx],0           ds:002b:00c07598=01
 # ChildEBP RetAddr      Args to Child              
WARNING: Stack unwind information not available. Following frames may be wrong.
00 0164e2a4 00718b55     00718b30 006324b8 0063e4b4 ws7v6!Exceptionloginitialization$qqrv+0x5047c
01 0164e2d0 0063e6a0     0164e334 0164e2e8 0063e77e ws7v6!Exceptionloginitialization$qqrv+0xf5951
02 0164e334 0063e90a     0164e38c 0063e93e 0164e360 ws7v6!Exceptionloginitialization$qqrv+0x1b49c
eax=124bbae8 ebx=00c07598 ecx=00000001 edx=00c07598 esi=00000004 edi=1225e860
eip=00673680 esp=0164e220 ebp=0164e2a4 iopl=0         nv up ei pl zr na pe nc
cs=0023  ss=002b  ds=002b  es=002b  fs=0053  gs=002b             efl=00000246
ws7v6!Exceptionloginitialization$qqrv+0x5047c:
00673680 b9f8ffffff      mov     ecx,0FFFFFFF8h
 # ChildEBP RetAddr      Args to Child              
WARNING: Stack unwind information not available. Following frames may be wrong.
00 0164e2a4 00718b55     00718b30 006324b8 0063e4b4 ws7v6!Exceptionloginitialization$qqrv+0x504b1
01 0164e2d0 0063e6a0     0164e334 0164e2e8 0063e77e ws7v6!Exceptionloginitialization$qqrv+0xf5951
02 0164e334 0063e90a     0164e38c 0063e93e 0164e360 ws7v6!Exceptionloginitialization$qqrv+0x1b49c
eax=124bbae8 ebx=00c07598 ecx=124bbb00 edx=124ba760 esi=00000004 edi=1225e860
eip=006736b5 esp=0164e220 ebp=0164e2a4 iopl=0         nv up ei pl nz ac po nc
cs=0023  ss=002b  ds=002b  es=002b  fs=0053  gs=002b             efl=00000212
ws7v6!Exceptionloginitialization$qqrv+0x504b1:
006736b5 c60300          mov     byte ptr [ebx],0           ds:002b:00c07598=01
 # ChildEBP RetAddr      Args to Child              
WARNING: Stack unwind information not available. Following frames may be wrong.
00 0164e220 00644a35     00000000 1225e860 124b2800 ws7v6!Exceptionloginitialization$qqrv+0x5047c
01 0164e244 006ec0a3     122533a4 008fbeb8 122533a4 ws7v6!Exceptionloginitialization$qqrv+0x21831
02 0164e25c 00644d9d     122533a4 1225e860 0164e2a4 ws7v6!Exceptionloginitialization$qqrv+0xc8e9f
eax=124bbb00 ebx=00c07598 ecx=00000001 edx=00c07598 esi=124b2800 edi=122533a4
eip=00673680 esp=0164e1c0 ebp=0164e220 iopl=0         nv up ei pl zr na pe nc
cs=0023  ss=002b  ds=002b  es=002b  fs=0053  gs=002b             efl=00000246
ws7v6!Exceptionloginitialization$qqrv+0x5047c:
00673680 b9f8ffffff      mov     ecx,0FFFFFFF8h
 # ChildEBP RetAddr      Args to Child              
WARNING: Stack unwind information not available. Following frames may be wrong.
00 0164e220 00644a35     00000000 1225e860 124b2800 ws7v6!Exceptionloginitialization$qqrv+0x504b1
01 0164e244 006ec0a3     122533a4 008fbeb8 122533a4 ws7v6!Exceptionloginitialization$qqrv+0x21831
02 0164e25c 00644d9d     122533a4 1225e860 0164e2a4 ws7v6!Exceptionloginitialization$qqrv+0xc8e9f
eax=124bbb00 ebx=00c07598 ecx=124bbb18 edx=124ba760 esi=124b2800 edi=122533a4
eip=006736b5 esp=0164e1c0 ebp=0164e220 iopl=0         nv up ei pl nz na pe nc
cs=0023  ss=002b  ds=002b  es=002b  fs=0053  gs=002b             efl=00000206
ws7v6!Exceptionloginitialization$qqrv+0x504b1:
006736b5 c60300          mov     byte ptr [ebx],0           ds:002b:00c07598=01
 # ChildEBP RetAddr      Args to Child              
WARNING: Stack unwind information not available. Following frames may be wrong.
00 0164e1f4 006665e9     0164e26c 00000003 1225e5c0 ws7v6!Exceptionloginitialization$qqrv+0x5047c
01 0164e230 0063ee5f     0164e244 0063f03e 0164e274 ws7v6!Exceptionloginitialization$qqrv+0x433e5
02 0164e274 0063e896     1225e5c0 0851e680 1225e860 ws7v6!Exceptionloginitialization$qqrv+0x1bc5b
eax=124bbb18 ebx=00c07598 ecx=00000001 edx=00c07598 esi=124bbb08 edi=00000003
eip=00673680 esp=0164e1b4 ebp=0164e1f4 iopl=0         nv up ei pl zr na pe nc
cs=0023  ss=002b  ds=002b  es=002b  fs=0053  gs=002b             efl=00000246
ws7v6!Exceptionloginitialization$qqrv+0x5047c:
00673680 b9f8ffffff      mov     ecx,0FFFFFFF8h
 # ChildEBP RetAddr      Args to Child              
WARNING: Stack unwind information not available. Following frames may be wrong.
00 0164e1f4 006665e9     0164e26c 00000003 1225e5c0 ws7v6!Exceptionloginitialization$qqrv+0x504b1
01 0164e230 0063ee5f     0164e244 0063f03e 0164e274 ws7v6!Exceptionloginitialization$qqrv+0x433e5
02 0164e274 0063e896     1225e5c0 0851e680 1225e860 ws7v6!Exceptionloginitialization$qqrv+0x1bc5b
eax=124bbb18 ebx=00c07598 ecx=124bbb30 edx=124ba760 esi=124bbb08 edi=00000003
eip=006736b5 esp=0164e1b4 ebp=0164e1f4 iopl=0         nv up ei pl nz na pe nc
cs=0023  ss=002b  ds=002b  es=002b  fs=0053  gs=002b             efl=00000206
ws7v6!Exceptionloginitialization$qqrv+0x504b1:
006736b5 c60300          mov     byte ptr [ebx],0           ds:002b:00c07598=01
 # ChildEBP RetAddr      Args to Child              
WARNING: Stack unwind information not available. Following frames may be wrong.
00 0164e198 00679fea     0164e1a8 00666402 00000005 ws7v6!Exceptionloginitialization$qqrv+0x5047c
01 0164e1c8 0066661f     0164e1f0 00000005 0164e214 ws7v6!Exceptionloginitialization$qqrv+0x56de6
02 0164e1f4 006665e9     0164e26c 00000005 1225e5c0 ws7v6!Exceptionloginitialization$qqrv+0x4341b
eax=124bbb30 ebx=00c07598 ecx=00000001 edx=00c07598 esi=00000000 edi=00000005
eip=00673680 esp=0164e158 ebp=0164e198 iopl=0         nv up ei pl zr na pe nc
cs=0023  ss=002b  ds=002b  es=002b  fs=0053  gs=002b             efl=00000246
ws7v6!Exceptionloginitialization$qqrv+0x5047c:
00673680 b9f8ffffff      mov     ecx,0FFFFFFF8h
 # ChildEBP RetAddr      Args to Child              
WARNING: Stack unwind information not available. Following frames may be wrong.
00 0164e198 00679fea     0164e1a8 00666402 00000005 ws7v6!Exceptionloginitialization$qqrv+0x504b1
01 0164e1c8 0066661f     0164e1f0 00000005 0164e214 ws7v6!Exceptionloginitialization$qqrv+0x56de6
02 0164e1f4 006665e9     0164e26c 00000005 1225e5c0 ws7v6!Exceptionloginitialization$qqrv+0x4341b
eax=124bbb30 ebx=00c07598 ecx=124bbb48 edx=124ba760 esi=00000000 edi=00000005
eip=006736b5 esp=0164e158 ebp=0164e198 iopl=0         nv up ei pl nz na po nc
cs=0023  ss=002b  ds=002b  es=002b  fs=0053  gs=002b             efl=00000202
ws7v6!Exceptionloginitialization$qqrv+0x504b1:
006736b5 c60300          mov     byte ptr [ebx],0           ds:002b:00c07598=01
 # ChildEBP RetAddr      Args to Child              
WARNING: Stack unwind information not available. Following frames may be wrong.
00 0164e1d8 00718b55     00718b30 006324b8 0063e4b4 ws7v6!Exceptionloginitialization$qqrv+0x5047c
01 0164e204 0063e6a0     0164e268 0164e21c 0063e77e ws7v6!Exceptionloginitialization$qqrv+0xf5951
02 0164e268 0063e90a     0164e2c0 0063e93e 0164e294 ws7v6!Exceptionloginitialization$qqrv+0x1b49c
eax=124bbb48 ebx=00c07598 ecx=00000001 edx=00c07598 esi=00000004 edi=1226a2f0
eip=00673680 esp=0164e154 ebp=0164e1d8 iopl=0         nv up ei pl zr na pe nc
cs=0023  ss=002b  ds=002b  es=002b  fs=0053  gs=002b             efl=00000246
ws7v6!Exceptionloginitialization$qqrv+0x5047c:
00673680 b9f8ffffff      mov     ecx,0FFFFFFF8h
 # ChildEBP RetAddr      Args to Child              
WARNING: Stack unwind information not available. Following frames may be wrong.
00 0164e1d8 00718b55     00718b30 006324b8 0063e4b4 ws7v6!Exceptionloginitialization$qqrv+0x504b1
01 0164e204 0063e6a0     0164e268 0164e21c 0063e77e ws7v6!Exceptionloginitialization$qqrv+0xf5951
02 0164e268 0063e90a     0164e2c0 0063e93e 0164e294 ws7v6!Exceptionloginitialization$qqrv+0x1b49c
eax=124bbb48 ebx=00c07598 ecx=124bbb60 edx=124ba760 esi=00000004 edi=1226a2f0
eip=006736b5 esp=0164e154 ebp=0164e1d8 iopl=0         nv up ei pl nz na pe nc
cs=0023  ss=002b  ds=002b  es=002b  fs=0053  gs=002b             efl=00000206
ws7v6!Exceptionloginitialization$qqrv+0x504b1:
006736b5 c60300          mov     byte ptr [ebx],0           ds:002b:00c07598=01
 # ChildEBP RetAddr      Args to Child              
WARNING: Stack unwind information not available. Following frames may be wrong.
00 0164e1d8 00718b55     00718b30 006324b8 0063e4b4 ws7v6!Exceptionloginitialization$qqrv+0x5047c
01 0164e204 0063e6a0     0164e268 0164e21c 0063e77e ws7v6!Exceptionloginitialization$qqrv+0xf5951
02 0164e268 0063e90a     0164e2c0 0063e93e 0164e294 ws7v6!Exceptionloginitialization$qqrv+0x1b49c
eax=124bbb60 ebx=00c07598 ecx=124bbb01 edx=00c07598 esi=1226a2f0 edi=1225e860
eip=00673680 esp=0164e14c ebp=0164e1d8 iopl=0         nv up ei pl zr na pe nc
cs=0023  ss=002b  ds=002b  es=002b  fs=0053  gs=002b             efl=00000246
ws7v6!Exceptionloginitialization$qqrv+0x5047c:
00673680 b9f8ffffff      mov     ecx,0FFFFFFF8h
 # ChildEBP RetAddr      Args to Child              
WARNING: Stack unwind information not available. Following frames may be wrong.
00 0164e1d8 00718b55     00718b30 006324b8 0063e4b4 ws7v6!Exceptionloginitialization$qqrv+0x504b1
01 0164e204 0063e6a0     0164e268 0164e21c 0063e77e ws7v6!Exceptionloginitialization$qqrv+0xf5951
02 0164e268 0063e90a     0164e2c0 0063e93e 0164e294 ws7v6!Exceptionloginitialization$qqrv+0x1b49c
eax=124bbb60 ebx=00c07598 ecx=124bbb78 edx=124ba760 esi=1226a2f0 edi=1225e860
eip=006736b5 esp=0164e14c ebp=0164e1d8 iopl=0         nv up ei pl nz na po nc
cs=0023  ss=002b  ds=002b  es=002b  fs=0053  gs=002b             efl=00000202
ws7v6!Exceptionloginitialization$qqrv+0x504b1:
006736b5 c60300          mov     byte ptr [ebx],0           ds:002b:00c07598=01
 # ChildEBP RetAddr      Args to Child              
WARNING: Stack unwind information not available. Following frames may be wrong.
00 0164e1d8 00718b55     00718b30 006324b8 0063e4b4 ws7v6!Exceptionloginitialization$qqrv+0x5047c
01 0164e204 0063e6a0     0164e268 0164e21c 0063e77e ws7v6!Exceptionloginitialization$qqrv+0xf5951
02 0164e268 0063e90a     0164e2c0 0063e93e 0164e294 ws7v6!Exceptionloginitialization$qqrv+0x1b49c
eax=124bbb78 ebx=00c07598 ecx=00000001 edx=00c07598 esi=00000004 edi=1226a2f0
eip=00673680 esp=0164e154 ebp=0164e1d8 iopl=0         nv up ei pl zr na pe nc
cs=0023  ss=002b  ds=002b  es=002b  fs=0053  gs=002b             efl=00000246
ws7v6!Exceptionloginitialization$qqrv+0x5047c:
00673680 b9f8ffffff      mov     ecx,0FFFFFFF8h
 # ChildEBP RetAddr      Args to Child              
WARNING: Stack unwind information not available. Following frames may be wrong.
00 0164e1d8 00718b55     00718b30 006324b8 0063e4b4 ws7v6!Exceptionloginitialization$qqrv+0x504b1
01 0164e204 0063e6a0     0164e268 0164e21c 0063e77e ws7v6!Exceptionloginitialization$qqrv+0xf5951
02 0164e268 0063e90a     0164e2c0 0063e93e 0164e294 ws7v6!Exceptionloginitialization$qqrv+0x1b49c
eax=124bbb78 ebx=00c07598 ecx=124bbb90 edx=124ba760 esi=00000004 edi=1226a2f0
eip=006736b5 esp=0164e154 ebp=0164e1d8 iopl=0         nv up ei pl nz na po nc
cs=0023  ss=002b  ds=002b  es=002b  fs=0053  gs=002b             efl=00000202
ws7v6!Exceptionloginitialization$qqrv+0x504b1:
006736b5 c60300          mov     byte ptr [ebx],0           ds:002b:00c07598=01
 # ChildEBP RetAddr      Args to Child              
WARNING: Stack unwind information not available. Following frames may be wrong.
00 0164e154 00644a35     00000000 1226a2f0 124b2800 ws7v6!Exceptionloginitialization$qqrv+0x5047c
01 0164e178 006ec0a3     12253494 008fbeb8 12253494 ws7v6!Exceptionloginitialization$qqrv+0x21831
02 0164e190 00644d9d     12253494 1226a2f0 0164e1d8 ws7v6!Exceptionloginitialization$qqrv+0xc8e9f
eax=124bbb90 ebx=00c07598 ecx=00000001 edx=00c07598 esi=124b2800 edi=12253494
eip=00673680 esp=0164e0f4 ebp=0164e154 iopl=0         nv up ei pl zr na pe nc
cs=0023  ss=002b  ds=002b  es=002b  fs=0053  gs=002b             efl=00000246
ws7v6!Exceptionloginitialization$qqrv+0x5047c:
00673680 b9f8ffffff      mov     ecx,0FFFFFFF8h
 # ChildEBP RetAddr      Args to Child              
WARNING: Stack unwind information not available. Following frames may be wrong.
00 0164e154 00644a35     00000000 1226a2f0 124b2800 ws7v6!Exceptionloginitialization$qqrv+0x504b1
01 0164e178 006ec0a3     12253494 008fbeb8 12253494 ws7v6!Exceptionloginitialization$qqrv+0x21831
02 0164e190 00644d9d     12253494 1226a2f0 0164e1d8 ws7v6!Exceptionloginitialization$qqrv+0xc8e9f
eax=124bbb90 ebx=00c07598 ecx=124bbba8 edx=124ba760 esi=124b2800 edi=12253494
eip=006736b5 esp=0164e0f4 ebp=0164e154 iopl=0         nv up ei pl nz na pe nc
cs=0023  ss=002b  ds=002b  es=002b  fs=0053  gs=002b             efl=00000206
ws7v6!Exceptionloginitialization$qqrv+0x504b1:
006736b5 c60300          mov     byte ptr [ebx],0           ds:002b:00c07598=01
 # ChildEBP RetAddr      Args to Child              
WARNING: Stack unwind information not available. Following frames may be wrong.
00 0164e128 006665e9     0164e1a0 00000003 1225e860 ws7v6!Exceptionloginitialization$qqrv+0x5047c
01 0164e164 0063ee5f     0164e178 0063f03e 0164e1a8 ws7v6!Exceptionloginitialization$qqrv+0x433e5
02 0164e1a8 0063e896     1225e860 0851e680 1226a2f0 ws7v6!Exceptionloginitialization$qqrv+0x1bc5b
eax=124bbba8 ebx=00c07598 ecx=00000001 edx=00c07598 esi=124bbb98 edi=00000003
eip=00673680 esp=0164e0e8 ebp=0164e128 iopl=0         nv up ei pl zr na pe nc
cs=0023  ss=002b  ds=002b  es=002b  fs=0053  gs=002b             efl=00000246
ws7v6!Exceptionloginitialization$qqrv+0x5047c:
00673680 b9f8ffffff      mov     ecx,0FFFFFFF8h
 # ChildEBP RetAddr      Args to Child              
WARNING: Stack unwind information not available. Following frames may be wrong.
00 0164e128 006665e9     0164e1a0 00000003 1225e860 ws7v6!Exceptionloginitialization$qqrv+0x504b1
01 0164e164 0063ee5f     0164e178 0063f03e 0164e1a8 ws7v6!Exceptionloginitialization$qqrv+0x433e5
02 0164e1a8 0063e896     1225e860 0851e680 1226a2f0 ws7v6!Exceptionloginitialization$qqrv+0x1bc5b
eax=124bbba8 ebx=00c07598 ecx=124bbbc0 edx=124ba760 esi=124bbb98 edi=00000003
eip=006736b5 esp=0164e0e8 ebp=0164e128 iopl=0         nv up ei pl nz na pe nc
cs=0023  ss=002b  ds=002b  es=002b  fs=0053  gs=002b             efl=00000206
ws7v6!Exceptionloginitialization$qqrv+0x504b1:
006736b5 c60300          mov     byte ptr [ebx],0           ds:002b:00c07598=01
 # ChildEBP RetAddr      Args to Child              
WARNING: Stack unwind information not available. Following frames may be wrong.
00 0164e0cc 00679fea     0164e0dc 00666402 00000005 ws7v6!Exceptionloginitialization$qqrv+0x5047c
01 0164e0fc 0066661f     0164e124 00000005 0164e148 ws7v6!Exceptionloginitialization$qqrv+0x56de6
02 0164e128 006665e9     0164e1a0 00000005 1225e860 ws7v6!Exceptionloginitialization$qqrv+0x4341b
eax=124bbbc0 ebx=00c07598 ecx=00000001 edx=00c07598 esi=00000000 edi=00000005
eip=00673680 esp=0164e08c ebp=0164e0cc iopl=0         nv up ei pl zr na pe nc
cs=0023  ss=002b  ds=002b  es=002b  fs=0053  gs=002b             efl=00000246
ws7v6!Exceptionloginitialization$qqrv+0x5047c:
00673680 b9f8ffffff      mov     ecx,0FFFFFFF8h
 # ChildEBP RetAddr      Args to Child              
WARNING: Stack unwind information not available. Following frames may be wrong.
00 0164e0cc 00679fea     0164e0dc 00666402 00000005 ws7v6!Exceptionloginitialization$qqrv+0x504b1
01 0164e0fc 0066661f     0164e124 00000005 0164e148 ws7v6!Exceptionloginitialization$qqrv+0x56de6
02 0164e128 006665e9     0164e1a0 00000005 1225e860 ws7v6!Exceptionloginitialization$qqrv+0x4341b
eax=124bbbc0 ebx=00c07598 ecx=124bbbd8 edx=124ba760 esi=00000000 edi=00000005
eip=006736b5 esp=0164e08c ebp=0164e0cc iopl=0         nv up ei pl nz na po nc
cs=0023  ss=002b  ds=002b  es=002b  fs=0053  gs=002b             efl=00000202
ws7v6!Exceptionloginitialization$qqrv+0x504b1:
006736b5 c60300          mov     byte ptr [ebx],0           ds:002b:00c07598=01
 # ChildEBP RetAddr      Args to Child              
WARNING: Stack unwind information not available. Following frames may be wrong.
00 0164e198 00679fea     0164e1a8 00666402 00000005 ws7v6!Exceptionloginitialization$qqrv+0x5047c
01 0164e1c8 0066661f     0164e1f0 00000005 0164e214 ws7v6!Exceptionloginitialization$qqrv+0x56de6
02 0164e1f4 006665e9     0164e26c 00000005 1225e5c0 ws7v6!Exceptionloginitialization$qqrv+0x4341b
eax=124bbbd8 ebx=00c07598 ecx=00000001 edx=00c07598 esi=00000000 edi=00000005
eip=00673680 esp=0164e158 ebp=0164e198 iopl=0         nv up ei pl zr na pe nc
cs=0023  ss=002b  ds=002b  es=002b  fs=0053  gs=002b             efl=00000246
ws7v6!Exceptionloginitialization$qqrv+0x5047c:
00673680 b9f8ffffff      mov     ecx,0FFFFFFF8h
 # ChildEBP RetAddr      Args to Child              
WARNING: Stack unwind information not available. Following frames may be wrong.
00 0164e198 00679fea     0164e1a8 00666402 00000005 ws7v6!Exceptionloginitialization$qqrv+0x504b1
01 0164e1c8 0066661f     0164e1f0 00000005 0164e214 ws7v6!Exceptionloginitialization$qqrv+0x56de6
02 0164e1f4 006665e9     0164e26c 00000005 1225e5c0 ws7v6!Exceptionloginitialization$qqrv+0x4341b
eax=124bbbd8 ebx=00c07598 ecx=124bbbf0 edx=124ba760 esi=00000000 edi=00000005
eip=006736b5 esp=0164e158 ebp=0164e198 iopl=0         nv up ei pl nz na po nc
cs=0023  ss=002b  ds=002b  es=002b  fs=0053  gs=002b             efl=00000202
ws7v6!Exceptionloginitialization$qqrv+0x504b1:
006736b5 c60300          mov     byte ptr [ebx],0           ds:002b:00c07598=01
 # ChildEBP RetAddr      Args to Child              
WARNING: Stack unwind information not available. Following frames may be wrong.
00 0164e1d8 00718b55     00718b30 006324b8 0063e4b4 ws7v6!Exceptionloginitialization$qqrv+0x5047c
01 0164e204 0063e6a0     0164e268 0164e21c 0063e77e ws7v6!Exceptionloginitialization$qqrv+0xf5951
02 0164e268 0063e90a     0164e2c0 0063e93e 0164e294 ws7v6!Exceptionloginitialization$qqrv+0x1b49c
eax=124bbbf0 ebx=00c07598 ecx=00000001 edx=00c07598 esi=00000004 edi=1225eda0
eip=00673680 esp=0164e154 ebp=0164e1d8 iopl=0         nv up ei pl zr na pe nc
cs=0023  ss=002b  ds=002b  es=002b  fs=0053  gs=002b             efl=00000246
ws7v6!Exceptionloginitialization$qqrv+0x5047c:
00673680 b9f8ffffff      mov     ecx,0FFFFFFF8h
 # ChildEBP RetAddr      Args to Child              
WARNING: Stack unwind information not available. Following frames may be wrong.
00 0164e1d8 00718b55     00718b30 006324b8 0063e4b4 ws7v6!Exceptionloginitialization$qqrv+0x504b1
01 0164e204 0063e6a0     0164e268 0164e21c 0063e77e ws7v6!Exceptionloginitialization$qqrv+0xf5951
02 0164e268 0063e90a     0164e2c0 0063e93e 0164e294 ws7v6!Exceptionloginitialization$qqrv+0x1b49c
eax=124bbbf0 ebx=00c07598 ecx=124bbc08 edx=124ba760 esi=00000004 edi=1225eda0
eip=006736b5 esp=0164e154 ebp=0164e1d8 iopl=0         nv up ei pl nz na pe nc
cs=0023  ss=002b  ds=002b  es=002b  fs=0053  gs=002b             efl=00000206
ws7v6!Exceptionloginitialization$qqrv+0x504b1:
006736b5 c60300          mov     byte ptr [ebx],0           ds:002b:00c07598=01
 # ChildEBP RetAddr      Args to Child              
WARNING: Stack unwind information not available. Following frames may be wrong.
00 0164e1d8 00718b55     00718b30 006324b8 0063e4b4 ws7v6!Exceptionloginitialization$qqrv+0x5047c
01 0164e204 0063e6a0     0164e268 0164e21c 0063e77e ws7v6!Exceptionloginitialization$qqrv+0xf5951
02 0164e268 0063e90a     0164e2c0 0063e93e 0164e294 ws7v6!Exceptionloginitialization$qqrv+0x1b49c
eax=124bbc08 ebx=00c07598 ecx=124bbb01 edx=00c07598 esi=1225eda0 edi=1225eb00
eip=00673680 esp=0164e14c ebp=0164e1d8 iopl=0         nv up ei pl zr na pe nc
cs=0023  ss=002b  ds=002b  es=002b  fs=0053  gs=002b             efl=00000246
ws7v6!Exceptionloginitialization$qqrv+0x5047c:
00673680 b9f8ffffff      mov     ecx,0FFFFFFF8h
 # ChildEBP RetAddr      Args to Child              
WARNING: Stack unwind information not available. Following frames may be wrong.
00 0164e1d8 00718b55     00718b30 006324b8 0063e4b4 ws7v6!Exceptionloginitialization$qqrv+0x504b1
01 0164e204 0063e6a0     0164e268 0164e21c 0063e77e ws7v6!Exceptionloginitialization$qqrv+0xf5951
02 0164e268 0063e90a     0164e2c0 0063e93e 0164e294 ws7v6!Exceptionloginitialization$qqrv+0x1b49c
eax=124bbc08 ebx=00c07598 ecx=124bbc20 edx=124ba760 esi=1225eda0 edi=1225eb00
eip=006736b5 esp=0164e14c ebp=0164e1d8 iopl=0         nv up ei pl nz na po nc
cs=0023  ss=002b  ds=002b  es=002b  fs=0053  gs=002b             efl=00000202
ws7v6!Exceptionloginitialization$qqrv+0x504b1:
006736b5 c60300          mov     byte ptr [ebx],0           ds:002b:00c07598=01
 # ChildEBP RetAddr      Args to Child              
WARNING: Stack unwind information not available. Following frames may be wrong.
00 0164e1d8 00718b55     00718b30 006324b8 0063e4b4 ws7v6!Exceptionloginitialization$qqrv+0x5047c
01 0164e204 0063e6a0     0164e268 0164e21c 0063e77e ws7v6!Exceptionloginitialization$qqrv+0xf5951
02 0164e268 0063e90a     0164e2c0 0063e93e 0164e294 ws7v6!Exceptionloginitialization$qqrv+0x1b49c
eax=124bbc20 ebx=00c07598 ecx=00000001 edx=00c07598 esi=00000004 edi=1225eda0
eip=00673680 esp=0164e154 ebp=0164e1d8 iopl=0         nv up ei pl zr na pe nc
cs=0023  ss=002b  ds=002b  es=002b  fs=0053  gs=002b             efl=00000246
ws7v6!Exceptionloginitialization$qqrv+0x5047c:
00673680 b9f8ffffff      mov     ecx,0FFFFFFF8h
 # ChildEBP RetAddr      Args to Child              
WARNING: Stack unwind information not available. Following frames may be wrong.
00 0164e1d8 00718b55     00718b30 006324b8 0063e4b4 ws7v6!Exceptionloginitialization$qqrv+0x504b1
01 0164e204 0063e6a0     0164e268 0164e21c 0063e77e ws7v6!Exceptionloginitialization$qqrv+0xf5951
02 0164e268 0063e90a     0164e2c0 0063e93e 0164e294 ws7v6!Exceptionloginitialization$qqrv+0x1b49c
eax=124bbc20 ebx=00c07598 ecx=124bbc38 edx=124ba760 esi=00000004 edi=1225eda0
eip=006736b5 esp=0164e154 ebp=0164e1d8 iopl=0         nv up ei pl nz na pe nc
cs=0023  ss=002b  ds=002b  es=002b  fs=0053  gs=002b             efl=00000206
ws7v6!Exceptionloginitialization$qqrv+0x504b1:
006736b5 c60300          mov     byte ptr [ebx],0           ds:002b:00c07598=01
 # ChildEBP RetAddr      Args to Child              
WARNING: Stack unwind information not available. Following frames may be wrong.
00 0164e154 00644a35     00000000 1225eda0 124b2800 ws7v6!Exceptionloginitialization$qqrv+0x5047c
01 0164e178 006ec0a3     1230365c 008fbeb8 1230365c ws7v6!Exceptionloginitialization$qqrv+0x21831
02 0164e190 00644d9d     1230365c 1225eda0 0164e1d8 ws7v6!Exceptionloginitialization$qqrv+0xc8e9f
eax=124bbc38 ebx=00c07598 ecx=00000001 edx=00c07598 esi=124b2800 edi=1230365c
eip=00673680 esp=0164e0f4 ebp=0164e154 iopl=0         nv up ei pl zr na pe nc
cs=0023  ss=002b  ds=002b  es=002b  fs=0053  gs=002b             efl=00000246
ws7v6!Exceptionloginitialization$qqrv+0x5047c:
00673680 b9f8ffffff      mov     ecx,0FFFFFFF8h
 # ChildEBP RetAddr      Args to Child              
WARNING: Stack unwind information not available. Following frames may be wrong.
00 0164e154 00644a35     00000000 1225eda0 124b2800 ws7v6!Exceptionloginitialization$qqrv+0x504b1
01 0164e178 006ec0a3     1230365c 008fbeb8 1230365c ws7v6!Exceptionloginitialization$qqrv+0x21831
02 0164e190 00644d9d     1230365c 1225eda0 0164e1d8 ws7v6!Exceptionloginitialization$qqrv+0xc8e9f
eax=124bbc38 ebx=00c07598 ecx=124bbc50 edx=124ba760 esi=124b2800 edi=1230365c
eip=006736b5 esp=0164e0f4 ebp=0164e154 iopl=0         nv up ei pl nz na pe nc
cs=0023  ss=002b  ds=002b  es=002b  fs=0053  gs=002b             efl=00000206
ws7v6!Exceptionloginitialization$qqrv+0x504b1:
006736b5 c60300          mov     byte ptr [ebx],0           ds:002b:00c07598=01
 # ChildEBP RetAddr      Args to Child              
WARNING: Stack unwind information not available. Following frames may be wrong.
00 0164e128 006665e9     0164e1a0 00000003 1225eb00 ws7v6!Exceptionloginitialization$qqrv+0x5047c
01 0164e164 0063ee5f     0164e178 0063f03e 0164e1a8 ws7v6!Exceptionloginitialization$qqrv+0x433e5
02 0164e1a8 0063e896     1225eb00 0851e680 1225eda0 ws7v6!Exceptionloginitialization$qqrv+0x1bc5b
eax=124bbc50 ebx=00c07598 ecx=00000001 edx=00c07598 esi=124bbc40 edi=00000003
eip=00673680 esp=0164e0e8 ebp=0164e128 iopl=0         nv up ei pl zr na pe nc
cs=0023  ss=002b  ds=002b  es=002b  fs=0053  gs=002b             efl=00000246
ws7v6!Exceptionloginitialization$qqrv+0x5047c:
00673680 b9f8ffffff      mov     ecx,0FFFFFFF8h
 # ChildEBP RetAddr      Args to Child              
WARNING: Stack unwind information not available. Following frames may be wrong.
00 0164e128 006665e9     0164e1a0 00000003 1225eb00 ws7v6!Exceptionloginitialization$qqrv+0x504b1
01 0164e164 0063ee5f     0164e178 0063f03e 0164e1a8 ws7v6!Exceptionloginitialization$qqrv+0x433e5
02 0164e1a8 0063e896     1225eb00 0851e680 1225eda0 ws7v6!Exceptionloginitialization$qqrv+0x1bc5b
eax=124bbc50 ebx=00c07598 ecx=124bbc68 edx=124ba760 esi=124bbc40 edi=00000003
eip=006736b5 esp=0164e0e8 ebp=0164e128 iopl=0         nv up ei pl nz na po nc
cs=0023  ss=002b  ds=002b  es=002b  fs=0053  gs=002b             efl=00000202
ws7v6!Exceptionloginitialization$qqrv+0x504b1:
006736b5 c60300          mov     byte ptr [ebx],0           ds:002b:00c07598=01
 # ChildEBP RetAddr      Args to Child              
WARNING: Stack unwind information not available. Following frames may be wrong.
00 0164e0cc 00679fea     0164e0dc 00666402 00000005 ws7v6!Exceptionloginitialization$qqrv+0x5047c
01 0164e0fc 0066661f     0164e124 00000005 0164e148 ws7v6!Exceptionloginitialization$qqrv+0x56de6
02 0164e128 006665e9     0164e1a0 00000005 1225eb00 ws7v6!Exceptionloginitialization$qqrv+0x4341b
eax=124bbc68 ebx=00c07598 ecx=00000001 edx=00c07598 esi=00000000 edi=00000005
eip=00673680 esp=0164e08c ebp=0164e0cc iopl=0         nv up ei pl zr na pe nc
cs=0023  ss=002b  ds=002b  es=002b  fs=0053  gs=002b             efl=00000246
ws7v6!Exceptionloginitialization$qqrv+0x5047c:
00673680 b9f8ffffff      mov     ecx,0FFFFFFF8h
 # ChildEBP RetAddr      Args to Child              
WARNING: Stack unwind information not available. Following frames may be wrong.
00 0164e0cc 00679fea     0164e0dc 00666402 00000005 ws7v6!Exceptionloginitialization$qqrv+0x504b1
01 0164e0fc 0066661f     0164e124 00000005 0164e148 ws7v6!Exceptionloginitialization$qqrv+0x56de6
02 0164e128 006665e9     0164e1a0 00000005 1225eb00 ws7v6!Exceptionloginitialization$qqrv+0x4341b
eax=124bbc68 ebx=00c07598 ecx=124bbc80 edx=124ba760 esi=00000000 edi=00000005
eip=006736b5 esp=0164e08c ebp=0164e0cc iopl=0         nv up ei pl nz ac po nc
cs=0023  ss=002b  ds=002b  es=002b  fs=0053  gs=002b             efl=00000212
ws7v6!Exceptionloginitialization$qqrv+0x504b1:
006736b5 c60300          mov     byte ptr [ebx],0           ds:002b:00c07598=01
 # ChildEBP RetAddr      Args to Child              
WARNING: Stack unwind information not available. Following frames may be wrong.
00 0164e128 006665e9     0164e1a0 00000003 1225eb00 ws7v6!Exceptionloginitialization$qqrv+0x5047c
01 0164e164 0063ee5f     0164e178 0063f03e 0164e1a8 ws7v6!Exceptionloginitialization$qqrv+0x433e5
02 0164e1a8 0063e896     1225eb00 0851e680 1225f040 ws7v6!Exceptionloginitialization$qqrv+0x1bc5b
eax=124bbc80 ebx=00c07598 ecx=00000001 edx=00c07598 esi=124bbc70 edi=00000003
eip=00673680 esp=0164e0e8 ebp=0164e128 iopl=0         nv up ei pl zr na pe nc
cs=0023  ss=002b  ds=002b  es=002b  fs=0053  gs=002b             efl=00000246
ws7v6!Exceptionloginitialization$qqrv+0x5047c:
00673680 b9f8ffffff      mov     ecx,0FFFFFFF8h
 # ChildEBP RetAddr      Args to Child              
WARNING: Stack unwind information not available. Following frames may be wrong.
00 0164e128 006665e9     0164e1a0 00000003 1225eb00 ws7v6!Exceptionloginitialization$qqrv+0x504b1
01 0164e164 0063ee5f     0164e178 0063f03e 0164e1a8 ws7v6!Exceptionloginitialization$qqrv+0x433e5
02 0164e1a8 0063e896     1225eb00 0851e680 1225f040 ws7v6!Exceptionloginitialization$qqrv+0x1bc5b
eax=124bbc80 ebx=00c07598 ecx=124bbc98 edx=124ba760 esi=124bbc70 edi=00000003
eip=006736b5 esp=0164e0e8 ebp=0164e128 iopl=0         nv up ei pl nz na pe nc
cs=0023  ss=002b  ds=002b  es=002b  fs=0053  gs=002b             efl=00000206
ws7v6!Exceptionloginitialization$qqrv+0x504b1:
006736b5 c60300          mov     byte ptr [ebx],0           ds:002b:00c07598=01
 # ChildEBP RetAddr      Args to Child              
WARNING: Stack unwind information not available. Following frames may be wrong.
00 0164e0cc 00679fea     0164e0dc 00666402 00000005 ws7v6!Exceptionloginitialization$qqrv+0x5047c
01 0164e0fc 0066661f     0164e124 00000005 0164e148 ws7v6!Exceptionloginitialization$qqrv+0x56de6
02 0164e128 006665e9     0164e1a0 00000005 1225eb00 ws7v6!Exceptionloginitialization$qqrv+0x4341b
eax=124bbc98 ebx=00c07598 ecx=00000001 edx=00c07598 esi=00000000 edi=00000005
eip=00673680 esp=0164e08c ebp=0164e0cc iopl=0         nv up ei pl zr na pe nc
cs=0023  ss=002b  ds=002b  es=002b  fs=0053  gs=002b             efl=00000246
ws7v6!Exceptionloginitialization$qqrv+0x5047c:
00673680 b9f8ffffff      mov     ecx,0FFFFFFF8h
 # ChildEBP RetAddr      Args to Child              
WARNING: Stack unwind information not available. Following frames may be wrong.
00 0164e0cc 00679fea     0164e0dc 00666402 00000005 ws7v6!Exceptionloginitialization$qqrv+0x504b1
01 0164e0fc 0066661f     0164e124 00000005 0164e148 ws7v6!Exceptionloginitialization$qqrv+0x56de6
02 0164e128 006665e9     0164e1a0 00000005 1225eb00 ws7v6!Exceptionloginitialization$qqrv+0x4341b
eax=124bbc98 ebx=00c07598 ecx=124bbcb0 edx=124ba760 esi=00000000 edi=00000005
eip=006736b5 esp=0164e08c ebp=0164e0cc iopl=0         nv up ei pl nz na pe nc
cs=0023  ss=002b  ds=002b  es=002b  fs=0053  gs=002b             efl=00000206
ws7v6!Exceptionloginitialization$qqrv+0x504b1:
006736b5 c60300          mov     byte ptr [ebx],0           ds:002b:00c07598=01
 # ChildEBP RetAddr      Args to Child              
WARNING: Stack unwind information not available. Following frames may be wrong.
00 0164e0cc 00679fea     0164e0dc 00666402 00000005 ws7v6!Exceptionloginitialization$qqrv+0x5047c
01 0164e0fc 0066661f     0164e124 00000005 0164e148 ws7v6!Exceptionloginitialization$qqrv+0x56de6
02 0164e128 006665e9     0164e1a0 00000005 1225eb00 ws7v6!Exceptionloginitialization$qqrv+0x4341b
eax=124bbcb0 ebx=00c07598 ecx=00000001 edx=00c07598 esi=00000000 edi=00000005
eip=00673680 esp=0164e08c ebp=0164e0cc iopl=0         nv up ei pl zr na pe nc
cs=0023  ss=002b  ds=002b  es=002b  fs=0053  gs=002b             efl=00000246
ws7v6!Exceptionloginitialization$qqrv+0x5047c:
00673680 b9f8ffffff      mov     ecx,0FFFFFFF8h
 # ChildEBP RetAddr      Args to Child              
WARNING: Stack unwind information not available. Following frames may be wrong.
00 0164e0cc 00679fea     0164e0dc 00666402 00000005 ws7v6!Exceptionloginitialization$qqrv+0x504b1
01 0164e0fc 0066661f     0164e124 00000005 0164e148 ws7v6!Exceptionloginitialization$qqrv+0x56de6
02 0164e128 006665e9     0164e1a0 00000005 1225eb00 ws7v6!Exceptionloginitialization$qqrv+0x4341b
eax=124bbcb0 ebx=00c07598 ecx=124bbcc8 edx=124ba760 esi=00000000 edi=00000005
eip=006736b5 esp=0164e08c ebp=0164e0cc iopl=0         nv up ei pl nz na po nc
cs=0023  ss=002b  ds=002b  es=002b  fs=0053  gs=002b             efl=00000202
ws7v6!Exceptionloginitialization$qqrv+0x504b1:
006736b5 c60300          mov     byte ptr [ebx],0           ds:002b:00c07598=01
 # ChildEBP RetAddr      Args to Child              
WARNING: Stack unwind information not available. Following frames may be wrong.
00 0164e128 006665e9     0164e1a0 00000003 1225eb00 ws7v6!Exceptionloginitialization$qqrv+0x5047c
01 0164e164 0063ee5f     0164e178 0063f03e 0164e1a8 ws7v6!Exceptionloginitialization$qqrv+0x433e5
02 0164e1a8 0063e896     1225eb00 0851e680 1225f580 ws7v6!Exceptionloginitialization$qqrv+0x1bc5b
eax=124bbcc8 ebx=00c07598 ecx=00000001 edx=00c07598 esi=124bbcb8 edi=00000003
eip=00673680 esp=0164e0e8 ebp=0164e128 iopl=0         nv up ei pl zr na pe nc
cs=0023  ss=002b  ds=002b  es=002b  fs=0053  gs=002b             efl=00000246
ws7v6!Exceptionloginitialization$qqrv+0x5047c:
00673680 b9f8ffffff      mov     ecx,0FFFFFFF8h
 # ChildEBP RetAddr      Args to Child              
WARNING: Stack unwind information not available. Following frames may be wrong.
00 0164e128 006665e9     0164e1a0 00000003 1225eb00 ws7v6!Exceptionloginitialization$qqrv+0x504b1
01 0164e164 0063ee5f     0164e178 0063f03e 0164e1a8 ws7v6!Exceptionloginitialization$qqrv+0x433e5
02 0164e1a8 0063e896     1225eb00 0851e680 1225f580 ws7v6!Exceptionloginitialization$qqrv+0x1bc5b
eax=124bbcc8 ebx=00c07598 ecx=124bbce0 edx=124ba760 esi=124bbcb8 edi=00000003
eip=006736b5 esp=0164e0e8 ebp=0164e128 iopl=0         nv up ei pl nz na pe nc
cs=0023  ss=002b  ds=002b  es=002b  fs=0053  gs=002b             efl=00000206
ws7v6!Exceptionloginitialization$qqrv+0x504b1:
006736b5 c60300          mov     byte ptr [ebx],0           ds:002b:00c07598=01
 # ChildEBP RetAddr      Args to Child              
WARNING: Stack unwind information not available. Following frames may be wrong.
00 0164e0cc 00679fea     0164e0dc 00666402 00000005 ws7v6!Exceptionloginitialization$qqrv+0x5047c
01 0164e0fc 0066661f     0164e124 00000005 0164e148 ws7v6!Exceptionloginitialization$qqrv+0x56de6
02 0164e128 006665e9     0164e1a0 00000005 1225eb00 ws7v6!Exceptionloginitialization$qqrv+0x4341b
eax=124bbce0 ebx=00c07598 ecx=00000001 edx=00c07598 esi=00000000 edi=00000005
eip=00673680 esp=0164e08c ebp=0164e0cc iopl=0         nv up ei pl zr na pe nc
cs=0023  ss=002b  ds=002b  es=002b  fs=0053  gs=002b             efl=00000246
ws7v6!Exceptionloginitialization$qqrv+0x5047c:
00673680 b9f8ffffff      mov     ecx,0FFFFFFF8h
 # ChildEBP RetAddr      Args to Child              
WARNING: Stack unwind information not available. Following frames may be wrong.
00 0164e0cc 00679fea     0164e0dc 00666402 00000005 ws7v6!Exceptionloginitialization$qqrv+0x504b1
01 0164e0fc 0066661f     0164e124 00000005 0164e148 ws7v6!Exceptionloginitialization$qqrv+0x56de6
02 0164e128 006665e9     0164e1a0 00000005 1225eb00 ws7v6!Exceptionloginitialization$qqrv+0x4341b
eax=124bbce0 ebx=00c07598 ecx=124bbcf8 edx=124ba760 esi=00000000 edi=00000005
eip=006736b5 esp=0164e08c ebp=0164e0cc iopl=0         nv up ei pl nz na po nc
cs=0023  ss=002b  ds=002b  es=002b  fs=0053  gs=002b             efl=00000202
ws7v6!Exceptionloginitialization$qqrv+0x504b1:
006736b5 c60300          mov     byte ptr [ebx],0           ds:002b:00c07598=01
 # ChildEBP RetAddr      Args to Child              
WARNING: Stack unwind information not available. Following frames may be wrong.
00 0164e154 00644a35     00000000 1225fac0 124b2800 ws7v6!Exceptionloginitialization$qqrv+0x5047c
01 0164e178 006ec0a3     123037bc 008fbeb8 123037bc ws7v6!Exceptionloginitialization$qqrv+0x21831
02 0164e190 00644d9d     123037bc 1225fac0 0164e1d8 ws7v6!Exceptionloginitialization$qqrv+0xc8e9f
eax=124bbcf8 ebx=00c07598 ecx=00000001 edx=00c07598 esi=124b2800 edi=123037bc
eip=00673680 esp=0164e0f4 ebp=0164e154 iopl=0         nv up ei pl zr na pe nc
cs=0023  ss=002b  ds=002b  es=002b  fs=0053  gs=002b             efl=00000246
ws7v6!Exceptionloginitialization$qqrv+0x5047c:
00673680 b9f8ffffff      mov     ecx,0FFFFFFF8h
 # ChildEBP RetAddr      Args to Child              
WARNING: Stack unwind information not available. Following frames may be wrong.
00 0164e154 00644a35     00000000 1225fac0 124b2800 ws7v6!Exceptionloginitialization$qqrv+0x504b1
01 0164e178 006ec0a3     123037bc 008fbeb8 123037bc ws7v6!Exceptionloginitialization$qqrv+0x21831
02 0164e190 00644d9d     123037bc 1225fac0 0164e1d8 ws7v6!Exceptionloginitialization$qqrv+0xc8e9f
eax=124bbcf8 ebx=00c07598 ecx=124bbd10 edx=124ba760 esi=124b2800 edi=123037bc
eip=006736b5 esp=0164e0f4 ebp=0164e154 iopl=0         nv up ei pl nz na po nc
cs=0023  ss=002b  ds=002b  es=002b  fs=0053  gs=002b             efl=00000202
ws7v6!Exceptionloginitialization$qqrv+0x504b1:
006736b5 c60300          mov     byte ptr [ebx],0           ds:002b:00c07598=01
 # ChildEBP RetAddr      Args to Child              
WARNING: Stack unwind information not available. Following frames may be wrong.
00 0164e128 006665e9     0164e1a0 00000003 1225eb00 ws7v6!Exceptionloginitialization$qqrv+0x5047c
01 0164e164 0063ee5f     0164e178 0063f03e 0164e1a8 ws7v6!Exceptionloginitialization$qqrv+0x433e5
02 0164e1a8 0063e896     1225eb00 0851e680 1225fac0 ws7v6!Exceptionloginitialization$qqrv+0x1bc5b
eax=124bbd10 ebx=00c07598 ecx=00000001 edx=00c07598 esi=124bbd00 edi=00000003
eip=00673680 esp=0164e0e8 ebp=0164e128 iopl=0         nv up ei pl zr na pe nc
cs=0023  ss=002b  ds=002b  es=002b  fs=0053  gs=002b             efl=00000246
ws7v6!Exceptionloginitialization$qqrv+0x5047c:
00673680 b9f8ffffff      mov     ecx,0FFFFFFF8h
 # ChildEBP RetAddr      Args to Child              
WARNING: Stack unwind information not available. Following frames may be wrong.
00 0164e128 006665e9     0164e1a0 00000003 1225eb00 ws7v6!Exceptionloginitialization$qqrv+0x504b1
01 0164e164 0063ee5f     0164e178 0063f03e 0164e1a8 ws7v6!Exceptionloginitialization$qqrv+0x433e5
02 0164e1a8 0063e896     1225eb00 0851e680 1225fac0 ws7v6!Exceptionloginitialization$qqrv+0x1bc5b
eax=124bbd10 ebx=00c07598 ecx=124bbd28 edx=124ba760 esi=124bbd00 edi=00000003
eip=006736b5 esp=0164e0e8 ebp=0164e128 iopl=0         nv up ei pl nz na pe nc
cs=0023  ss=002b  ds=002b  es=002b  fs=0053  gs=002b             efl=00000206
ws7v6!Exceptionloginitialization$qqrv+0x504b1:
006736b5 c60300          mov     byte ptr [ebx],0           ds:002b:00c07598=01
 # ChildEBP RetAddr      Args to Child              
WARNING: Stack unwind information not available. Following frames may be wrong.
00 0164e0cc 00679fea     0164e0dc 00666402 00000005 ws7v6!Exceptionloginitialization$qqrv+0x5047c
01 0164e0fc 0066661f     0164e124 00000005 0164e148 ws7v6!Exceptionloginitialization$qqrv+0x56de6
02 0164e128 006665e9     0164e1a0 00000005 1225eb00 ws7v6!Exceptionloginitialization$qqrv+0x4341b
eax=124bbd28 ebx=00c07598 ecx=00000001 edx=00c07598 esi=00000000 edi=00000005
eip=00673680 esp=0164e08c ebp=0164e0cc iopl=0         nv up ei pl zr na pe nc
cs=0023  ss=002b  ds=002b  es=002b  fs=0053  gs=002b             efl=00000246
ws7v6!Exceptionloginitialization$qqrv+0x5047c:
00673680 b9f8ffffff      mov     ecx,0FFFFFFF8h
 # ChildEBP RetAddr      Args to Child              
WARNING: Stack unwind information not available. Following frames may be wrong.
00 0164e0cc 00679fea     0164e0dc 00666402 00000005 ws7v6!Exceptionloginitialization$qqrv+0x504b1
01 0164e0fc 0066661f     0164e124 00000005 0164e148 ws7v6!Exceptionloginitialization$qqrv+0x56de6
02 0164e128 006665e9     0164e1a0 00000005 1225eb00 ws7v6!Exceptionloginitialization$qqrv+0x4341b
eax=124bbd28 ebx=00c07598 ecx=124bbd40 edx=124ba760 esi=00000000 edi=00000005
eip=006736b5 esp=0164e08c ebp=0164e0cc iopl=0         nv up ei pl nz na pe nc
cs=0023  ss=002b  ds=002b  es=002b  fs=0053  gs=002b             efl=00000206
ws7v6!Exceptionloginitialization$qqrv+0x504b1:
006736b5 c60300          mov     byte ptr [ebx],0           ds:002b:00c07598=01
 # ChildEBP RetAddr      Args to Child              
WARNING: Stack unwind information not available. Following frames may be wrong.
00 0164e128 006665e9     0164e1a0 00000003 1225eb00 ws7v6!Exceptionloginitialization$qqrv+0x5047c
01 0164e164 0063ee5f     0164e178 0063f03e 0164e1a8 ws7v6!Exceptionloginitialization$qqrv+0x433e5
02 0164e1a8 0063e896     1225eb00 0851e680 1225fd60 ws7v6!Exceptionloginitialization$qqrv+0x1bc5b
eax=124bbd40 ebx=00c07598 ecx=00000001 edx=00c07598 esi=124bbd30 edi=00000003
eip=00673680 esp=0164e0e8 ebp=0164e128 iopl=0         nv up ei pl zr na pe nc
cs=0023  ss=002b  ds=002b  es=002b  fs=0053  gs=002b             efl=00000246
ws7v6!Exceptionloginitialization$qqrv+0x5047c:
00673680 b9f8ffffff      mov     ecx,0FFFFFFF8h
 # ChildEBP RetAddr      Args to Child              
WARNING: Stack unwind information not available. Following frames may be wrong.
00 0164e128 006665e9     0164e1a0 00000003 1225eb00 ws7v6!Exceptionloginitialization$qqrv+0x504b1
01 0164e164 0063ee5f     0164e178 0063f03e 0164e1a8 ws7v6!Exceptionloginitialization$qqrv+0x433e5
02 0164e1a8 0063e896     1225eb00 0851e680 1225fd60 ws7v6!Exceptionloginitialization$qqrv+0x1bc5b
eax=124bbd40 ebx=00c07598 ecx=124bbd58 edx=124ba760 esi=124bbd30 edi=00000003
eip=006736b5 esp=0164e0e8 ebp=0164e128 iopl=0         nv up ei pl nz na po nc
cs=0023  ss=002b  ds=002b  es=002b  fs=0053  gs=002b             efl=00000202
ws7v6!Exceptionloginitialization$qqrv+0x504b1:
006736b5 c60300          mov     byte ptr [ebx],0           ds:002b:00c07598=01
 # ChildEBP RetAddr      Args to Child              
WARNING: Stack unwind information not available. Following frames may be wrong.
00 0164e0cc 00679fea     0164e0dc 00666402 00000005 ws7v6!Exceptionloginitialization$qqrv+0x5047c
01 0164e0fc 0066661f     0164e124 00000005 0164e148 ws7v6!Exceptionloginitialization$qqrv+0x56de6
02 0164e128 006665e9     0164e1a0 00000005 1225eb00 ws7v6!Exceptionloginitialization$qqrv+0x4341b
eax=124bbd58 ebx=00c07598 ecx=00000001 edx=00c07598 esi=00000000 edi=00000005
eip=00673680 esp=0164e08c ebp=0164e0cc iopl=0         nv up ei pl zr na pe nc
cs=0023  ss=002b  ds=002b  es=002b  fs=0053  gs=002b             efl=00000246
ws7v6!Exceptionloginitialization$qqrv+0x5047c:
00673680 b9f8ffffff      mov     ecx,0FFFFFFF8h
 # ChildEBP RetAddr      Args to Child              
WARNING: Stack unwind information not available. Following frames may be wrong.
00 0164e0cc 00679fea     0164e0dc 00666402 00000005 ws7v6!Exceptionloginitialization$qqrv+0x504b1
01 0164e0fc 0066661f     0164e124 00000005 0164e148 ws7v6!Exceptionloginitialization$qqrv+0x56de6
02 0164e128 006665e9     0164e1a0 00000005 1225eb00 ws7v6!Exceptionloginitialization$qqrv+0x4341b
eax=124bbd58 ebx=00c07598 ecx=124bbd70 edx=124ba760 esi=00000000 edi=00000005
eip=006736b5 esp=0164e08c ebp=0164e0cc iopl=0         nv up ei pl nz na po nc
cs=0023  ss=002b  ds=002b  es=002b  fs=0053  gs=002b             efl=00000202
ws7v6!Exceptionloginitialization$qqrv+0x504b1:
006736b5 c60300          mov     byte ptr [ebx],0           ds:002b:00c07598=01
 # ChildEBP RetAddr      Args to Child              
WARNING: Stack unwind information not available. Following frames may be wrong.
00 0164e128 006665e9     0164e1a0 00000003 1225eb00 ws7v6!Exceptionloginitialization$qqrv+0x5047c
01 0164e164 0063ee5f     0164e178 0063f03e 0164e1a8 ws7v6!Exceptionloginitialization$qqrv+0x433e5
02 0164e1a8 0063e896     1225eb00 0851e680 12260000 ws7v6!Exceptionloginitialization$qqrv+0x1bc5b
eax=124bbd70 ebx=00c07598 ecx=00000001 edx=00c07598 esi=124bbd60 edi=00000003
eip=00673680 esp=0164e0e8 ebp=0164e128 iopl=0         nv up ei pl zr na pe nc
cs=0023  ss=002b  ds=002b  es=002b  fs=0053  gs=002b             efl=00000246
ws7v6!Exceptionloginitialization$qqrv+0x5047c:
00673680 b9f8ffffff      mov     ecx,0FFFFFFF8h
 # ChildEBP RetAddr      Args to Child              
WARNING: Stack unwind information not available. Following frames may be wrong.
00 0164e128 006665e9     0164e1a0 00000003 1225eb00 ws7v6!Exceptionloginitialization$qqrv+0x504b1
01 0164e164 0063ee5f     0164e178 0063f03e 0164e1a8 ws7v6!Exceptionloginitialization$qqrv+0x433e5
02 0164e1a8 0063e896     1225eb00 0851e680 12260000 ws7v6!Exceptionloginitialization$qqrv+0x1bc5b
eax=124bbd70 ebx=00c07598 ecx=124bbd88 edx=124ba760 esi=124bbd60 edi=00000003
eip=006736b5 esp=0164e0e8 ebp=0164e128 iopl=0         nv up ei pl nz na pe nc
cs=0023  ss=002b  ds=002b  es=002b  fs=0053  gs=002b             efl=00000206
ws7v6!Exceptionloginitialization$qqrv+0x504b1:
006736b5 c60300          mov     byte ptr [ebx],0           ds:002b:00c07598=01
 # ChildEBP RetAddr      Args to Child              
WARNING: Stack unwind information not available. Following frames may be wrong.
00 0164e0cc 00679fea     0164e0dc 00666402 00000005 ws7v6!Exceptionloginitialization$qqrv+0x5047c
01 0164e0fc 0066661f     0164e124 00000005 0164e148 ws7v6!Exceptionloginitialization$qqrv+0x56de6
02 0164e128 006665e9     0164e1a0 00000005 1225eb00 ws7v6!Exceptionloginitialization$qqrv+0x4341b
eax=124bbd88 ebx=00c07598 ecx=00000001 edx=00c07598 esi=00000000 edi=00000005
eip=00673680 esp=0164e08c ebp=0164e0cc iopl=0         nv up ei pl zr na pe nc
cs=0023  ss=002b  ds=002b  es=002b  fs=0053  gs=002b             efl=00000246
ws7v6!Exceptionloginitialization$qqrv+0x5047c:
00673680 b9f8ffffff      mov     ecx,0FFFFFFF8h
 # ChildEBP RetAddr      Args to Child              
WARNING: Stack unwind information not available. Following frames may be wrong.
00 0164e0cc 00679fea     0164e0dc 00666402 00000005 ws7v6!Exceptionloginitialization$qqrv+0x504b1
01 0164e0fc 0066661f     0164e124 00000005 0164e148 ws7v6!Exceptionloginitialization$qqrv+0x56de6
02 0164e128 006665e9     0164e1a0 00000005 1225eb00 ws7v6!Exceptionloginitialization$qqrv+0x4341b
eax=124bbd88 ebx=00c07598 ecx=124bbda0 edx=124ba760 esi=00000000 edi=00000005
eip=006736b5 esp=0164e08c ebp=0164e0cc iopl=0         nv up ei pl nz na po nc
cs=0023  ss=002b  ds=002b  es=002b  fs=0053  gs=002b             efl=00000202
ws7v6!Exceptionloginitialization$qqrv+0x504b1:
006736b5 c60300          mov     byte ptr [ebx],0           ds:002b:00c07598=01
 # ChildEBP RetAddr      Args to Child              
WARNING: Stack unwind information not available. Following frames may be wrong.
00 0164e1f4 006665e9     0164e26c 00000003 1225e5c0 ws7v6!Exceptionloginitialization$qqrv+0x5047c
01 0164e230 0063ee5f     0164e244 0063f03e 0164e274 ws7v6!Exceptionloginitialization$qqrv+0x433e5
02 0164e274 0063e896     1225e5c0 0851e680 122602a0 ws7v6!Exceptionloginitialization$qqrv+0x1bc5b
eax=124bbda0 ebx=00c07598 ecx=00000001 edx=00c07598 esi=124bbd90 edi=00000003
eip=00673680 esp=0164e1b4 ebp=0164e1f4 iopl=0         nv up ei pl zr na pe nc
cs=0023  ss=002b  ds=002b  es=002b  fs=0053  gs=002b             efl=00000246
ws7v6!Exceptionloginitialization$qqrv+0x5047c:
00673680 b9f8ffffff      mov     ecx,0FFFFFFF8h
 # ChildEBP RetAddr      Args to Child              
WARNING: Stack unwind information not available. Following frames may be wrong.
00 0164e1f4 006665e9     0164e26c 00000003 1225e5c0 ws7v6!Exceptionloginitialization$qqrv+0x504b1
01 0164e230 0063ee5f     0164e244 0063f03e 0164e274 ws7v6!Exceptionloginitialization$qqrv+0x433e5
02 0164e274 0063e896     1225e5c0 0851e680 122602a0 ws7v6!Exceptionloginitialization$qqrv+0x1bc5b
eax=124bbda0 ebx=00c07598 ecx=124bbdb8 edx=124ba760 esi=124bbd90 edi=00000003
eip=006736b5 esp=0164e1b4 ebp=0164e1f4 iopl=0         nv up ei pl nz na pe nc
cs=0023  ss=002b  ds=002b  es=002b  fs=0053  gs=002b             efl=00000206
ws7v6!Exceptionloginitialization$qqrv+0x504b1:
006736b5 c60300          mov     byte ptr [ebx],0           ds:002b:00c07598=01
 # ChildEBP RetAddr      Args to Child              
WARNING: Stack unwind information not available. Following frames may be wrong.
00 0164e198 00679fea     0164e1a8 00666402 00000005 ws7v6!Exceptionloginitialization$qqrv+0x5047c
01 0164e1c8 0066661f     0164e1f0 00000005 0164e214 ws7v6!Exceptionloginitialization$qqrv+0x56de6
02 0164e1f4 006665e9     0164e26c 00000005 1225e5c0 ws7v6!Exceptionloginitialization$qqrv+0x4341b
eax=124bbdb8 ebx=00c07598 ecx=00000001 edx=00c07598 esi=00000000 edi=00000005
eip=00673680 esp=0164e158 ebp=0164e198 iopl=0         nv up ei pl zr na pe nc
cs=0023  ss=002b  ds=002b  es=002b  fs=0053  gs=002b             efl=00000246
ws7v6!Exceptionloginitialization$qqrv+0x5047c:
00673680 b9f8ffffff      mov     ecx,0FFFFFFF8h
 # ChildEBP RetAddr      Args to Child              
WARNING: Stack unwind information not available. Following frames may be wrong.
00 0164e198 00679fea     0164e1a8 00666402 00000005 ws7v6!Exceptionloginitialization$qqrv+0x504b1
01 0164e1c8 0066661f     0164e1f0 00000005 0164e214 ws7v6!Exceptionloginitialization$qqrv+0x56de6
02 0164e1f4 006665e9     0164e26c 00000005 1225e5c0 ws7v6!Exceptionloginitialization$qqrv+0x4341b
eax=124bbdb8 ebx=00c07598 ecx=124bbdd0 edx=124ba760 esi=00000000 edi=00000005
eip=006736b5 esp=0164e158 ebp=0164e198 iopl=0         nv up ei pl nz na pe nc
cs=0023  ss=002b  ds=002b  es=002b  fs=0053  gs=002b             efl=00000206
ws7v6!Exceptionloginitialization$qqrv+0x504b1:
006736b5 c60300          mov     byte ptr [ebx],0           ds:002b:00c07598=01
 # ChildEBP RetAddr      Args to Child              
WARNING: Stack unwind information not available. Following frames may be wrong.
00 0164e1d8 00718b55     00718b30 006324b8 0063e4b4 ws7v6!Exceptionloginitialization$qqrv+0x5047c
01 0164e204 0063e6a0     0164e268 0164e21c 0063e77e ws7v6!Exceptionloginitialization$qqrv+0xf5951
02 0164e268 0063e90a     0164e2c0 0063e93e 0164e294 ws7v6!Exceptionloginitialization$qqrv+0x1b49c
eax=124bbdd0 ebx=00c07598 ecx=00000001 edx=00c07598 esi=00000004 edi=12260540
eip=00673680 esp=0164e154 ebp=0164e1d8 iopl=0         nv up ei pl zr na pe nc
cs=0023  ss=002b  ds=002b  es=002b  fs=0053  gs=002b             efl=00000246
ws7v6!Exceptionloginitialization$qqrv+0x5047c:
00673680 b9f8ffffff      mov     ecx,0FFFFFFF8h
 # ChildEBP RetAddr      Args to Child              
WARNING: Stack unwind information not available. Following frames may be wrong.
00 0164e1d8 00718b55     00718b30 006324b8 0063e4b4 ws7v6!Exceptionloginitialization$qqrv+0x504b1
01 0164e204 0063e6a0     0164e268 0164e21c 0063e77e ws7v6!Exceptionloginitialization$qqrv+0xf5951
02 0164e268 0063e90a     0164e2c0 0063e93e 0164e294 ws7v6!Exceptionloginitialization$qqrv+0x1b49c
eax=124bbdd0 ebx=00c07598 ecx=124bbde8 edx=124ba760 esi=00000004 edi=12260540
eip=006736b5 esp=0164e154 ebp=0164e1d8 iopl=0         nv up ei pl nz na po nc
cs=0023  ss=002b  ds=002b  es=002b  fs=0053  gs=002b             efl=00000202
ws7v6!Exceptionloginitialization$qqrv+0x504b1:
006736b5 c60300          mov     byte ptr [ebx],0           ds:002b:00c07598=01
 # ChildEBP RetAddr      Args to Child              
WARNING: Stack unwind information not available. Following frames may be wrong.
00 0164e1d8 00718b55     00718b30 006324b8 0063e4b4 ws7v6!Exceptionloginitialization$qqrv+0x5047c
01 0164e204 0063e6a0     0164e268 0164e21c 0063e77e ws7v6!Exceptionloginitialization$qqrv+0xf5951
02 0164e268 0063e90a     0164e2c0 0063e93e 0164e294 ws7v6!Exceptionloginitialization$qqrv+0x1b49c
eax=124bbde8 ebx=00c07598 ecx=124bbd01 edx=00c07598 esi=12260540 edi=122602a0
eip=00673680 esp=0164e14c ebp=0164e1d8 iopl=0         nv up ei pl zr na pe nc
cs=0023  ss=002b  ds=002b  es=002b  fs=0053  gs=002b             efl=00000246
ws7v6!Exceptionloginitialization$qqrv+0x5047c:
00673680 b9f8ffffff      mov     ecx,0FFFFFFF8h
 # ChildEBP RetAddr      Args to Child              
WARNING: Stack unwind information not available. Following frames may be wrong.
00 0164e1d8 00718b55     00718b30 006324b8 0063e4b4 ws7v6!Exceptionloginitialization$qqrv+0x504b1
01 0164e204 0063e6a0     0164e268 0164e21c 0063e77e ws7v6!Exceptionloginitialization$qqrv+0xf5951
02 0164e268 0063e90a     0164e2c0 0063e93e 0164e294 ws7v6!Exceptionloginitialization$qqrv+0x1b49c
eax=124bbde8 ebx=00c07598 ecx=124bbe00 edx=124ba760 esi=12260540 edi=122602a0
eip=006736b5 esp=0164e14c ebp=0164e1d8 iopl=0         nv up ei pl nz ac pe nc
cs=0023  ss=002b  ds=002b  es=002b  fs=0053  gs=002b             efl=00000216
ws7v6!Exceptionloginitialization$qqrv+0x504b1:
006736b5 c60300          mov     byte ptr [ebx],0           ds:002b:00c07598=01
 # ChildEBP RetAddr      Args to Child              
WARNING: Stack unwind information not available. Following frames may be wrong.
00 0164e1d8 00718b55     00718b30 006324b8 0063e4b4 ws7v6!Exceptionloginitialization$qqrv+0x5047c
01 0164e204 0063e6a0     0164e268 0164e21c 0063e77e ws7v6!Exceptionloginitialization$qqrv+0xf5951
02 0164e268 0063e90a     0164e2c0 0063e93e 0164e294 ws7v6!Exceptionloginitialization$qqrv+0x1b49c
eax=124bbe00 ebx=00c07598 ecx=00000001 edx=00c07598 esi=00000004 edi=12260540
eip=00673680 esp=0164e154 ebp=0164e1d8 iopl=0         nv up ei pl zr na pe nc
cs=0023  ss=002b  ds=002b  es=002b  fs=0053  gs=002b             efl=00000246
ws7v6!Exceptionloginitialization$qqrv+0x5047c:
00673680 b9f8ffffff      mov     ecx,0FFFFFFF8h
 # ChildEBP RetAddr      Args to Child              
WARNING: Stack unwind information not available. Following frames may be wrong.
00 0164e1d8 00718b55     00718b30 006324b8 0063e4b4 ws7v6!Exceptionloginitialization$qqrv+0x504b1
01 0164e204 0063e6a0     0164e268 0164e21c 0063e77e ws7v6!Exceptionloginitialization$qqrv+0xf5951
02 0164e268 0063e90a     0164e2c0 0063e93e 0164e294 ws7v6!Exceptionloginitialization$qqrv+0x1b49c
eax=124bbe00 ebx=00c07598 ecx=124bbe18 edx=124ba760 esi=00000004 edi=12260540
eip=006736b5 esp=0164e154 ebp=0164e1d8 iopl=0         nv up ei pl nz na po nc
cs=0023  ss=002b  ds=002b  es=002b  fs=0053  gs=002b             efl=00000202
ws7v6!Exceptionloginitialization$qqrv+0x504b1:
006736b5 c60300          mov     byte ptr [ebx],0           ds:002b:00c07598=01
 # ChildEBP RetAddr      Args to Child              
WARNING: Stack unwind information not available. Following frames may be wrong.
00 0164e154 00644a35     00000000 12260540 124b2800 ws7v6!Exceptionloginitialization$qqrv+0x5047c
01 0164e178 006ec0a3     12253cdc 008fbeb8 12253cdc ws7v6!Exceptionloginitialization$qqrv+0x21831
02 0164e190 00644d9d     12253cdc 12260540 0164e1d8 ws7v6!Exceptionloginitialization$qqrv+0xc8e9f
eax=124bbe18 ebx=00c07598 ecx=00000001 edx=00c07598 esi=124b2800 edi=12253cdc
eip=00673680 esp=0164e0f4 ebp=0164e154 iopl=0         nv up ei pl zr na pe nc
cs=0023  ss=002b  ds=002b  es=002b  fs=0053  gs=002b             efl=00000246
ws7v6!Exceptionloginitialization$qqrv+0x5047c:
00673680 b9f8ffffff      mov     ecx,0FFFFFFF8h
 # ChildEBP RetAddr      Args to Child              
WARNING: Stack unwind information not available. Following frames may be wrong.
00 0164e154 00644a35     00000000 12260540 124b2800 ws7v6!Exceptionloginitialization$qqrv+0x504b1
01 0164e178 006ec0a3     12253cdc 008fbeb8 12253cdc ws7v6!Exceptionloginitialization$qqrv+0x21831
02 0164e190 00644d9d     12253cdc 12260540 0164e1d8 ws7v6!Exceptionloginitialization$qqrv+0xc8e9f
eax=124bbe18 ebx=00c07598 ecx=124bbe30 edx=124ba760 esi=124b2800 edi=12253cdc
eip=006736b5 esp=0164e0f4 ebp=0164e154 iopl=0         nv up ei pl nz na po nc
cs=0023  ss=002b  ds=002b  es=002b  fs=0053  gs=002b             efl=00000202
ws7v6!Exceptionloginitialization$qqrv+0x504b1:
006736b5 c60300          mov     byte ptr [ebx],0           ds:002b:00c07598=01
 # ChildEBP RetAddr      Args to Child              
WARNING: Stack unwind information not available. Following frames may be wrong.
00 0164e128 006665e9     0164e1a0 00000003 122602a0 ws7v6!Exceptionloginitialization$qqrv+0x5047c
01 0164e164 0063ee5f     0164e178 0063f03e 0164e1a8 ws7v6!Exceptionloginitialization$qqrv+0x433e5
02 0164e1a8 0063e896     122602a0 0851e680 12260540 ws7v6!Exceptionloginitialization$qqrv+0x1bc5b
eax=124bbe30 ebx=00c07598 ecx=00000001 edx=00c07598 esi=124bbe20 edi=00000003
eip=00673680 esp=0164e0e8 ebp=0164e128 iopl=0         nv up ei pl zr na pe nc
cs=0023  ss=002b  ds=002b  es=002b  fs=0053  gs=002b             efl=00000246
ws7v6!Exceptionloginitialization$qqrv+0x5047c:
00673680 b9f8ffffff      mov     ecx,0FFFFFFF8h
 # ChildEBP RetAddr      Args to Child              
WARNING: Stack unwind information not available. Following frames may be wrong.
00 0164e128 006665e9     0164e1a0 00000003 122602a0 ws7v6!Exceptionloginitialization$qqrv+0x504b1
01 0164e164 0063ee5f     0164e178 0063f03e 0164e1a8 ws7v6!Exceptionloginitialization$qqrv+0x433e5
02 0164e1a8 0063e896     122602a0 0851e680 12260540 ws7v6!Exceptionloginitialization$qqrv+0x1bc5b
eax=124bbe30 ebx=00c07598 ecx=124bbe48 edx=124ba760 esi=124bbe20 edi=00000003
eip=006736b5 esp=0164e0e8 ebp=0164e128 iopl=0         nv up ei pl nz na pe nc
cs=0023  ss=002b  ds=002b  es=002b  fs=0053  gs=002b             efl=00000206
ws7v6!Exceptionloginitialization$qqrv+0x504b1:
006736b5 c60300          mov     byte ptr [ebx],0           ds:002b:00c07598=01
 # ChildEBP RetAddr      Args to Child              
WARNING: Stack unwind information not available. Following frames may be wrong.
00 0164e0cc 00679fea     0164e0dc 00666402 00000005 ws7v6!Exceptionloginitialization$qqrv+0x5047c
01 0164e0fc 0066661f     0164e124 00000005 0164e148 ws7v6!Exceptionloginitialization$qqrv+0x56de6
02 0164e128 006665e9     0164e1a0 00000005 122602a0 ws7v6!Exceptionloginitialization$qqrv+0x4341b
eax=124bbe48 ebx=00c07598 ecx=00000001 edx=00c07598 esi=00000000 edi=00000005
eip=00673680 esp=0164e08c ebp=0164e0cc iopl=0         nv up ei pl zr na pe nc
cs=0023  ss=002b  ds=002b  es=002b  fs=0053  gs=002b             efl=00000246
ws7v6!Exceptionloginitialization$qqrv+0x5047c:
00673680 b9f8ffffff      mov     ecx,0FFFFFFF8h
 # ChildEBP RetAddr      Args to Child              
WARNING: Stack unwind information not available. Following frames may be wrong.
00 0164e0cc 00679fea     0164e0dc 00666402 00000005 ws7v6!Exceptionloginitialization$qqrv+0x504b1
01 0164e0fc 0066661f     0164e124 00000005 0164e148 ws7v6!Exceptionloginitialization$qqrv+0x56de6
02 0164e128 006665e9     0164e1a0 00000005 122602a0 ws7v6!Exceptionloginitialization$qqrv+0x4341b
eax=124bbe48 ebx=00c07598 ecx=124bbe60 edx=124ba760 esi=00000000 edi=00000005
eip=006736b5 esp=0164e08c ebp=0164e0cc iopl=0         nv up ei pl nz na po nc
cs=0023  ss=002b  ds=002b  es=002b  fs=0053  gs=002b             efl=00000202
ws7v6!Exceptionloginitialization$qqrv+0x504b1:
006736b5 c60300          mov     byte ptr [ebx],0           ds:002b:00c07598=01
 # ChildEBP RetAddr      Args to Child              
WARNING: Stack unwind information not available. Following frames may be wrong.
00 0164e128 006665e9     0164e1a0 00000003 122602a0 ws7v6!Exceptionloginitialization$qqrv+0x5047c
01 0164e164 0063ee5f     0164e178 0063f03e 0164e1a8 ws7v6!Exceptionloginitialization$qqrv+0x433e5
02 0164e1a8 0063e896     122602a0 0851e680 122607e0 ws7v6!Exceptionloginitialization$qqrv+0x1bc5b
eax=124bbe60 ebx=00c07598 ecx=00000001 edx=00c07598 esi=124bbe50 edi=00000003
eip=00673680 esp=0164e0e8 ebp=0164e128 iopl=0         nv up ei pl zr na pe nc
cs=0023  ss=002b  ds=002b  es=002b  fs=0053  gs=002b             efl=00000246
ws7v6!Exceptionloginitialization$qqrv+0x5047c:
00673680 b9f8ffffff      mov     ecx,0FFFFFFF8h
 # ChildEBP RetAddr      Args to Child              
WARNING: Stack unwind information not available. Following frames may be wrong.
00 0164e128 006665e9     0164e1a0 00000003 122602a0 ws7v6!Exceptionloginitialization$qqrv+0x504b1
01 0164e164 0063ee5f     0164e178 0063f03e 0164e1a8 ws7v6!Exceptionloginitialization$qqrv+0x433e5
02 0164e1a8 0063e896     122602a0 0851e680 122607e0 ws7v6!Exceptionloginitialization$qqrv+0x1bc5b
eax=124bbe60 ebx=00c07598 ecx=124bbe78 edx=124ba760 esi=124bbe50 edi=00000003
eip=006736b5 esp=0164e0e8 ebp=0164e128 iopl=0         nv up ei pl nz na pe nc
cs=0023  ss=002b  ds=002b  es=002b  fs=0053  gs=002b             efl=00000206
ws7v6!Exceptionloginitialization$qqrv+0x504b1:
006736b5 c60300          mov     byte ptr [ebx],0           ds:002b:00c07598=01
 # ChildEBP RetAddr      Args to Child              
WARNING: Stack unwind information not available. Following frames may be wrong.
00 0164e0cc 00679fea     0164e0dc 00666402 00000005 ws7v6!Exceptionloginitialization$qqrv+0x5047c
01 0164e0fc 0066661f     0164e124 00000005 0164e148 ws7v6!Exceptionloginitialization$qqrv+0x56de6
02 0164e128 006665e9     0164e1a0 00000005 122602a0 ws7v6!Exceptionloginitialization$qqrv+0x4341b
eax=124bbe78 ebx=00c07598 ecx=00000001 edx=00c07598 esi=00000000 edi=00000005
eip=00673680 esp=0164e08c ebp=0164e0cc iopl=0         nv up ei pl zr na pe nc
cs=0023  ss=002b  ds=002b  es=002b  fs=0053  gs=002b             efl=00000246
ws7v6!Exceptionloginitialization$qqrv+0x5047c:
00673680 b9f8ffffff      mov     ecx,0FFFFFFF8h
 # ChildEBP RetAddr      Args to Child              
WARNING: Stack unwind information not available. Following frames may be wrong.
00 0164e0cc 00679fea     0164e0dc 00666402 00000005 ws7v6!Exceptionloginitialization$qqrv+0x504b1
01 0164e0fc 0066661f     0164e124 00000005 0164e148 ws7v6!Exceptionloginitialization$qqrv+0x56de6
02 0164e128 006665e9     0164e1a0 00000005 122602a0 ws7v6!Exceptionloginitialization$qqrv+0x4341b
eax=124bbe78 ebx=00c07598 ecx=124bbe90 edx=124ba760 esi=00000000 edi=00000005
eip=006736b5 esp=0164e08c ebp=0164e0cc iopl=0         nv up ei pl nz na pe nc
cs=0023  ss=002b  ds=002b  es=002b  fs=0053  gs=002b             efl=00000206
ws7v6!Exceptionloginitialization$qqrv+0x504b1:
006736b5 c60300          mov     byte ptr [ebx],0           ds:002b:00c07598=01
 # ChildEBP RetAddr      Args to Child              
WARNING: Stack unwind information not available. Following frames may be wrong.
00 0164e128 006665e9     0164e1a0 00000003 122602a0 ws7v6!Exceptionloginitialization$qqrv+0x5047c
01 0164e164 0063ee5f     0164e178 0063f03e 0164e1a8 ws7v6!Exceptionloginitialization$qqrv+0x433e5
02 0164e1a8 0063e896     122602a0 0851e680 12260a80 ws7v6!Exceptionloginitialization$qqrv+0x1bc5b
eax=124bbe90 ebx=00c07598 ecx=00000001 edx=00c07598 esi=124bbe80 edi=00000003
eip=00673680 esp=0164e0e8 ebp=0164e128 iopl=0         nv up ei pl zr na pe nc
cs=0023  ss=002b  ds=002b  es=002b  fs=0053  gs=002b             efl=00000246
ws7v6!Exceptionloginitialization$qqrv+0x5047c:
00673680 b9f8ffffff      mov     ecx,0FFFFFFF8h
 # ChildEBP RetAddr      Args to Child              
WARNING: Stack unwind information not available. Following frames may be wrong.
00 0164e128 006665e9     0164e1a0 00000003 122602a0 ws7v6!Exceptionloginitialization$qqrv+0x504b1
01 0164e164 0063ee5f     0164e178 0063f03e 0164e1a8 ws7v6!Exceptionloginitialization$qqrv+0x433e5
02 0164e1a8 0063e896     122602a0 0851e680 12260a80 ws7v6!Exceptionloginitialization$qqrv+0x1bc5b
eax=124bbe90 ebx=00c07598 ecx=124bbea8 edx=124ba760 esi=124bbe80 edi=00000003
eip=006736b5 esp=0164e0e8 ebp=0164e128 iopl=0         nv up ei pl nz na po nc
cs=0023  ss=002b  ds=002b  es=002b  fs=0053  gs=002b             efl=00000202
ws7v6!Exceptionloginitialization$qqrv+0x504b1:
006736b5 c60300          mov     byte ptr [ebx],0           ds:002b:00c07598=01
 # ChildEBP RetAddr      Args to Child              
WARNING: Stack unwind information not available. Following frames may be wrong.
00 0164e0cc 00679fea     0164e0dc 00666402 00000005 ws7v6!Exceptionloginitialization$qqrv+0x5047c
01 0164e0fc 0066661f     0164e124 00000005 0164e148 ws7v6!Exceptionloginitialization$qqrv+0x56de6
02 0164e128 006665e9     0164e1a0 00000005 122602a0 ws7v6!Exceptionloginitialization$qqrv+0x4341b
eax=124bbea8 ebx=00c07598 ecx=00000001 edx=00c07598 esi=00000000 edi=00000005
eip=00673680 esp=0164e08c ebp=0164e0cc iopl=0         nv up ei pl zr na pe nc
cs=0023  ss=002b  ds=002b  es=002b  fs=0053  gs=002b             efl=00000246
ws7v6!Exceptionloginitialization$qqrv+0x5047c:
00673680 b9f8ffffff      mov     ecx,0FFFFFFF8h
 # ChildEBP RetAddr      Args to Child              
WARNING: Stack unwind information not available. Following frames may be wrong.
00 0164e0cc 00679fea     0164e0dc 00666402 00000005 ws7v6!Exceptionloginitialization$qqrv+0x504b1
01 0164e0fc 0066661f     0164e124 00000005 0164e148 ws7v6!Exceptionloginitialization$qqrv+0x56de6
02 0164e128 006665e9     0164e1a0 00000005 122602a0 ws7v6!Exceptionloginitialization$qqrv+0x4341b
eax=124bbea8 ebx=00c07598 ecx=124bbec0 edx=124ba760 esi=00000000 edi=00000005
eip=006736b5 esp=0164e08c ebp=0164e0cc iopl=0         nv up ei pl nz na po nc
cs=0023  ss=002b  ds=002b  es=002b  fs=0053  gs=002b             efl=00000202
ws7v6!Exceptionloginitialization$qqrv+0x504b1:
006736b5 c60300          mov     byte ptr [ebx],0           ds:002b:00c07598=01
 # ChildEBP RetAddr      Args to Child              
WARNING: Stack unwind information not available. Following frames may be wrong.
00 0164e220 00644a35     00000000 11e986f0 124b2800 ws7v6!Exceptionloginitialization$qqrv+0x5047c
01 0164e244 006ec0a3     1230395c 008fbeb8 1230395c ws7v6!Exceptionloginitialization$qqrv+0x21831
02 0164e25c 00644d9d     1230395c 11e986f0 0164e2a4 ws7v6!Exceptionloginitialization$qqrv+0xc8e9f
eax=124bbec0 ebx=00c07598 ecx=00000001 edx=00c07598 esi=124b2800 edi=1230395c
eip=00673680 esp=0164e1c0 ebp=0164e220 iopl=0         nv up ei pl zr na pe nc
cs=0023  ss=002b  ds=002b  es=002b  fs=0053  gs=002b             efl=00000246
ws7v6!Exceptionloginitialization$qqrv+0x5047c:
00673680 b9f8ffffff      mov     ecx,0FFFFFFF8h
 # ChildEBP RetAddr      Args to Child              
WARNING: Stack unwind information not available. Following frames may be wrong.
00 0164e220 00644a35     00000000 11e986f0 124b2800 ws7v6!Exceptionloginitialization$qqrv+0x504b1
01 0164e244 006ec0a3     1230395c 008fbeb8 1230395c ws7v6!Exceptionloginitialization$qqrv+0x21831
02 0164e25c 00644d9d     1230395c 11e986f0 0164e2a4 ws7v6!Exceptionloginitialization$qqrv+0xc8e9f
eax=124bbec0 ebx=00c07598 ecx=124bbed8 edx=124ba760 esi=124b2800 edi=1230395c
eip=006736b5 esp=0164e1c0 ebp=0164e220 iopl=0         nv up ei pl nz na pe nc
cs=0023  ss=002b  ds=002b  es=002b  fs=0053  gs=002b             efl=00000206
ws7v6!Exceptionloginitialization$qqrv+0x504b1:
006736b5 c60300          mov     byte ptr [ebx],0           ds:002b:00c07598=01
 # ChildEBP RetAddr      Args to Child              
WARNING: Stack unwind information not available. Following frames may be wrong.
00 0164e1f4 006665e9     0164e26c 00000003 1225e5c0 ws7v6!Exceptionloginitialization$qqrv+0x5047c
01 0164e230 0063ee5f     0164e244 0063f03e 0164e274 ws7v6!Exceptionloginitialization$qqrv+0x433e5
02 0164e274 0063e896     1225e5c0 0851e680 11e986f0 ws7v6!Exceptionloginitialization$qqrv+0x1bc5b
eax=124bbed8 ebx=00c07598 ecx=00000001 edx=00c07598 esi=124bbec8 edi=00000003
eip=00673680 esp=0164e1b4 ebp=0164e1f4 iopl=0         nv up ei pl zr na pe nc
cs=0023  ss=002b  ds=002b  es=002b  fs=0053  gs=002b             efl=00000246
ws7v6!Exceptionloginitialization$qqrv+0x5047c:
00673680 b9f8ffffff      mov     ecx,0FFFFFFF8h
 # ChildEBP RetAddr      Args to Child              
WARNING: Stack unwind information not available. Following frames may be wrong.
00 0164e1f4 006665e9     0164e26c 00000003 1225e5c0 ws7v6!Exceptionloginitialization$qqrv+0x504b1
01 0164e230 0063ee5f     0164e244 0063f03e 0164e274 ws7v6!Exceptionloginitialization$qqrv+0x433e5
02 0164e274 0063e896     1225e5c0 0851e680 11e986f0 ws7v6!Exceptionloginitialization$qqrv+0x1bc5b
eax=124bbed8 ebx=00c07598 ecx=124bbef0 edx=124ba760 esi=124bbec8 edi=00000003
eip=006736b5 esp=0164e1b4 ebp=0164e1f4 iopl=0         nv up ei pl nz na pe nc
cs=0023  ss=002b  ds=002b  es=002b  fs=0053  gs=002b             efl=00000206
ws7v6!Exceptionloginitialization$qqrv+0x504b1:
006736b5 c60300          mov     byte ptr [ebx],0           ds:002b:00c07598=01
 # ChildEBP RetAddr      Args to Child              
WARNING: Stack unwind information not available. Following frames may be wrong.
00 0164e198 00679fea     0164e1a8 00666402 00000005 ws7v6!Exceptionloginitialization$qqrv+0x5047c
01 0164e1c8 0066661f     0164e1f0 00000005 0164e214 ws7v6!Exceptionloginitialization$qqrv+0x56de6
02 0164e1f4 006665e9     0164e26c 00000005 1225e5c0 ws7v6!Exceptionloginitialization$qqrv+0x4341b
eax=124bbef0 ebx=00c07598 ecx=00000001 edx=00c07598 esi=00000000 edi=00000005
eip=00673680 esp=0164e158 ebp=0164e198 iopl=0         nv up ei pl zr na pe nc
cs=0023  ss=002b  ds=002b  es=002b  fs=0053  gs=002b             efl=00000246
ws7v6!Exceptionloginitialization$qqrv+0x5047c:
00673680 b9f8ffffff      mov     ecx,0FFFFFFF8h
 # ChildEBP RetAddr      Args to Child              
WARNING: Stack unwind information not available. Following frames may be wrong.
00 0164e198 00679fea     0164e1a8 00666402 00000005 ws7v6!Exceptionloginitialization$qqrv+0x504b1
01 0164e1c8 0066661f     0164e1f0 00000005 0164e214 ws7v6!Exceptionloginitialization$qqrv+0x56de6
02 0164e1f4 006665e9     0164e26c 00000005 1225e5c0 ws7v6!Exceptionloginitialization$qqrv+0x4341b
eax=124bbef0 ebx=00c07598 ecx=124bbf08 edx=124ba760 esi=00000000 edi=00000005
eip=006736b5 esp=0164e158 ebp=0164e198 iopl=0         nv up ei pl nz na po nc
cs=0023  ss=002b  ds=002b  es=002b  fs=0053  gs=002b             efl=00000202
ws7v6!Exceptionloginitialization$qqrv+0x504b1:
006736b5 c60300          mov     byte ptr [ebx],0           ds:002b:00c07598=01
 # ChildEBP RetAddr      Args to Child              
WARNING: Stack unwind information not available. Following frames may be wrong.
00 0164e330 00679fea     0164e340 00666402 00000005 ws7v6!Exceptionloginitialization$qqrv+0x5047c
01 0164e360 0066661f     0164e388 00000005 0164e3ac ws7v6!Exceptionloginitialization$qqrv+0x56de6
02 0164e38c 006665e9     0164e404 00000005 00000000 ws7v6!Exceptionloginitialization$qqrv+0x4341b
eax=124bbf08 ebx=00c07598 ecx=00000001 edx=00c07598 esi=00000000 edi=00000005
eip=00673680 esp=0164e2f0 ebp=0164e330 iopl=0         nv up ei pl zr na pe nc
cs=0023  ss=002b  ds=002b  es=002b  fs=0053  gs=002b             efl=00000246
ws7v6!Exceptionloginitialization$qqrv+0x5047c:
00673680 b9f8ffffff      mov     ecx,0FFFFFFF8h
 # ChildEBP RetAddr      Args to Child              
WARNING: Stack unwind information not available. Following frames may be wrong.
00 0164e330 00679fea     0164e340 00666402 00000005 ws7v6!Exceptionloginitialization$qqrv+0x504b1
01 0164e360 0066661f     0164e388 00000005 0164e3ac ws7v6!Exceptionloginitialization$qqrv+0x56de6
02 0164e38c 006665e9     0164e404 00000005 00000000 ws7v6!Exceptionloginitialization$qqrv+0x4341b
eax=124bbf08 ebx=00c07598 ecx=124bbf20 edx=124ba760 esi=00000000 edi=00000005
eip=006736b5 esp=0164e2f0 ebp=0164e330 iopl=0         nv up ei pl nz na pe nc
cs=0023  ss=002b  ds=002b  es=002b  fs=0053  gs=002b             efl=00000206
ws7v6!Exceptionloginitialization$qqrv+0x504b1:
006736b5 c60300          mov     byte ptr [ebx],0           ds:002b:00c07598=01
 # ChildEBP RetAddr      Args to Child              
WARNING: Stack unwind information not available. Following frames may be wrong.
00 0164e2fc 00644a35     00000000 12260d20 124b2800 ws7v6!Exceptionloginitialization$qqrv+0x5047c
01 0164e320 006ec0a3     123038bc 008fbeb8 123038bc ws7v6!Exceptionloginitialization$qqrv+0x21831
02 0164e338 00644d9d     123038bc 12260d20 0164e380 ws7v6!Exceptionloginitialization$qqrv+0xc8e9f
eax=124bbf20 ebx=00c07598 ecx=00000001 edx=00c07598 esi=124b2800 edi=123038bc
eip=00673680 esp=0164e29c ebp=0164e2fc iopl=0         nv up ei pl zr na pe nc
cs=0023  ss=002b  ds=002b  es=002b  fs=0053  gs=002b             efl=00000246
ws7v6!Exceptionloginitialization$qqrv+0x5047c:
00673680 b9f8ffffff      mov     ecx,0FFFFFFF8h
 # ChildEBP RetAddr      Args to Child              
WARNING: Stack unwind information not available. Following frames may be wrong.
00 0164e2fc 00644a35     00000000 12260d20 124b2800 ws7v6!Exceptionloginitialization$qqrv+0x504b1
01 0164e320 006ec0a3     123038bc 008fbeb8 123038bc ws7v6!Exceptionloginitialization$qqrv+0x21831
02 0164e338 00644d9d     123038bc 12260d20 0164e380 ws7v6!Exceptionloginitialization$qqrv+0xc8e9f
eax=124bbf20 ebx=00c07598 ecx=124bbf38 edx=124ba760 esi=124b2800 edi=123038bc
eip=006736b5 esp=0164e29c ebp=0164e2fc iopl=0         nv up ei pl nz na po nc
cs=0023  ss=002b  ds=002b  es=002b  fs=0053  gs=002b             efl=00000202
ws7v6!Exceptionloginitialization$qqrv+0x504b1:
006736b5 c60300          mov     byte ptr [ebx],0           ds:002b:00c07598=01
 # ChildEBP RetAddr      Args to Child              
WARNING: Stack unwind information not available. Following frames may be wrong.
00 0164e230 006665e9     0164e294 00000003 0072bba6 ws7v6!Exceptionloginitialization$qqrv+0x5047c
01 0164e270 0063fcbf     0164e2a8 0063fdb8 0164e2a0 ws7v6!Exceptionloginitialization$qqrv+0x433e5
02 0164e2a0 0063f42a     0164e2f8 0063f595 0164e2f0 ws7v6!Exceptionloginitialization$qqrv+0x1cabb
eax=124bbf38 ebx=00c07598 ecx=00000001 edx=00c07598 esi=124bbf28 edi=00000003
eip=00673680 esp=0164e1f0 ebp=0164e230 iopl=0         nv up ei pl zr na pe nc
cs=0023  ss=002b  ds=002b  es=002b  fs=0053  gs=002b             efl=00000246
ws7v6!Exceptionloginitialization$qqrv+0x5047c:
00673680 b9f8ffffff      mov     ecx,0FFFFFFF8h
 # ChildEBP RetAddr      Args to Child              
WARNING: Stack unwind information not available. Following frames may be wrong.
00 0164e230 006665e9     0164e294 00000003 0072bba6 ws7v6!Exceptionloginitialization$qqrv+0x504b1
01 0164e270 0063fcbf     0164e2a8 0063fdb8 0164e2a0 ws7v6!Exceptionloginitialization$qqrv+0x433e5
02 0164e2a0 0063f42a     0164e2f8 0063f595 0164e2f0 ws7v6!Exceptionloginitialization$qqrv+0x1cabb
eax=124bbf38 ebx=00c07598 ecx=124bbf50 edx=124ba760 esi=124bbf28 edi=00000003
eip=006736b5 esp=0164e1f0 ebp=0164e230 iopl=0         nv up ei pl nz na po nc
cs=0023  ss=002b  ds=002b  es=002b  fs=0053  gs=002b             efl=00000202
ws7v6!Exceptionloginitialization$qqrv+0x504b1:
006736b5 c60300          mov     byte ptr [ebx],0           ds:002b:00c07598=01
 # ChildEBP RetAddr      Args to Child              
WARNING: Stack unwind information not available. Following frames may be wrong.
00 0164e2a4 00718b55     00718b30 006324b8 0063e4b4 ws7v6!Exceptionloginitialization$qqrv+0x5047c
01 0164e2d0 0063e6a0     0164e334 0164e2e8 0063e77e ws7v6!Exceptionloginitialization$qqrv+0xf5951
02 0164e334 0063e90a     0164e38c 0063e93e 0164e360 ws7v6!Exceptionloginitialization$qqrv+0x1b49c
eax=124bbf50 ebx=00c07598 ecx=00000001 edx=00c07598 esi=11e989d0 edi=12260d20
eip=00673680 esp=0164e218 ebp=0164e2a4 iopl=0         nv up ei pl zr na pe nc
cs=0023  ss=002b  ds=002b  es=002b  fs=0053  gs=002b             efl=00000246
ws7v6!Exceptionloginitialization$qqrv+0x5047c:
00673680 b9f8ffffff      mov     ecx,0FFFFFFF8h
 # ChildEBP RetAddr      Args to Child              
WARNING: Stack unwind information not available. Following frames may be wrong.
00 0164e2a4 00718b55     00718b30 006324b8 0063e4b4 ws7v6!Exceptionloginitialization$qqrv+0x504b1
01 0164e2d0 0063e6a0     0164e334 0164e2e8 0063e77e ws7v6!Exceptionloginitialization$qqrv+0xf5951
02 0164e334 0063e90a     0164e38c 0063e93e 0164e360 ws7v6!Exceptionloginitialization$qqrv+0x1b49c
eax=124bbf50 ebx=00c07598 ecx=124bbf68 edx=124ba760 esi=11e989d0 edi=12260d20
eip=006736b5 esp=0164e218 ebp=0164e2a4 iopl=0         nv up ei pl nz na pe nc
cs=0023  ss=002b  ds=002b  es=002b  fs=0053  gs=002b             efl=00000206
ws7v6!Exceptionloginitialization$qqrv+0x504b1:
006736b5 c60300          mov     byte ptr [ebx],0           ds:002b:00c07598=01
 # ChildEBP RetAddr      Args to Child              
WARNING: Stack unwind information not available. Following frames may be wrong.
00 0164e2a4 00718b55     00718b30 006324b8 0063e4b4 ws7v6!Exceptionloginitialization$qqrv+0x5047c
01 0164e2d0 0063e6a0     0164e334 0164e2e8 0063e77e ws7v6!Exceptionloginitialization$qqrv+0xf5951
02 0164e334 0063e90a     0164e38c 0063e93e 0164e360 ws7v6!Exceptionloginitialization$qqrv+0x1b49c
eax=124bbf68 ebx=00c07598 ecx=00000001 edx=00c07598 esi=00000004 edi=11e989d0
eip=00673680 esp=0164e220 ebp=0164e2a4 iopl=0         nv up ei pl zr na pe nc
cs=0023  ss=002b  ds=002b  es=002b  fs=0053  gs=002b             efl=00000246
ws7v6!Exceptionloginitialization$qqrv+0x5047c:
00673680 b9f8ffffff      mov     ecx,0FFFFFFF8h
 # ChildEBP RetAddr      Args to Child              
WARNING: Stack unwind information not available. Following frames may be wrong.
00 0164e2a4 00718b55     00718b30 006324b8 0063e4b4 ws7v6!Exceptionloginitialization$qqrv+0x504b1
01 0164e2d0 0063e6a0     0164e334 0164e2e8 0063e77e ws7v6!Exceptionloginitialization$qqrv+0xf5951
02 0164e334 0063e90a     0164e38c 0063e93e 0164e360 ws7v6!Exceptionloginitialization$qqrv+0x1b49c
eax=124bbf68 ebx=00c07598 ecx=124bbf80 edx=124ba760 esi=00000004 edi=11e989d0
eip=006736b5 esp=0164e220 ebp=0164e2a4 iopl=0         nv up ei pl nz ac pe nc
cs=0023  ss=002b  ds=002b  es=002b  fs=0053  gs=002b             efl=00000216
ws7v6!Exceptionloginitialization$qqrv+0x504b1:
006736b5 c60300          mov     byte ptr [ebx],0           ds:002b:00c07598=01
 # ChildEBP RetAddr      Args to Child              
WARNING: Stack unwind information not available. Following frames may be wrong.
00 0164e2a4 00718b55     00718b30 006324b8 0063e4b4 ws7v6!Exceptionloginitialization$qqrv+0x5047c
01 0164e2d0 0063e6a0     0164e334 0164e2e8 0063e77e ws7v6!Exceptionloginitialization$qqrv+0xf5951
02 0164e334 0063e90a     0164e38c 0063e93e 0164e360 ws7v6!Exceptionloginitialization$qqrv+0x1b49c
eax=124bbf80 ebx=00c07598 ecx=124bbf01 edx=00c07598 esi=11e989d0 edi=12260d20
eip=00673680 esp=0164e218 ebp=0164e2a4 iopl=0         nv up ei pl zr na pe nc
cs=0023  ss=002b  ds=002b  es=002b  fs=0053  gs=002b             efl=00000246
ws7v6!Exceptionloginitialization$qqrv+0x5047c:
00673680 b9f8ffffff      mov     ecx,0FFFFFFF8h
 # ChildEBP RetAddr      Args to Child              
WARNING: Stack unwind information not available. Following frames may be wrong.
00 0164e2a4 00718b55     00718b30 006324b8 0063e4b4 ws7v6!Exceptionloginitialization$qqrv+0x504b1
01 0164e2d0 0063e6a0     0164e334 0164e2e8 0063e77e ws7v6!Exceptionloginitialization$qqrv+0xf5951
02 0164e334 0063e90a     0164e38c 0063e93e 0164e360 ws7v6!Exceptionloginitialization$qqrv+0x1b49c
eax=124bbf80 ebx=00c07598 ecx=124bbf98 edx=124ba760 esi=11e989d0 edi=12260d20
eip=006736b5 esp=0164e218 ebp=0164e2a4 iopl=0         nv up ei pl nz na po nc
cs=0023  ss=002b  ds=002b  es=002b  fs=0053  gs=002b             efl=00000202
ws7v6!Exceptionloginitialization$qqrv+0x504b1:
006736b5 c60300          mov     byte ptr [ebx],0           ds:002b:00c07598=01
 # ChildEBP RetAddr      Args to Child              
WARNING: Stack unwind information not available. Following frames may be wrong.
00 0164e2a4 00718b55     00718b30 006324b8 0063e4b4 ws7v6!Exceptionloginitialization$qqrv+0x5047c
01 0164e2d0 0063e6a0     0164e334 0164e2e8 0063e77e ws7v6!Exceptionloginitialization$qqrv+0xf5951
02 0164e334 0063e90a     0164e38c 0063e93e 0164e360 ws7v6!Exceptionloginitialization$qqrv+0x1b49c
eax=124bbf98 ebx=00c07598 ecx=00000001 edx=00c07598 esi=00000004 edi=11e989d0
eip=00673680 esp=0164e220 ebp=0164e2a4 iopl=0         nv up ei pl zr na pe nc
cs=0023  ss=002b  ds=002b  es=002b  fs=0053  gs=002b             efl=00000246
ws7v6!Exceptionloginitialization$qqrv+0x5047c:
00673680 b9f8ffffff      mov     ecx,0FFFFFFF8h
 # ChildEBP RetAddr      Args to Child              
WARNING: Stack unwind information not available. Following frames may be wrong.
00 0164e2a4 00718b55     00718b30 006324b8 0063e4b4 ws7v6!Exceptionloginitialization$qqrv+0x504b1
01 0164e2d0 0063e6a0     0164e334 0164e2e8 0063e77e ws7v6!Exceptionloginitialization$qqrv+0xf5951
02 0164e334 0063e90a     0164e38c 0063e93e 0164e360 ws7v6!Exceptionloginitialization$qqrv+0x1b49c
eax=124bbf98 ebx=00c07598 ecx=124bbfb0 edx=124ba760 esi=00000004 edi=11e989d0
eip=006736b5 esp=0164e220 ebp=0164e2a4 iopl=0         nv up ei pl nz na po nc
cs=0023  ss=002b  ds=002b  es=002b  fs=0053  gs=002b             efl=00000202
ws7v6!Exceptionloginitialization$qqrv+0x504b1:
006736b5 c60300          mov     byte ptr [ebx],0           ds:002b:00c07598=01
 # ChildEBP RetAddr      Args to Child              
WARNING: Stack unwind information not available. Following frames may be wrong.
00 0164e220 00644a35     00000000 11e989d0 124b2800 ws7v6!Exceptionloginitialization$qqrv+0x5047c
01 0164e244 006ec0a3     12253fac 008fbeb8 12253fac ws7v6!Exceptionloginitialization$qqrv+0x21831
02 0164e25c 00644d9d     12253fac 11e989d0 0164e2a4 ws7v6!Exceptionloginitialization$qqrv+0xc8e9f
eax=124bbfb0 ebx=00c07598 ecx=00000001 edx=00c07598 esi=124b2800 edi=12253fac
eip=00673680 esp=0164e1c0 ebp=0164e220 iopl=0         nv up ei pl zr na pe nc
cs=0023  ss=002b  ds=002b  es=002b  fs=0053  gs=002b             efl=00000246
ws7v6!Exceptionloginitialization$qqrv+0x5047c:
00673680 b9f8ffffff      mov     ecx,0FFFFFFF8h
 # ChildEBP RetAddr      Args to Child              
WARNING: Stack unwind information not available. Following frames may be wrong.
00 0164e220 00644a35     00000000 11e989d0 124b2800 ws7v6!Exceptionloginitialization$qqrv+0x504b1
01 0164e244 006ec0a3     12253fac 008fbeb8 12253fac ws7v6!Exceptionloginitialization$qqrv+0x21831
02 0164e25c 00644d9d     12253fac 11e989d0 0164e2a4 ws7v6!Exceptionloginitialization$qqrv+0xc8e9f
eax=124bbfb0 ebx=00c07598 ecx=124bbfc8 edx=124ba760 esi=124b2800 edi=12253fac
eip=006736b5 esp=0164e1c0 ebp=0164e220 iopl=0         nv up ei pl nz na pe nc
cs=0023  ss=002b  ds=002b  es=002b  fs=0053  gs=002b             efl=00000206
ws7v6!Exceptionloginitialization$qqrv+0x504b1:
006736b5 c60300          mov     byte ptr [ebx],0           ds:002b:00c07598=01
 # ChildEBP RetAddr      Args to Child              
WARNING: Stack unwind information not available. Following frames may be wrong.
00 0164e1f4 006665e9     0164e26c 00000003 12260d20 ws7v6!Exceptionloginitialization$qqrv+0x5047c
01 0164e230 0063ee5f     0164e244 0063f03e 0164e274 ws7v6!Exceptionloginitialization$qqrv+0x433e5
02 0164e274 0063e896     12260d20 0851e680 11e989d0 ws7v6!Exceptionloginitialization$qqrv+0x1bc5b
eax=124bbfc8 ebx=00c07598 ecx=00000001 edx=00c07598 esi=124bbfb8 edi=00000003
eip=00673680 esp=0164e1b4 ebp=0164e1f4 iopl=0         nv up ei pl zr na pe nc
cs=0023  ss=002b  ds=002b  es=002b  fs=0053  gs=002b             efl=00000246
ws7v6!Exceptionloginitialization$qqrv+0x5047c:
00673680 b9f8ffffff      mov     ecx,0FFFFFFF8h
 # ChildEBP RetAddr      Args to Child              
WARNING: Stack unwind information not available. Following frames may be wrong.
00 0164e1f4 006665e9     0164e26c 00000003 12260d20 ws7v6!Exceptionloginitialization$qqrv+0x504b1
01 0164e230 0063ee5f     0164e244 0063f03e 0164e274 ws7v6!Exceptionloginitialization$qqrv+0x433e5
02 0164e274 0063e896     12260d20 0851e680 11e989d0 ws7v6!Exceptionloginitialization$qqrv+0x1bc5b
eax=124bbfc8 ebx=00c07598 ecx=124bbfe0 edx=124ba760 esi=124bbfb8 edi=00000003
eip=006736b5 esp=0164e1b4 ebp=0164e1f4 iopl=0         nv up ei pl nz na po nc
cs=0023  ss=002b  ds=002b  es=002b  fs=0053  gs=002b             efl=00000202
ws7v6!Exceptionloginitialization$qqrv+0x504b1:
006736b5 c60300          mov     byte ptr [ebx],0           ds:002b:00c07598=01
 # ChildEBP RetAddr      Args to Child              
WARNING: Stack unwind information not available. Following frames may be wrong.
00 0164e198 00679fea     0164e1a8 00666402 00000005 ws7v6!Exceptionloginitialization$qqrv+0x5047c
01 0164e1c8 0066661f     0164e1f0 00000005 0164e214 ws7v6!Exceptionloginitialization$qqrv+0x56de6
02 0164e1f4 006665e9     0164e26c 00000005 12260d20 ws7v6!Exceptionloginitialization$qqrv+0x4341b
eax=124bbfe0 ebx=00c07598 ecx=00000001 edx=00c07598 esi=00000000 edi=00000005
eip=00673680 esp=0164e158 ebp=0164e198 iopl=0         nv up ei pl zr na pe nc
cs=0023  ss=002b  ds=002b  es=002b  fs=0053  gs=002b             efl=00000246
ws7v6!Exceptionloginitialization$qqrv+0x5047c:
00673680 b9f8ffffff      mov     ecx,0FFFFFFF8h
 # ChildEBP RetAddr      Args to Child              
WARNING: Stack unwind information not available. Following frames may be wrong.
00 0164e198 00679fea     0164e1a8 00666402 00000005 ws7v6!Exceptionloginitialization$qqrv+0x504b1
01 0164e1c8 0066661f     0164e1f0 00000005 0164e214 ws7v6!Exceptionloginitialization$qqrv+0x56de6
02 0164e1f4 006665e9     0164e26c 00000005 12260d20 ws7v6!Exceptionloginitialization$qqrv+0x4341b
eax=124bbfe0 ebx=00c07598 ecx=124bbff8 edx=124ba760 esi=00000000 edi=00000005
eip=006736b5 esp=0164e158 ebp=0164e198 iopl=0         nv up ei pl nz na pe nc
cs=0023  ss=002b  ds=002b  es=002b  fs=0053  gs=002b             efl=00000206
ws7v6!Exceptionloginitialization$qqrv+0x504b1:
006736b5 c60300          mov     byte ptr [ebx],0           ds:002b:00c07598=01
 # ChildEBP RetAddr      Args to Child              
WARNING: Stack unwind information not available. Following frames may be wrong.
00 0164e288 0074d408     00000000 0164e2b8 0067636d ws7v6!Exceptionloginitialization$qqrv+0x5047c
01 0164e2b0 0063e428     0164e2c4 0063e432 0164e2dc ws7v6!Exceptionloginitialization$qqrv+0x12a204
02 0164e2dc 0063e659     0164e334 0164e2f4 0063e7c0 ws7v6!Exceptionloginitialization$qqrv+0x1b224
eax=124bbff8 ebx=00c07598 ecx=1226a601 edx=00c07598 esi=00644988 edi=00000000
eip=00673680 esp=0164e248 ebp=0164e288 iopl=0         nv up ei pl zr na pe nc
cs=0023  ss=002b  ds=002b  es=002b  fs=0053  gs=002b             efl=00000246
ws7v6!Exceptionloginitialization$qqrv+0x5047c:
00673680 b9f8ffffff      mov     ecx,0FFFFFFF8h
 # ChildEBP RetAddr      Args to Child              
WARNING: Stack unwind information not available. Following frames may be wrong.
00 0164e288 0074d408     00000000 0164e2b8 0067636d ws7v6!Exceptionloginitialization$qqrv+0x504b1
01 0164e2b0 0063e428     0164e2c4 0063e432 0164e2dc ws7v6!Exceptionloginitialization$qqrv+0x12a204
02 0164e2dc 0063e659     0164e334 0164e2f4 0063e7c0 ws7v6!Exceptionloginitialization$qqrv+0x1b224
eax=124bbff8 ebx=00c07598 ecx=124bc010 edx=124ba760 esi=00644988 edi=00000000
eip=006736b5 esp=0164e248 ebp=0164e288 iopl=0         nv up ei pl nz na pe nc
cs=0023  ss=002b  ds=002b  es=002b  fs=0053  gs=002b             efl=00000206
ws7v6!Exceptionloginitialization$qqrv+0x504b1:
006736b5 c60300          mov     byte ptr [ebx],0           ds:002b:00c07598=01
 # ChildEBP RetAddr      Args to Child              
WARNING: Stack unwind information not available. Following frames may be wrong.
00 0164e288 0074d41e     00000001 0164e2b8 0067636d ws7v6!Exceptionloginitialization$qqrv+0x5047c
01 0164e2b0 0063e428     0164e2c4 0063e432 0164e2dc ws7v6!Exceptionloginitialization$qqrv+0x12a21a
02 0164e2dc 0063e659     0164e334 0164e2f4 0063e7c0 ws7v6!Exceptionloginitialization$qqrv+0x1b224
eax=124bc010 ebx=00c07598 ecx=1226a601 edx=00c07598 esi=00644988 edi=00000000
eip=00673680 esp=0164e248 ebp=0164e288 iopl=0         nv up ei pl zr na pe nc
cs=0023  ss=002b  ds=002b  es=002b  fs=0053  gs=002b             efl=00000246
ws7v6!Exceptionloginitialization$qqrv+0x5047c:
00673680 b9f8ffffff      mov     ecx,0FFFFFFF8h
 # ChildEBP RetAddr      Args to Child              
WARNING: Stack unwind information not available. Following frames may be wrong.
00 0164e288 0074d41e     00000001 0164e2b8 0067636d ws7v6!Exceptionloginitialization$qqrv+0x504b1
01 0164e2b0 0063e428     0164e2c4 0063e432 0164e2dc ws7v6!Exceptionloginitialization$qqrv+0x12a21a
02 0164e2dc 0063e659     0164e334 0164e2f4 0063e7c0 ws7v6!Exceptionloginitialization$qqrv+0x1b224
eax=124bc010 ebx=00c07598 ecx=124bc028 edx=124ba760 esi=00644988 edi=00000000
eip=006736b5 esp=0164e248 ebp=0164e288 iopl=0         nv up ei pl nz na po nc
cs=0023  ss=002b  ds=002b  es=002b  fs=0053  gs=002b             efl=00000202
ws7v6!Exceptionloginitialization$qqrv+0x504b1:
006736b5 c60300          mov     byte ptr [ebx],0           ds:002b:00c07598=01
 # ChildEBP RetAddr      Args to Child              
WARNING: Stack unwind information not available. Following frames may be wrong.
00 0164e220 00644a35     00000000 1226a610 124b2800 ws7v6!Exceptionloginitialization$qqrv+0x5047c
01 0164e244 006ec0a3     124bbfbc 008fbeb8 124bbfbc ws7v6!Exceptionloginitialization$qqrv+0x21831
02 0164e25c 00644d9d     124bbfbc 1226a610 0164e2a4 ws7v6!Exceptionloginitialization$qqrv+0xc8e9f
eax=124bc028 ebx=00c07598 ecx=00000001 edx=00c07598 esi=124b2800 edi=124bbfbc
eip=00673680 esp=0164e1c0 ebp=0164e220 iopl=0         nv up ei pl zr na pe nc
cs=0023  ss=002b  ds=002b  es=002b  fs=0053  gs=002b             efl=00000246
ws7v6!Exceptionloginitialization$qqrv+0x5047c:
00673680 b9f8ffffff      mov     ecx,0FFFFFFF8h
 # ChildEBP RetAddr      Args to Child              
WARNING: Stack unwind information not available. Following frames may be wrong.
00 0164e220 00644a35     00000000 1226a610 124b2800 ws7v6!Exceptionloginitialization$qqrv+0x504b1
01 0164e244 006ec0a3     124bbfbc 008fbeb8 124bbfbc ws7v6!Exceptionloginitialization$qqrv+0x21831
02 0164e25c 00644d9d     124bbfbc 1226a610 0164e2a4 ws7v6!Exceptionloginitialization$qqrv+0xc8e9f
eax=124bc028 ebx=00c07598 ecx=124bc040 edx=124ba760 esi=124b2800 edi=124bbfbc
eip=006736b5 esp=0164e1c0 ebp=0164e220 iopl=0         nv up ei pl nz na po nc
cs=0023  ss=002b  ds=002b  es=002b  fs=0053  gs=002b             efl=00000202
ws7v6!Exceptionloginitialization$qqrv+0x504b1:
006736b5 c60300          mov     byte ptr [ebx],0           ds:002b:00c07598=01
 # ChildEBP RetAddr      Args to Child              
WARNING: Stack unwind information not available. Following frames may be wrong.
00 0164e1f4 006665e9     0164e26c 00000003 12260d20 ws7v6!Exceptionloginitialization$qqrv+0x5047c
01 0164e230 0063ee5f     0164e244 0063f03e 0164e274 ws7v6!Exceptionloginitialization$qqrv+0x433e5
02 0164e274 0063e896     12260d20 0851e680 1226a610 ws7v6!Exceptionloginitialization$qqrv+0x1bc5b
eax=124bc040 ebx=00c07598 ecx=00000001 edx=00c07598 esi=124bc030 edi=00000003
eip=00673680 esp=0164e1b4 ebp=0164e1f4 iopl=0         nv up ei pl zr na pe nc
cs=0023  ss=002b  ds=002b  es=002b  fs=0053  gs=002b             efl=00000246
ws7v6!Exceptionloginitialization$qqrv+0x5047c:
00673680 b9f8ffffff      mov     ecx,0FFFFFFF8h
 # ChildEBP RetAddr      Args to Child              
WARNING: Stack unwind information not available. Following frames may be wrong.
00 0164e1f4 006665e9     0164e26c 00000003 12260d20 ws7v6!Exceptionloginitialization$qqrv+0x504b1
01 0164e230 0063ee5f     0164e244 0063f03e 0164e274 ws7v6!Exceptionloginitialization$qqrv+0x433e5
02 0164e274 0063e896     12260d20 0851e680 1226a610 ws7v6!Exceptionloginitialization$qqrv+0x1bc5b
eax=124bc040 ebx=00c07598 ecx=124bc058 edx=124ba760 esi=124bc030 edi=00000003
eip=006736b5 esp=0164e1b4 ebp=0164e1f4 iopl=0         nv up ei pl nz na pe nc
cs=0023  ss=002b  ds=002b  es=002b  fs=0053  gs=002b             efl=00000206
ws7v6!Exceptionloginitialization$qqrv+0x504b1:
006736b5 c60300          mov     byte ptr [ebx],0           ds:002b:00c07598=01
 # ChildEBP RetAddr      Args to Child              
WARNING: Stack unwind information not available. Following frames may be wrong.
00 0164e198 00679fea     0164e1a8 00666402 00000005 ws7v6!Exceptionloginitialization$qqrv+0x5047c
01 0164e1c8 0066661f     0164e1f0 00000005 0164e214 ws7v6!Exceptionloginitialization$qqrv+0x56de6
02 0164e1f4 006665e9     0164e26c 00000005 12260d20 ws7v6!Exceptionloginitialization$qqrv+0x4341b
eax=124bc058 ebx=00c07598 ecx=00000001 edx=00c07598 esi=00000000 edi=00000005
eip=00673680 esp=0164e158 ebp=0164e198 iopl=0         nv up ei pl zr na pe nc
cs=0023  ss=002b  ds=002b  es=002b  fs=0053  gs=002b             efl=00000246
ws7v6!Exceptionloginitialization$qqrv+0x5047c:
00673680 b9f8ffffff      mov     ecx,0FFFFFFF8h
 # ChildEBP RetAddr      Args to Child              
WARNING: Stack unwind information not available. Following frames may be wrong.
00 0164e198 00679fea     0164e1a8 00666402 00000005 ws7v6!Exceptionloginitialization$qqrv+0x504b1
01 0164e1c8 0066661f     0164e1f0 00000005 0164e214 ws7v6!Exceptionloginitialization$qqrv+0x56de6
02 0164e1f4 006665e9     0164e26c 00000005 12260d20 ws7v6!Exceptionloginitialization$qqrv+0x4341b
eax=124bc058 ebx=00c07598 ecx=124bc070 edx=124ba760 esi=00000000 edi=00000005
eip=006736b5 esp=0164e158 ebp=0164e198 iopl=0         nv up ei pl nz na pe nc
cs=0023  ss=002b  ds=002b  es=002b  fs=0053  gs=002b             efl=00000206
ws7v6!Exceptionloginitialization$qqrv+0x504b1:
006736b5 c60300          mov     byte ptr [ebx],0           ds:002b:00c07598=01
 # ChildEBP RetAddr      Args to Child              
WARNING: Stack unwind information not available. Following frames may be wrong.
00 0164e314 0071e069     0164e354 0164e32c 0071e0b9 ws7v6!Exceptionloginitialization$qqrv+0x5047c
01 0164e354 0071e1b9     0164e3b8 0071e1d6 0164e384 ws7v6!Exceptionloginitialization$qqrv+0xfae65
02 0164e384 0071e213     0071e208 0071d3df 0071d3e7 ws7v6!Exceptionloginitialization$qqrv+0xfafb5
eax=124bc070 ebx=00c07598 ecx=00000001 edx=00c07598 esi=00000004 edi=11e989d0
eip=00673680 esp=0164e2c0 ebp=0164e314 iopl=0         nv up ei pl zr na pe nc
cs=0023  ss=002b  ds=002b  es=002b  fs=0053  gs=002b             efl=00000246
ws7v6!Exceptionloginitialization$qqrv+0x5047c:
00673680 b9f8ffffff      mov     ecx,0FFFFFFF8h
 # ChildEBP RetAddr      Args to Child              
WARNING: Stack unwind information not available. Following frames may be wrong.
00 0164e314 0071e069     0164e354 0164e32c 0071e0b9 ws7v6!Exceptionloginitialization$qqrv+0x504b1
01 0164e354 0071e1b9     0164e3b8 0071e1d6 0164e384 ws7v6!Exceptionloginitialization$qqrv+0xfae65
02 0164e384 0071e213     0071e208 0071d3df 0071d3e7 ws7v6!Exceptionloginitialization$qqrv+0xfafb5
eax=124bc070 ebx=00c07598 ecx=124bc088 edx=124ba760 esi=00000004 edi=11e989d0
eip=006736b5 esp=0164e2c0 ebp=0164e314 iopl=0         nv up ei pl nz na po nc
cs=0023  ss=002b  ds=002b  es=002b  fs=0053  gs=002b             efl=00000202
ws7v6!Exceptionloginitialization$qqrv+0x504b1:
006736b5 c60300          mov     byte ptr [ebx],0           ds:002b:00c07598=01
 # ChildEBP RetAddr      Args to Child              
WARNING: Stack unwind information not available. Following frames may be wrong.
00 0164d9b8 0071fe2d     0005054a 12260d20 00001860 ws7v6!Exceptionloginitialization$qqrv+0x5047c
01 0164da04 0071f4cb     0164da18 0071f4e3 0164da34 ws7v6!Exceptionloginitialization$qqrv+0xfcc29
02 0164da34 00645ab6     00000005 00000000 01610165 ws7v6!Exceptionloginitialization$qqrv+0xfc2c7
eax=124bc088 ebx=00c07598 ecx=00000001 edx=00c07598 esi=00000004 edi=12260d20
eip=00673680 esp=0164d854 ebp=0164d9b8 iopl=0         nv up ei pl zr na pe nc
cs=0023  ss=002b  ds=002b  es=002b  fs=0053  gs=002b             efl=00000246
ws7v6!Exceptionloginitialization$qqrv+0x5047c:
00673680 b9f8ffffff      mov     ecx,0FFFFFFF8h
 # ChildEBP RetAddr      Args to Child              
WARNING: Stack unwind information not available. Following frames may be wrong.
00 0164d9b8 0071fe2d     0005054a 12260d20 00001860 ws7v6!Exceptionloginitialization$qqrv+0x504b1
01 0164da04 0071f4cb     0164da18 0071f4e3 0164da34 ws7v6!Exceptionloginitialization$qqrv+0xfcc29
02 0164da34 00645ab6     00000005 00000000 01610165 ws7v6!Exceptionloginitialization$qqrv+0xfc2c7
eax=124bc088 ebx=00c07598 ecx=124bc0a0 edx=124ba760 esi=00000004 edi=12260d20
eip=006736b5 esp=0164d854 ebp=0164d9b8 iopl=0         nv up ei pl nz na pe nc
cs=0023  ss=002b  ds=002b  es=002b  fs=0053  gs=002b             efl=00000206
ws7v6!Exceptionloginitialization$qqrv+0x504b1:
006736b5 c60300          mov     byte ptr [ebx],0           ds:002b:00c07598=01
 # ChildEBP RetAddr      Args to Child              
WARNING: Stack unwind information not available. Following frames may be wrong.
00 0164e368 0071e1b9     0164e3a4 0071e1d6 0164e398 ws7v6!Exceptionloginitialization$qqrv+0x5047c
01 0164e398 0071e213     0071dd2a 0164e3b0 0071dd4e ws7v6!Exceptionloginitialization$qqrv+0xfafb5
02 0164e3fc 0071e0e8     0164e430 0164e438 0071e128 ws7v6!Exceptionloginitialization$qqrv+0xfb00f
eax=124bc0a0 ebx=00c07598 ecx=00000001 edx=00c07598 esi=00000000 edi=00000000
eip=00673680 esp=0164e308 ebp=0164e368 iopl=0         nv up ei pl zr na pe nc
cs=0023  ss=002b  ds=002b  es=002b  fs=0053  gs=002b             efl=00000246
ws7v6!Exceptionloginitialization$qqrv+0x5047c:
00673680 b9f8ffffff      mov     ecx,0FFFFFFF8h
 # ChildEBP RetAddr      Args to Child              
WARNING: Stack unwind information not available. Following frames may be wrong.
00 0164e368 0071e1b9     0164e3a4 0071e1d6 0164e398 ws7v6!Exceptionloginitialization$qqrv+0x504b1
01 0164e398 0071e213     0071dd2a 0164e3b0 0071dd4e ws7v6!Exceptionloginitialization$qqrv+0xfafb5
02 0164e3fc 0071e0e8     0164e430 0164e438 0071e128 ws7v6!Exceptionloginitialization$qqrv+0xfb00f
eax=124bc0a0 ebx=00c07598 ecx=124bc0b8 edx=124ba760 esi=00000000 edi=00000000
eip=006736b5 esp=0164e308 ebp=0164e368 iopl=0         nv up ei pl nz na po nc
cs=0023  ss=002b  ds=002b  es=002b  fs=0053  gs=002b             efl=00000202
ws7v6!Exceptionloginitialization$qqrv+0x504b1:
006736b5 c60300          mov     byte ptr [ebx],0           ds:002b:00c07598=01
 # ChildEBP RetAddr      Args to Child              
WARNING: Stack unwind information not available. Following frames may be wrong.
00 0164e328 0071e069     0164e368 0164e340 0071e0b9 ws7v6!Exceptionloginitialization$qqrv+0x5047c
01 0164e368 0071e1b9     0164e3a4 0071e1d6 0164e398 ws7v6!Exceptionloginitialization$qqrv+0xfae65
02 0164e398 0071e213     0071dd2a 0164e3b0 0071dd4e ws7v6!Exceptionloginitialization$qqrv+0xfafb5
eax=124bc0b8 ebx=00c07598 ecx=00000001 edx=00c07598 esi=00000004 edi=11e989d0
eip=00673680 esp=0164e2d4 ebp=0164e328 iopl=0         nv up ei pl zr na pe nc
cs=0023  ss=002b  ds=002b  es=002b  fs=0053  gs=002b             efl=00000246
ws7v6!Exceptionloginitialization$qqrv+0x5047c:
00673680 b9f8ffffff      mov     ecx,0FFFFFFF8h
 # ChildEBP RetAddr      Args to Child              
WARNING: Stack unwind information not available. Following frames may be wrong.
00 0164e328 0071e069     0164e368 0164e340 0071e0b9 ws7v6!Exceptionloginitialization$qqrv+0x504b1
01 0164e368 0071e1b9     0164e3a4 0071e1d6 0164e398 ws7v6!Exceptionloginitialization$qqrv+0xfae65
02 0164e398 0071e213     0071dd2a 0164e3b0 0071dd4e ws7v6!Exceptionloginitialization$qqrv+0xfafb5
eax=124bc0b8 ebx=00c07598 ecx=124bc0d0 edx=124ba760 esi=00000004 edi=11e989d0
eip=006736b5 esp=0164e2d4 ebp=0164e328 iopl=0         nv up ei pl nz na po nc
cs=0023  ss=002b  ds=002b  es=002b  fs=0053  gs=002b             efl=00000202
ws7v6!Exceptionloginitialization$qqrv+0x504b1:
006736b5 c60300          mov     byte ptr [ebx],0           ds:002b:00c07598=01
 # ChildEBP RetAddr      Args to Child              
WARNING: Stack unwind information not available. Following frames may be wrong.
00 0164e340 00679fea     0164e350 00666402 00000005 ws7v6!Exceptionloginitialization$qqrv+0x5047c
01 0164e370 0066661f     0164e398 00000005 0164e3bc ws7v6!Exceptionloginitialization$qqrv+0x56de6
02 0164e39c 006665e9     0164e414 00000005 124b2800 ws7v6!Exceptionloginitialization$qqrv+0x4341b
eax=124bc0d0 ebx=00c07598 ecx=00000001 edx=00c07598 esi=00000000 edi=00000005
eip=00673680 esp=0164e300 ebp=0164e340 iopl=0         nv up ei pl zr na pe nc
cs=0023  ss=002b  ds=002b  es=002b  fs=0053  gs=002b             efl=00000246
ws7v6!Exceptionloginitialization$qqrv+0x5047c:
00673680 b9f8ffffff      mov     ecx,0FFFFFFF8h
 # ChildEBP RetAddr      Args to Child              
WARNING: Stack unwind information not available. Following frames may be wrong.
00 0164e340 00679fea     0164e350 00666402 00000005 ws7v6!Exceptionloginitialization$qqrv+0x504b1
01 0164e370 0066661f     0164e398 00000005 0164e3bc ws7v6!Exceptionloginitialization$qqrv+0x56de6
02 0164e39c 006665e9     0164e414 00000005 124b2800 ws7v6!Exceptionloginitialization$qqrv+0x4341b
eax=124bc0d0 ebx=00c07598 ecx=124bc0e8 edx=124ba760 esi=00000000 edi=00000005
eip=006736b5 esp=0164e300 ebp=0164e340 iopl=0         nv up ei pl nz na pe nc
cs=0023  ss=002b  ds=002b  es=002b  fs=0053  gs=002b             efl=00000206
ws7v6!Exceptionloginitialization$qqrv+0x504b1:
006736b5 c60300          mov     byte ptr [ebx],0           ds:002b:00c07598=01
 # ChildEBP RetAddr      Args to Child              
WARNING: Stack unwind information not available. Following frames may be wrong.
00 0164e380 00718b55     00718b30 006324b8 0063e4b4 ws7v6!Exceptionloginitialization$qqrv+0x5047c
01 0164e3ac 0063e6a0     0164e410 0164e3c4 0063e77e ws7v6!Exceptionloginitialization$qqrv+0xf5951
02 0164e410 0063e90a     0164e468 0063e93e 0164e43c ws7v6!Exceptionloginitialization$qqrv+0x1b49c
eax=124bc0e8 ebx=00c07598 ecx=00000001 edx=00c07598 esi=11e98cb0 edi=12261260
eip=00673680 esp=0164e2f4 ebp=0164e380 iopl=0         nv up ei pl zr na pe nc
cs=0023  ss=002b  ds=002b  es=002b  fs=0053  gs=002b             efl=00000246
ws7v6!Exceptionloginitialization$qqrv+0x5047c:
00673680 b9f8ffffff      mov     ecx,0FFFFFFF8h
 # ChildEBP RetAddr      Args to Child              
WARNING: Stack unwind information not available. Following frames may be wrong.
00 0164e380 00718b55     00718b30 006324b8 0063e4b4 ws7v6!Exceptionloginitialization$qqrv+0x504b1
01 0164e3ac 0063e6a0     0164e410 0164e3c4 0063e77e ws7v6!Exceptionloginitialization$qqrv+0xf5951
02 0164e410 0063e90a     0164e468 0063e93e 0164e43c ws7v6!Exceptionloginitialization$qqrv+0x1b49c
eax=124bc0e8 ebx=00c07598 ecx=124bc100 edx=124ba760 esi=11e98cb0 edi=12261260
eip=006736b5 esp=0164e2f4 ebp=0164e380 iopl=0         nv up ei pl nz ac po nc
cs=0023  ss=002b  ds=002b  es=002b  fs=0053  gs=002b             efl=00000212
ws7v6!Exceptionloginitialization$qqrv+0x504b1:
006736b5 c60300          mov     byte ptr [ebx],0           ds:002b:00c07598=01
 # ChildEBP RetAddr      Args to Child              
WARNING: Stack unwind information not available. Following frames may be wrong.
00 0164e380 00718b55     00718b30 006324b8 0063e4b4 ws7v6!Exceptionloginitialization$qqrv+0x5047c
01 0164e3ac 0063e6a0     0164e410 0164e3c4 0063e77e ws7v6!Exceptionloginitialization$qqrv+0xf5951
02 0164e410 0063e90a     0164e468 0063e93e 0164e43c ws7v6!Exceptionloginitialization$qqrv+0x1b49c
eax=124bc100 ebx=00c07598 ecx=00000001 edx=00c07598 esi=00000004 edi=11e98cb0
eip=00673680 esp=0164e2fc ebp=0164e380 iopl=0         nv up ei pl zr na pe nc
cs=0023  ss=002b  ds=002b  es=002b  fs=0053  gs=002b             efl=00000246
ws7v6!Exceptionloginitialization$qqrv+0x5047c:
00673680 b9f8ffffff      mov     ecx,0FFFFFFF8h
 # ChildEBP RetAddr      Args to Child              
WARNING: Stack unwind information not available. Following frames may be wrong.
00 0164e380 00718b55     00718b30 006324b8 0063e4b4 ws7v6!Exceptionloginitialization$qqrv+0x504b1
01 0164e3ac 0063e6a0     0164e410 0164e3c4 0063e77e ws7v6!Exceptionloginitialization$qqrv+0xf5951
02 0164e410 0063e90a     0164e468 0063e93e 0164e43c ws7v6!Exceptionloginitialization$qqrv+0x1b49c
eax=124bc100 ebx=00c07598 ecx=124bc118 edx=124ba760 esi=00000004 edi=11e98cb0
eip=006736b5 esp=0164e2fc ebp=0164e380 iopl=0         nv up ei pl nz na pe nc
cs=0023  ss=002b  ds=002b  es=002b  fs=0053  gs=002b             efl=00000206
ws7v6!Exceptionloginitialization$qqrv+0x504b1:
006736b5 c60300          mov     byte ptr [ebx],0           ds:002b:00c07598=01
 # ChildEBP RetAddr      Args to Child              
WARNING: Stack unwind information not available. Following frames may be wrong.
00 0164e380 00718b55     00718b30 006324b8 0063e4b4 ws7v6!Exceptionloginitialization$qqrv+0x5047c
01 0164e3ac 0063e6a0     0164e410 0164e3c4 0063e77e ws7v6!Exceptionloginitialization$qqrv+0xf5951
02 0164e410 0063e90a     0164e468 0063e93e 0164e43c ws7v6!Exceptionloginitialization$qqrv+0x1b49c
eax=124bc118 ebx=00c07598 ecx=124bc001 edx=00c07598 esi=11e98cb0 edi=12261260
eip=00673680 esp=0164e2f4 ebp=0164e380 iopl=0         nv up ei pl zr na pe nc
cs=0023  ss=002b  ds=002b  es=002b  fs=0053  gs=002b             efl=00000246
ws7v6!Exceptionloginitialization$qqrv+0x5047c:
00673680 b9f8ffffff      mov     ecx,0FFFFFFF8h
 # ChildEBP RetAddr      Args to Child              
WARNING: Stack unwind information not available. Following frames may be wrong.
00 0164e380 00718b55     00718b30 006324b8 0063e4b4 ws7v6!Exceptionloginitialization$qqrv+0x504b1
01 0164e3ac 0063e6a0     0164e410 0164e3c4 0063e77e ws7v6!Exceptionloginitialization$qqrv+0xf5951
02 0164e410 0063e90a     0164e468 0063e93e 0164e43c ws7v6!Exceptionloginitialization$qqrv+0x1b49c
eax=124bc118 ebx=00c07598 ecx=124bc130 edx=124ba760 esi=11e98cb0 edi=12261260
eip=006736b5 esp=0164e2f4 ebp=0164e380 iopl=0         nv up ei pl nz na pe nc
cs=0023  ss=002b  ds=002b  es=002b  fs=0053  gs=002b             efl=00000206
ws7v6!Exceptionloginitialization$qqrv+0x504b1:
006736b5 c60300          mov     byte ptr [ebx],0           ds:002b:00c07598=01
 # ChildEBP RetAddr      Args to Child              
WARNING: Stack unwind information not available. Following frames may be wrong.
00 0164e380 00718b55     00718b30 006324b8 0063e4b4 ws7v6!Exceptionloginitialization$qqrv+0x5047c
01 0164e3ac 0063e6a0     0164e410 0164e3c4 0063e77e ws7v6!Exceptionloginitialization$qqrv+0xf5951
02 0164e410 0063e90a     0164e468 0063e93e 0164e43c ws7v6!Exceptionloginitialization$qqrv+0x1b49c
eax=124bc130 ebx=00c07598 ecx=00000001 edx=00c07598 esi=00000004 edi=11e98cb0
eip=00673680 esp=0164e2fc ebp=0164e380 iopl=0         nv up ei pl zr na pe nc
cs=0023  ss=002b  ds=002b  es=002b  fs=0053  gs=002b             efl=00000246
ws7v6!Exceptionloginitialization$qqrv+0x5047c:
00673680 b9f8ffffff      mov     ecx,0FFFFFFF8h
 # ChildEBP RetAddr      Args to Child              
WARNING: Stack unwind information not available. Following frames may be wrong.
00 0164e380 00718b55     00718b30 006324b8 0063e4b4 ws7v6!Exceptionloginitialization$qqrv+0x504b1
01 0164e3ac 0063e6a0     0164e410 0164e3c4 0063e77e ws7v6!Exceptionloginitialization$qqrv+0xf5951
02 0164e410 0063e90a     0164e468 0063e93e 0164e43c ws7v6!Exceptionloginitialization$qqrv+0x1b49c
eax=124bc130 ebx=00c07598 ecx=124bc148 edx=124ba760 esi=00000004 edi=11e98cb0
eip=006736b5 esp=0164e2fc ebp=0164e380 iopl=0         nv up ei pl nz na po nc
cs=0023  ss=002b  ds=002b  es=002b  fs=0053  gs=002b             efl=00000202
ws7v6!Exceptionloginitialization$qqrv+0x504b1:
006736b5 c60300          mov     byte ptr [ebx],0           ds:002b:00c07598=01
 # ChildEBP RetAddr      Args to Child              
WARNING: Stack unwind information not available. Following frames may be wrong.
00 0164e2fc 00644a35     00000000 11e98cb0 124b2800 ws7v6!Exceptionloginitialization$qqrv+0x5047c
01 0164e320 006ec0a3     12303afc 008fbeb8 12303afc ws7v6!Exceptionloginitialization$qqrv+0x21831
02 0164e338 00644d9d     12303afc 11e98cb0 0164e380 ws7v6!Exceptionloginitialization$qqrv+0xc8e9f
eax=124bc148 ebx=00c07598 ecx=00000001 edx=00c07598 esi=124b2800 edi=12303afc
eip=00673680 esp=0164e29c ebp=0164e2fc iopl=0         nv up ei pl zr na pe nc
cs=0023  ss=002b  ds=002b  es=002b  fs=0053  gs=002b             efl=00000246
ws7v6!Exceptionloginitialization$qqrv+0x5047c:
00673680 b9f8ffffff      mov     ecx,0FFFFFFF8h
 # ChildEBP RetAddr      Args to Child              
WARNING: Stack unwind information not available. Following frames may be wrong.
00 0164e2fc 00644a35     00000000 11e98cb0 124b2800 ws7v6!Exceptionloginitialization$qqrv+0x504b1
01 0164e320 006ec0a3     12303afc 008fbeb8 12303afc ws7v6!Exceptionloginitialization$qqrv+0x21831
02 0164e338 00644d9d     12303afc 11e98cb0 0164e380 ws7v6!Exceptionloginitialization$qqrv+0xc8e9f
eax=124bc148 ebx=00c07598 ecx=124bc160 edx=124ba760 esi=124b2800 edi=12303afc
eip=006736b5 esp=0164e29c ebp=0164e2fc iopl=0         nv up ei pl nz na pe nc
cs=0023  ss=002b  ds=002b  es=002b  fs=0053  gs=002b             efl=00000206
ws7v6!Exceptionloginitialization$qqrv+0x504b1:
006736b5 c60300          mov     byte ptr [ebx],0           ds:002b:00c07598=01
 # ChildEBP RetAddr      Args to Child              
WARNING: Stack unwind information not available. Following frames may be wrong.
00 0164e2d0 006665e9     0164e348 00000003 12261260 ws7v6!Exceptionloginitialization$qqrv+0x5047c
01 0164e30c 0063ee5f     0164e320 0063f03e 0164e350 ws7v6!Exceptionloginitialization$qqrv+0x433e5
02 0164e350 0063e896     12261260 0851e680 11e98cb0 ws7v6!Exceptionloginitialization$qqrv+0x1bc5b
eax=124bc160 ebx=00c07598 ecx=00000001 edx=00c07598 esi=124bc150 edi=00000003
eip=00673680 esp=0164e290 ebp=0164e2d0 iopl=0         nv up ei pl zr na pe nc
cs=0023  ss=002b  ds=002b  es=002b  fs=0053  gs=002b             efl=00000246
ws7v6!Exceptionloginitialization$qqrv+0x5047c:
00673680 b9f8ffffff      mov     ecx,0FFFFFFF8h
 # ChildEBP RetAddr      Args to Child              
WARNING: Stack unwind information not available. Following frames may be wrong.
00 0164e2d0 006665e9     0164e348 00000003 12261260 ws7v6!Exceptionloginitialization$qqrv+0x504b1
01 0164e30c 0063ee5f     0164e320 0063f03e 0164e350 ws7v6!Exceptionloginitialization$qqrv+0x433e5
02 0164e350 0063e896     12261260 0851e680 11e98cb0 ws7v6!Exceptionloginitialization$qqrv+0x1bc5b
eax=124bc160 ebx=00c07598 ecx=124bc178 edx=124ba760 esi=124bc150 edi=00000003
eip=006736b5 esp=0164e290 ebp=0164e2d0 iopl=0         nv up ei pl nz na po nc
cs=0023  ss=002b  ds=002b  es=002b  fs=0053  gs=002b             efl=00000202
ws7v6!Exceptionloginitialization$qqrv+0x504b1:
006736b5 c60300          mov     byte ptr [ebx],0           ds:002b:00c07598=01
 # ChildEBP RetAddr      Args to Child              
WARNING: Stack unwind information not available. Following frames may be wrong.
00 0164e274 00679fea     0164e284 00666402 00000005 ws7v6!Exceptionloginitialization$qqrv+0x5047c
01 0164e2a4 0066661f     0164e2cc 00000005 0164e2f0 ws7v6!Exceptionloginitialization$qqrv+0x56de6
02 0164e2d0 006665e9     0164e348 00000005 12261260 ws7v6!Exceptionloginitialization$qqrv+0x4341b
eax=124bc178 ebx=00c07598 ecx=00000001 edx=00c07598 esi=00000000 edi=00000005
eip=00673680 esp=0164e234 ebp=0164e274 iopl=0         nv up ei pl zr na pe nc
cs=0023  ss=002b  ds=002b  es=002b  fs=0053  gs=002b             efl=00000246
ws7v6!Exceptionloginitialization$qqrv+0x5047c:
00673680 b9f8ffffff      mov     ecx,0FFFFFFF8h
 # ChildEBP RetAddr      Args to Child              
WARNING: Stack unwind information not available. Following frames may be wrong.
00 0164e274 00679fea     0164e284 00666402 00000005 ws7v6!Exceptionloginitialization$qqrv+0x504b1
01 0164e2a4 0066661f     0164e2cc 00000005 0164e2f0 ws7v6!Exceptionloginitialization$qqrv+0x56de6
02 0164e2d0 006665e9     0164e348 00000005 12261260 ws7v6!Exceptionloginitialization$qqrv+0x4341b
eax=124bc178 ebx=00c07598 ecx=124bc190 edx=124ba760 esi=00000000 edi=00000005
eip=006736b5 esp=0164e234 ebp=0164e274 iopl=0         nv up ei pl nz na po nc
cs=0023  ss=002b  ds=002b  es=002b  fs=0053  gs=002b             efl=00000202
ws7v6!Exceptionloginitialization$qqrv+0x504b1:
006736b5 c60300          mov     byte ptr [ebx],0           ds:002b:00c07598=01
 # ChildEBP RetAddr      Args to Child              
WARNING: Stack unwind information not available. Following frames may be wrong.
00 0164e38c 0063e428     0164e3a0 0063e432 0164e3b8 ws7v6!Exceptionloginitialization$qqrv+0x5047c
01 0164e3b8 0063e659     0164e410 0164e3d0 0063e7c0 ws7v6!Exceptionloginitialization$qqrv+0x1b224
02 0164e410 0063e90a     0164e468 0063e93e 0164e43c ws7v6!Exceptionloginitialization$qqrv+0x1b455
eax=124bc190 ebx=00c07598 ecx=0069d101 edx=00c07598 esi=00644988 edi=00000000
eip=00673680 esp=0164e338 ebp=0164e38c iopl=0         nv up ei pl zr na pe nc
cs=0023  ss=002b  ds=002b  es=002b  fs=0053  gs=002b             efl=00000246
ws7v6!Exceptionloginitialization$qqrv+0x5047c:
00673680 b9f8ffffff      mov     ecx,0FFFFFFF8h
 # ChildEBP RetAddr      Args to Child              
WARNING: Stack unwind information not available. Following frames may be wrong.
00 0164e38c 0063e428     0164e3a0 0063e432 0164e3b8 ws7v6!Exceptionloginitialization$qqrv+0x504b1
01 0164e3b8 0063e659     0164e410 0164e3d0 0063e7c0 ws7v6!Exceptionloginitialization$qqrv+0x1b224
02 0164e410 0063e90a     0164e468 0063e93e 0164e43c ws7v6!Exceptionloginitialization$qqrv+0x1b455
eax=124bc190 ebx=00c07598 ecx=124bc1a8 edx=124ba760 esi=00644988 edi=00000000
eip=006736b5 esp=0164e338 ebp=0164e38c iopl=0         nv up ei pl nz na pe nc
cs=0023  ss=002b  ds=002b  es=002b  fs=0053  gs=002b             efl=00000206
ws7v6!Exceptionloginitialization$qqrv+0x504b1:
006736b5 c60300          mov     byte ptr [ebx],0           ds:002b:00c07598=01
 # ChildEBP RetAddr      Args to Child              
WARNING: Stack unwind information not available. Following frames may be wrong.
00 0164e2fc 00644a35     00000000 11e98f90 124b2800 ws7v6!Exceptionloginitialization$qqrv+0x5047c
01 0164e320 006ec0a3     12254394 008fbeb8 12254394 ws7v6!Exceptionloginitialization$qqrv+0x21831
02 0164e338 00644d9d     12254394 11e98f90 0164e380 ws7v6!Exceptionloginitialization$qqrv+0xc8e9f
eax=124bc1a8 ebx=00c07598 ecx=00000001 edx=00c07598 esi=124b2800 edi=12254394
eip=00673680 esp=0164e29c ebp=0164e2fc iopl=0         nv up ei pl zr na pe nc
cs=0023  ss=002b  ds=002b  es=002b  fs=0053  gs=002b             efl=00000246
ws7v6!Exceptionloginitialization$qqrv+0x5047c:
00673680 b9f8ffffff      mov     ecx,0FFFFFFF8h
 # ChildEBP RetAddr      Args to Child              
WARNING: Stack unwind information not available. Following frames may be wrong.
00 0164e2fc 00644a35     00000000 11e98f90 124b2800 ws7v6!Exceptionloginitialization$qqrv+0x504b1
01 0164e320 006ec0a3     12254394 008fbeb8 12254394 ws7v6!Exceptionloginitialization$qqrv+0x21831
02 0164e338 00644d9d     12254394 11e98f90 0164e380 ws7v6!Exceptionloginitialization$qqrv+0xc8e9f
eax=124bc1a8 ebx=00c07598 ecx=124bc1c0 edx=124ba760 esi=124b2800 edi=12254394
eip=006736b5 esp=0164e29c ebp=0164e2fc iopl=0         nv up ei pl nz na pe nc
cs=0023  ss=002b  ds=002b  es=002b  fs=0053  gs=002b             efl=00000206
ws7v6!Exceptionloginitialization$qqrv+0x504b1:
006736b5 c60300          mov     byte ptr [ebx],0           ds:002b:00c07598=01
 # ChildEBP RetAddr      Args to Child              
WARNING: Stack unwind information not available. Following frames may be wrong.
00 0164e2d0 006665e9     0164e348 00000003 12261260 ws7v6!Exceptionloginitialization$qqrv+0x5047c
01 0164e30c 0063ee5f     0164e320 0063f03e 0164e350 ws7v6!Exceptionloginitialization$qqrv+0x433e5
02 0164e350 0063e896     12261260 0851e680 11e98f90 ws7v6!Exceptionloginitialization$qqrv+0x1bc5b
eax=124bc1c0 ebx=00c07598 ecx=00000001 edx=00c07598 esi=124bc1b0 edi=00000003
eip=00673680 esp=0164e290 ebp=0164e2d0 iopl=0         nv up ei pl zr na pe nc
cs=0023  ss=002b  ds=002b  es=002b  fs=0053  gs=002b             efl=00000246
ws7v6!Exceptionloginitialization$qqrv+0x5047c:
00673680 b9f8ffffff      mov     ecx,0FFFFFFF8h
 # ChildEBP RetAddr      Args to Child              
WARNING: Stack unwind information not available. Following frames may be wrong.
00 0164e2d0 006665e9     0164e348 00000003 12261260 ws7v6!Exceptionloginitialization$qqrv+0x504b1
01 0164e30c 0063ee5f     0164e320 0063f03e 0164e350 ws7v6!Exceptionloginitialization$qqrv+0x433e5
02 0164e350 0063e896     12261260 0851e680 11e98f90 ws7v6!Exceptionloginitialization$qqrv+0x1bc5b
eax=124bc1c0 ebx=00c07598 ecx=124bc1d8 edx=124ba760 esi=124bc1b0 edi=00000003
eip=006736b5 esp=0164e290 ebp=0164e2d0 iopl=0         nv up ei pl nz na po nc
cs=0023  ss=002b  ds=002b  es=002b  fs=0053  gs=002b             efl=00000202
ws7v6!Exceptionloginitialization$qqrv+0x504b1:
006736b5 c60300          mov     byte ptr [ebx],0           ds:002b:00c07598=01
 # ChildEBP RetAddr      Args to Child              
WARNING: Stack unwind information not available. Following frames may be wrong.
00 0164e274 00679fea     0164e284 00666402 00000005 ws7v6!Exceptionloginitialization$qqrv+0x5047c
01 0164e2a4 0066661f     0164e2cc 00000005 0164e2f0 ws7v6!Exceptionloginitialization$qqrv+0x56de6
02 0164e2d0 006665e9     0164e348 00000005 12261260 ws7v6!Exceptionloginitialization$qqrv+0x4341b
eax=124bc1d8 ebx=00c07598 ecx=00000001 edx=00c07598 esi=00000000 edi=00000005
eip=00673680 esp=0164e234 ebp=0164e274 iopl=0         nv up ei pl zr na pe nc
cs=0023  ss=002b  ds=002b  es=002b  fs=0053  gs=002b             efl=00000246
ws7v6!Exceptionloginitialization$qqrv+0x5047c:
00673680 b9f8ffffff      mov     ecx,0FFFFFFF8h
 # ChildEBP RetAddr      Args to Child              
WARNING: Stack unwind information not available. Following frames may be wrong.
00 0164e274 00679fea     0164e284 00666402 00000005 ws7v6!Exceptionloginitialization$qqrv+0x504b1
01 0164e2a4 0066661f     0164e2cc 00000005 0164e2f0 ws7v6!Exceptionloginitialization$qqrv+0x56de6
02 0164e2d0 006665e9     0164e348 00000005 12261260 ws7v6!Exceptionloginitialization$qqrv+0x4341b
eax=124bc1d8 ebx=00c07598 ecx=124bc1f0 edx=124ba760 esi=00000000 edi=00000005
eip=006736b5 esp=0164e234 ebp=0164e274 iopl=0         nv up ei pl nz na po nc
cs=0023  ss=002b  ds=002b  es=002b  fs=0053  gs=002b             efl=00000202
ws7v6!Exceptionloginitialization$qqrv+0x504b1:
006736b5 c60300          mov     byte ptr [ebx],0           ds:002b:00c07598=01
 # ChildEBP RetAddr      Args to Child              
WARNING: Stack unwind information not available. Following frames may be wrong.
00 0164e39c 006665e9     0164e414 00000003 124b2800 ws7v6!Exceptionloginitialization$qqrv+0x5047c
01 0164e3d8 0063ee5f     0164e3ec 0063f03e 0164e41c ws7v6!Exceptionloginitialization$qqrv+0x433e5
02 0164e41c 0063e896     124b2800 0851e680 12261500 ws7v6!Exceptionloginitialization$qqrv+0x1bc5b
eax=124bc1f0 ebx=00c07598 ecx=00000001 edx=00c07598 esi=124bc1e0 edi=00000003
eip=00673680 esp=0164e35c ebp=0164e39c iopl=0         nv up ei pl zr na pe nc
cs=0023  ss=002b  ds=002b  es=002b  fs=0053  gs=002b             efl=00000246
ws7v6!Exceptionloginitialization$qqrv+0x5047c:
00673680 b9f8ffffff      mov     ecx,0FFFFFFF8h
 # ChildEBP RetAddr      Args to Child              
WARNING: Stack unwind information not available. Following frames may be wrong.
00 0164e39c 006665e9     0164e414 00000003 124b2800 ws7v6!Exceptionloginitialization$qqrv+0x504b1
01 0164e3d8 0063ee5f     0164e3ec 0063f03e 0164e41c ws7v6!Exceptionloginitialization$qqrv+0x433e5
02 0164e41c 0063e896     124b2800 0851e680 12261500 ws7v6!Exceptionloginitialization$qqrv+0x1bc5b
eax=124bc1f0 ebx=00c07598 ecx=124bc208 edx=124ba760 esi=124bc1e0 edi=00000003
eip=006736b5 esp=0164e35c ebp=0164e39c iopl=0         nv up ei pl nz na pe nc
cs=0023  ss=002b  ds=002b  es=002b  fs=0053  gs=002b             efl=00000206
ws7v6!Exceptionloginitialization$qqrv+0x504b1:
006736b5 c60300          mov     byte ptr [ebx],0           ds:002b:00c07598=01
 # ChildEBP RetAddr      Args to Child              
WARNING: Stack unwind information not available. Following frames may be wrong.
00 0164e340 00679fea     0164e350 00666402 00000005 ws7v6!Exceptionloginitialization$qqrv+0x5047c
01 0164e370 0066661f     0164e398 00000005 0164e3bc ws7v6!Exceptionloginitialization$qqrv+0x56de6
02 0164e39c 006665e9     0164e414 00000005 124b2800 ws7v6!Exceptionloginitialization$qqrv+0x4341b
eax=124bc208 ebx=00c07598 ecx=00000001 edx=00c07598 esi=00000000 edi=00000005
eip=00673680 esp=0164e300 ebp=0164e340 iopl=0         nv up ei pl zr na pe nc
cs=0023  ss=002b  ds=002b  es=002b  fs=0053  gs=002b             efl=00000246
ws7v6!Exceptionloginitialization$qqrv+0x5047c:
00673680 b9f8ffffff      mov     ecx,0FFFFFFF8h
 # ChildEBP RetAddr      Args to Child              
WARNING: Stack unwind information not available. Following frames may be wrong.
00 0164e340 00679fea     0164e350 00666402 00000005 ws7v6!Exceptionloginitialization$qqrv+0x504b1
01 0164e370 0066661f     0164e398 00000005 0164e3bc ws7v6!Exceptionloginitialization$qqrv+0x56de6
02 0164e39c 006665e9     0164e414 00000005 124b2800 ws7v6!Exceptionloginitialization$qqrv+0x4341b
eax=124bc208 ebx=00c07598 ecx=124bc220 edx=124ba760 esi=00000000 edi=00000005
eip=006736b5 esp=0164e300 ebp=0164e340 iopl=0         nv up ei pl nz na po nc
cs=0023  ss=002b  ds=002b  es=002b  fs=0053  gs=002b             efl=00000202
ws7v6!Exceptionloginitialization$qqrv+0x504b1:
006736b5 c60300          mov     byte ptr [ebx],0           ds:002b:00c07598=01
 # ChildEBP RetAddr      Args to Child              
WARNING: Stack unwind information not available. Following frames may be wrong.
00 0164e3ac 0063e6a0     0164e410 0164e3c4 0063e77e ws7v6!Exceptionloginitialization$qqrv+0x5047c
01 0164e410 0063e90a     0164e468 0063e93e 0164e43c ws7v6!Exceptionloginitialization$qqrv+0x1b49c
02 0164e43c 0063e878     12261500 0851e680 0164e47c ws7v6!Exceptionloginitialization$qqrv+0x1b706
eax=124bc220 ebx=00c07598 ecx=00000001 edx=00c07598 esi=00000004 edi=124c5110
eip=00673680 esp=0164e31c ebp=0164e3ac iopl=0         nv up ei pl zr na pe nc
cs=0023  ss=002b  ds=002b  es=002b  fs=0053  gs=002b             efl=00000246
ws7v6!Exceptionloginitialization$qqrv+0x5047c:
00673680 b9f8ffffff      mov     ecx,0FFFFFFF8h
 # ChildEBP RetAddr      Args to Child              
WARNING: Stack unwind information not available. Following frames may be wrong.
00 0164e3ac 0063e6a0     0164e410 0164e3c4 0063e77e ws7v6!Exceptionloginitialization$qqrv+0x504b1
01 0164e410 0063e90a     0164e468 0063e93e 0164e43c ws7v6!Exceptionloginitialization$qqrv+0x1b49c
02 0164e43c 0063e878     12261500 0851e680 0164e47c ws7v6!Exceptionloginitialization$qqrv+0x1b706
eax=124bc220 ebx=00c07598 ecx=124bc238 edx=124ba760 esi=00000004 edi=124c5110
eip=006736b5 esp=0164e31c ebp=0164e3ac iopl=0         nv up ei pl nz na pe nc
cs=0023  ss=002b  ds=002b  es=002b  fs=0053  gs=002b             efl=00000206
ws7v6!Exceptionloginitialization$qqrv+0x504b1:
006736b5 c60300          mov     byte ptr [ebx],0           ds:002b:00c07598=01
 # ChildEBP RetAddr      Args to Child              
WARNING: Stack unwind information not available. Following frames may be wrong.
00 0164dffc 006a2c65     0164e1ac 006a2c8e 0164e034 ws7v6!Exceptionloginitialization$qqrv+0x5047c
01 0164e034 006a2ea5     124c5110 0071b563 0854ed90 ws7v6!Exceptionloginitialization$qqrv+0x7fa61
02 0164e16c 0071b187     124c5110 0000b00e 00000000 ws7v6!Exceptionloginitialization$qqrv+0x7fca1
eax=124bc238 ebx=00c07598 ecx=00000001 edx=00c07598 esi=00000440 edi=0854ed90
eip=00673680 esp=0164dfa4 ebp=0164dffc iopl=0         nv up ei pl zr na pe nc
cs=0023  ss=002b  ds=002b  es=002b  fs=0053  gs=002b             efl=00000246
ws7v6!Exceptionloginitialization$qqrv+0x5047c:
00673680 b9f8ffffff      mov     ecx,0FFFFFFF8h
 # ChildEBP RetAddr      Args to Child              
WARNING: Stack unwind information not available. Following frames may be wrong.
00 0164dffc 006a2c65     0164e1ac 006a2c8e 0164e034 ws7v6!Exceptionloginitialization$qqrv+0x504b1
01 0164e034 006a2ea5     124c5110 0071b563 0854ed90 ws7v6!Exceptionloginitialization$qqrv+0x7fa61
02 0164e16c 0071b187     124c5110 0000b00e 00000000 ws7v6!Exceptionloginitialization$qqrv+0x7fca1
eax=124bc238 ebx=00c07598 ecx=124bc250 edx=124ba760 esi=00000440 edi=0854ed90
eip=006736b5 esp=0164dfa4 ebp=0164dffc iopl=0         nv up ei pl nz na pe nc
cs=0023  ss=002b  ds=002b  es=002b  fs=0053  gs=002b             efl=00000206
ws7v6!Exceptionloginitialization$qqrv+0x504b1:
006736b5 c60300          mov     byte ptr [ebx],0           ds:002b:00c07598=01
 # ChildEBP RetAddr      Args to Child              
WARNING: Stack unwind information not available. Following frames may be wrong.
00 0164e2ec 006665e9     0164e364 00000003 12261500 ws7v6!Exceptionloginitialization$qqrv+0x5047c
01 0164e328 0063ee5f     0164e33c 0063f03e 0164e36c ws7v6!Exceptionloginitialization$qqrv+0x433e5
02 0164e36c 0063e896     12261500 0851e680 124c5110 ws7v6!Exceptionloginitialization$qqrv+0x1bc5b
eax=124bc250 ebx=00c07598 ecx=00000001 edx=00c07598 esi=124bc240 edi=00000003
eip=00673680 esp=0164e2ac ebp=0164e2ec iopl=0         nv up ei pl zr na pe nc
cs=0023  ss=002b  ds=002b  es=002b  fs=0053  gs=002b             efl=00000246
ws7v6!Exceptionloginitialization$qqrv+0x5047c:
00673680 b9f8ffffff      mov     ecx,0FFFFFFF8h
 # ChildEBP RetAddr      Args to Child              
WARNING: Stack unwind information not available. Following frames may be wrong.
00 0164e2ec 006665e9     0164e364 00000003 12261500 ws7v6!Exceptionloginitialization$qqrv+0x504b1
01 0164e328 0063ee5f     0164e33c 0063f03e 0164e36c ws7v6!Exceptionloginitialization$qqrv+0x433e5
02 0164e36c 0063e896     12261500 0851e680 124c5110 ws7v6!Exceptionloginitialization$qqrv+0x1bc5b
eax=124bc250 ebx=00c07598 ecx=124bc268 edx=124ba760 esi=124bc240 edi=00000003
eip=006736b5 esp=0164e2ac ebp=0164e2ec iopl=0         nv up ei pl nz na po nc
cs=0023  ss=002b  ds=002b  es=002b  fs=0053  gs=002b             efl=00000202
ws7v6!Exceptionloginitialization$qqrv+0x504b1:
006736b5 c60300          mov     byte ptr [ebx],0           ds:002b:00c07598=01
 # ChildEBP RetAddr      Args to Child              
WARNING: Stack unwind information not available. Following frames may be wrong.
00 0164e290 00679fea     0164e2a0 00666402 00000005 ws7v6!Exceptionloginitialization$qqrv+0x5047c
01 0164e2c0 0066661f     0164e2e8 00000005 0164e30c ws7v6!Exceptionloginitialization$qqrv+0x56de6
02 0164e2ec 006665e9     0164e364 00000005 12261500 ws7v6!Exceptionloginitialization$qqrv+0x4341b
eax=124bc268 ebx=00c07598 ecx=00000001 edx=00c07598 esi=00000000 edi=00000005
eip=00673680 esp=0164e250 ebp=0164e290 iopl=0         nv up ei pl zr na pe nc
cs=0023  ss=002b  ds=002b  es=002b  fs=0053  gs=002b             efl=00000246
ws7v6!Exceptionloginitialization$qqrv+0x5047c:
00673680 b9f8ffffff      mov     ecx,0FFFFFFF8h
 # ChildEBP RetAddr      Args to Child              
WARNING: Stack unwind information not available. Following frames may be wrong.
00 0164e290 00679fea     0164e2a0 00666402 00000005 ws7v6!Exceptionloginitialization$qqrv+0x504b1
01 0164e2c0 0066661f     0164e2e8 00000005 0164e30c ws7v6!Exceptionloginitialization$qqrv+0x56de6
02 0164e2ec 006665e9     0164e364 00000005 12261500 ws7v6!Exceptionloginitialization$qqrv+0x4341b
eax=124bc268 ebx=00c07598 ecx=124bc280 edx=124ba760 esi=00000000 edi=00000005
eip=006736b5 esp=0164e250 ebp=0164e290 iopl=0         nv up ei pl nz ac po nc
cs=0023  ss=002b  ds=002b  es=002b  fs=0053  gs=002b             efl=00000212
ws7v6!Exceptionloginitialization$qqrv+0x504b1:
006736b5 c60300          mov     byte ptr [ebx],0           ds:002b:00c07598=01
 # ChildEBP RetAddr      Args to Child              
WARNING: Stack unwind information not available. Following frames may be wrong.
00 0164e380 00718b55     00718b30 006324b8 0063e4b4 ws7v6!Exceptionloginitialization$qqrv+0x5047c
01 0164e3ac 0063e6a0     0164e410 0164e3c4 0063e77e ws7v6!Exceptionloginitialization$qqrv+0xf5951
02 0164e410 0063e90a     0164e468 0063e93e 0164e43c ws7v6!Exceptionloginitialization$qqrv+0x1b49c
eax=124bc280 ebx=00c07598 ecx=00000001 edx=00c07598 esi=11e99270 edi=12261500
eip=00673680 esp=0164e2f4 ebp=0164e380 iopl=0         nv up ei pl zr na pe nc
cs=0023  ss=002b  ds=002b  es=002b  fs=0053  gs=002b             efl=00000246
ws7v6!Exceptionloginitialization$qqrv+0x5047c:
00673680 b9f8ffffff      mov     ecx,0FFFFFFF8h
 # ChildEBP RetAddr      Args to Child              
WARNING: Stack unwind information not available. Following frames may be wrong.
00 0164e380 00718b55     00718b30 006324b8 0063e4b4 ws7v6!Exceptionloginitialization$qqrv+0x504b1
01 0164e3ac 0063e6a0     0164e410 0164e3c4 0063e77e ws7v6!Exceptionloginitialization$qqrv+0xf5951
02 0164e410 0063e90a     0164e468 0063e93e 0164e43c ws7v6!Exceptionloginitialization$qqrv+0x1b49c
eax=124bc280 ebx=00c07598 ecx=124bc298 edx=124ba760 esi=11e99270 edi=12261500
eip=006736b5 esp=0164e2f4 ebp=0164e380 iopl=0         nv up ei pl nz na pe nc
cs=0023  ss=002b  ds=002b  es=002b  fs=0053  gs=002b             efl=00000206
ws7v6!Exceptionloginitialization$qqrv+0x504b1:
006736b5 c60300          mov     byte ptr [ebx],0           ds:002b:00c07598=01
 # ChildEBP RetAddr      Args to Child              
WARNING: Stack unwind information not available. Following frames may be wrong.
00 0164e380 00718b55     00718b30 006324b8 0063e4b4 ws7v6!Exceptionloginitialization$qqrv+0x5047c
01 0164e3ac 0063e6a0     0164e410 0164e3c4 0063e77e ws7v6!Exceptionloginitialization$qqrv+0xf5951
02 0164e410 0063e90a     0164e468 0063e93e 0164e43c ws7v6!Exceptionloginitialization$qqrv+0x1b49c
eax=124bc298 ebx=00c07598 ecx=00000001 edx=00c07598 esi=00000004 edi=11e99270
eip=00673680 esp=0164e2fc ebp=0164e380 iopl=0         nv up ei pl zr na pe nc
cs=0023  ss=002b  ds=002b  es=002b  fs=0053  gs=002b             efl=00000246
ws7v6!Exceptionloginitialization$qqrv+0x5047c:
00673680 b9f8ffffff      mov     ecx,0FFFFFFF8h
 # ChildEBP RetAddr      Args to Child              
WARNING: Stack unwind information not available. Following frames may be wrong.
00 0164e380 00718b55     00718b30 006324b8 0063e4b4 ws7v6!Exceptionloginitialization$qqrv+0x504b1
01 0164e3ac 0063e6a0     0164e410 0164e3c4 0063e77e ws7v6!Exceptionloginitialization$qqrv+0xf5951
02 0164e410 0063e90a     0164e468 0063e93e 0164e43c ws7v6!Exceptionloginitialization$qqrv+0x1b49c
eax=124bc298 ebx=00c07598 ecx=124bc2b0 edx=124ba760 esi=00000004 edi=11e99270
eip=006736b5 esp=0164e2fc ebp=0164e380 iopl=0         nv up ei pl nz na pe nc
cs=0023  ss=002b  ds=002b  es=002b  fs=0053  gs=002b             efl=00000206
ws7v6!Exceptionloginitialization$qqrv+0x504b1:
006736b5 c60300          mov     byte ptr [ebx],0           ds:002b:00c07598=01
 # ChildEBP RetAddr      Args to Child              
WARNING: Stack unwind information not available. Following frames may be wrong.
00 0164e380 00718b55     00718b30 006324b8 0063e4b4 ws7v6!Exceptionloginitialization$qqrv+0x5047c
01 0164e3ac 0063e6a0     0164e410 0164e3c4 0063e77e ws7v6!Exceptionloginitialization$qqrv+0xf5951
02 0164e410 0063e90a     0164e468 0063e93e 0164e43c ws7v6!Exceptionloginitialization$qqrv+0x1b49c
eax=124bc2b0 ebx=00c07598 ecx=124bc201 edx=00c07598 esi=11e99270 edi=12261500
eip=00673680 esp=0164e2f4 ebp=0164e380 iopl=0         nv up ei pl zr na pe nc
cs=0023  ss=002b  ds=002b  es=002b  fs=0053  gs=002b             efl=00000246
ws7v6!Exceptionloginitialization$qqrv+0x5047c:
00673680 b9f8ffffff      mov     ecx,0FFFFFFF8h
 # ChildEBP RetAddr      Args to Child              
WARNING: Stack unwind information not available. Following frames may be wrong.
00 0164e380 00718b55     00718b30 006324b8 0063e4b4 ws7v6!Exceptionloginitialization$qqrv+0x504b1
01 0164e3ac 0063e6a0     0164e410 0164e3c4 0063e77e ws7v6!Exceptionloginitialization$qqrv+0xf5951
02 0164e410 0063e90a     0164e468 0063e93e 0164e43c ws7v6!Exceptionloginitialization$qqrv+0x1b49c
eax=124bc2b0 ebx=00c07598 ecx=124bc2c8 edx=124ba760 esi=11e99270 edi=12261500
eip=006736b5 esp=0164e2f4 ebp=0164e380 iopl=0         nv up ei pl nz na po nc
cs=0023  ss=002b  ds=002b  es=002b  fs=0053  gs=002b             efl=00000202
ws7v6!Exceptionloginitialization$qqrv+0x504b1:
006736b5 c60300          mov     byte ptr [ebx],0           ds:002b:00c07598=01
 # ChildEBP RetAddr      Args to Child              
WARNING: Stack unwind information not available. Following frames may be wrong.
00 0164e380 00718b55     00718b30 006324b8 0063e4b4 ws7v6!Exceptionloginitialization$qqrv+0x5047c
01 0164e3ac 0063e6a0     0164e410 0164e3c4 0063e77e ws7v6!Exceptionloginitialization$qqrv+0xf5951
02 0164e410 0063e90a     0164e468 0063e93e 0164e43c ws7v6!Exceptionloginitialization$qqrv+0x1b49c
eax=124bc2c8 ebx=00c07598 ecx=00000001 edx=00c07598 esi=00000004 edi=11e99270
eip=00673680 esp=0164e2fc ebp=0164e380 iopl=0         nv up ei pl zr na pe nc
cs=0023  ss=002b  ds=002b  es=002b  fs=0053  gs=002b             efl=00000246
ws7v6!Exceptionloginitialization$qqrv+0x5047c:
00673680 b9f8ffffff      mov     ecx,0FFFFFFF8h
 # ChildEBP RetAddr      Args to Child              
WARNING: Stack unwind information not available. Following frames may be wrong.
00 0164e380 00718b55     00718b30 006324b8 0063e4b4 ws7v6!Exceptionloginitialization$qqrv+0x504b1
01 0164e3ac 0063e6a0     0164e410 0164e3c4 0063e77e ws7v6!Exceptionloginitialization$qqrv+0xf5951
02 0164e410 0063e90a     0164e468 0063e93e 0164e43c ws7v6!Exceptionloginitialization$qqrv+0x1b49c
eax=124bc2c8 ebx=00c07598 ecx=124bc2e0 edx=124ba760 esi=00000004 edi=11e99270
eip=006736b5 esp=0164e2fc ebp=0164e380 iopl=0         nv up ei pl nz na pe nc
cs=0023  ss=002b  ds=002b  es=002b  fs=0053  gs=002b             efl=00000206
ws7v6!Exceptionloginitialization$qqrv+0x504b1:
006736b5 c60300          mov     byte ptr [ebx],0           ds:002b:00c07598=01
 # ChildEBP RetAddr      Args to Child              
WARNING: Stack unwind information not available. Following frames may be wrong.
00 0164e2fc 00644a35     00000000 11e99270 124b2800 ws7v6!Exceptionloginitialization$qqrv+0x5047c
01 0164e320 006ec0a3     122597ec 008fbeb8 122597ec ws7v6!Exceptionloginitialization$qqrv+0x21831
02 0164e338 00644d9d     122597ec 11e99270 0164e380 ws7v6!Exceptionloginitialization$qqrv+0xc8e9f
eax=124bc2e0 ebx=00c07598 ecx=00000001 edx=00c07598 esi=124b2800 edi=122597ec
eip=00673680 esp=0164e29c ebp=0164e2fc iopl=0         nv up ei pl zr na pe nc
cs=0023  ss=002b  ds=002b  es=002b  fs=0053  gs=002b             efl=00000246
ws7v6!Exceptionloginitialization$qqrv+0x5047c:
00673680 b9f8ffffff      mov     ecx,0FFFFFFF8h
 # ChildEBP RetAddr      Args to Child              
WARNING: Stack unwind information not available. Following frames may be wrong.
00 0164e2fc 00644a35     00000000 11e99270 124b2800 ws7v6!Exceptionloginitialization$qqrv+0x504b1
01 0164e320 006ec0a3     122597ec 008fbeb8 122597ec ws7v6!Exceptionloginitialization$qqrv+0x21831
02 0164e338 00644d9d     122597ec 11e99270 0164e380 ws7v6!Exceptionloginitialization$qqrv+0xc8e9f
eax=124bc2e0 ebx=00c07598 ecx=124bc2f8 edx=124ba760 esi=124b2800 edi=122597ec
eip=006736b5 esp=0164e29c ebp=0164e2fc iopl=0         nv up ei pl nz na po nc
cs=0023  ss=002b  ds=002b  es=002b  fs=0053  gs=002b             efl=00000202
ws7v6!Exceptionloginitialization$qqrv+0x504b1:
006736b5 c60300          mov     byte ptr [ebx],0           ds:002b:00c07598=01
 # ChildEBP RetAddr      Args to Child              
WARNING: Stack unwind information not available. Following frames may be wrong.
00 0164e2d0 006665e9     0164e348 00000003 12261500 ws7v6!Exceptionloginitialization$qqrv+0x5047c
01 0164e30c 0063ee5f     0164e320 0063f03e 0164e350 ws7v6!Exceptionloginitialization$qqrv+0x433e5
02 0164e350 0063e896     12261500 0851e680 11e99270 ws7v6!Exceptionloginitialization$qqrv+0x1bc5b
eax=124bc2f8 ebx=00c07598 ecx=00000001 edx=00c07598 esi=124bc2e8 edi=00000003
eip=00673680 esp=0164e290 ebp=0164e2d0 iopl=0         nv up ei pl zr na pe nc
cs=0023  ss=002b  ds=002b  es=002b  fs=0053  gs=002b             efl=00000246
ws7v6!Exceptionloginitialization$qqrv+0x5047c:
00673680 b9f8ffffff      mov     ecx,0FFFFFFF8h
 # ChildEBP RetAddr      Args to Child              
WARNING: Stack unwind information not available. Following frames may be wrong.
00 0164e2d0 006665e9     0164e348 00000003 12261500 ws7v6!Exceptionloginitialization$qqrv+0x504b1
01 0164e30c 0063ee5f     0164e320 0063f03e 0164e350 ws7v6!Exceptionloginitialization$qqrv+0x433e5
02 0164e350 0063e896     12261500 0851e680 11e99270 ws7v6!Exceptionloginitialization$qqrv+0x1bc5b
eax=124bc2f8 ebx=00c07598 ecx=124bc310 edx=124ba760 esi=124bc2e8 edi=00000003
eip=006736b5 esp=0164e290 ebp=0164e2d0 iopl=0         nv up ei pl nz na po nc
cs=0023  ss=002b  ds=002b  es=002b  fs=0053  gs=002b             efl=00000202
ws7v6!Exceptionloginitialization$qqrv+0x504b1:
006736b5 c60300          mov     byte ptr [ebx],0           ds:002b:00c07598=01
 # ChildEBP RetAddr      Args to Child              
WARNING: Stack unwind information not available. Following frames may be wrong.
00 0164e274 00679fea     0164e284 00666402 00000005 ws7v6!Exceptionloginitialization$qqrv+0x5047c
01 0164e2a4 0066661f     0164e2cc 00000005 0164e2f0 ws7v6!Exceptionloginitialization$qqrv+0x56de6
02 0164e2d0 006665e9     0164e348 00000005 12261500 ws7v6!Exceptionloginitialization$qqrv+0x4341b
eax=124bc310 ebx=00c07598 ecx=00000001 edx=00c07598 esi=00000000 edi=00000005
eip=00673680 esp=0164e234 ebp=0164e274 iopl=0         nv up ei pl zr na pe nc
cs=0023  ss=002b  ds=002b  es=002b  fs=0053  gs=002b             efl=00000246
ws7v6!Exceptionloginitialization$qqrv+0x5047c:
00673680 b9f8ffffff      mov     ecx,0FFFFFFF8h
 # ChildEBP RetAddr      Args to Child              
WARNING: Stack unwind information not available. Following frames may be wrong.
00 0164e274 00679fea     0164e284 00666402 00000005 ws7v6!Exceptionloginitialization$qqrv+0x504b1
01 0164e2a4 0066661f     0164e2cc 00000005 0164e2f0 ws7v6!Exceptionloginitialization$qqrv+0x56de6
02 0164e2d0 006665e9     0164e348 00000005 12261500 ws7v6!Exceptionloginitialization$qqrv+0x4341b
eax=124bc310 ebx=00c07598 ecx=124bc328 edx=124ba760 esi=00000000 edi=00000005
eip=006736b5 esp=0164e234 ebp=0164e274 iopl=0         nv up ei pl nz na pe nc
cs=0023  ss=002b  ds=002b  es=002b  fs=0053  gs=002b             efl=00000206
ws7v6!Exceptionloginitialization$qqrv+0x504b1:
006736b5 c60300          mov     byte ptr [ebx],0           ds:002b:00c07598=01
 # ChildEBP RetAddr      Args to Child              
WARNING: Stack unwind information not available. Following frames may be wrong.
00 0164d234 0063be13     0164d25c 0063be2c 0164d254 ws7v6!Exceptionloginitialization$qqrv+0x5047c
01 0164d254 00637a88     0164d280 00637aa0 0164d278 ws7v6!Exceptionloginitialization$qqrv+0x18c0f
02 0164d278 00637bf8     0164d2a4 00637c10 0164d298 ws7v6!Exceptionloginitialization$qqrv+0x14884
eax=124bc328 ebx=00c07598 ecx=00000001 edx=00c07598 esi=00000004 edi=08842d70
eip=00673680 esp=0164d18c ebp=0164d234 iopl=0         nv up ei pl zr na pe nc
cs=0023  ss=002b  ds=002b  es=002b  fs=0053  gs=002b             efl=00000246
ws7v6!Exceptionloginitialization$qqrv+0x5047c:
00673680 b9f8ffffff      mov     ecx,0FFFFFFF8h
 # ChildEBP RetAddr      Args to Child              
WARNING: Stack unwind information not available. Following frames may be wrong.
00 0164d234 0063be13     0164d25c 0063be2c 0164d254 ws7v6!Exceptionloginitialization$qqrv+0x504b1
01 0164d254 00637a88     0164d280 00637aa0 0164d278 ws7v6!Exceptionloginitialization$qqrv+0x18c0f
02 0164d278 00637bf8     0164d2a4 00637c10 0164d298 ws7v6!Exceptionloginitialization$qqrv+0x14884
eax=124bc328 ebx=00c07598 ecx=124bc340 edx=124ba760 esi=00000004 edi=08842d70
eip=006736b5 esp=0164d18c ebp=0164d234 iopl=0         nv up ei pl nz na pe nc
cs=0023  ss=002b  ds=002b  es=002b  fs=0053  gs=002b             efl=00000206
ws7v6!Exceptionloginitialization$qqrv+0x504b1:
006736b5 c60300          mov     byte ptr [ebx],0           ds:002b:00c07598=01
 # ChildEBP RetAddr      Args to Child              
WARNING: Stack unwind information not available. Following frames may be wrong.
00 0164d164 006449f2     00718e1d 08581874 0851e680 ws7v6!Exceptionloginitialization$qqrv+0x5047c
01 0164d194 006eb736     0164d1bc 006eb941 0164d1b4 ws7v6!Exceptionloginitialization$qqrv+0x217ee
02 0164d1b4 0063f7e6     0164d1c8 0063f84d 0164d234 ws7v6!Exceptionloginitialization$qqrv+0xc8532
eax=124bc340 ebx=00c07598 ecx=00913101 edx=00c07598 esi=0851e680 edi=00000000
eip=00673680 esp=0164d124 ebp=0164d164 iopl=0         nv up ei pl zr na pe nc
cs=0023  ss=002b  ds=002b  es=002b  fs=0053  gs=002b             efl=00000246
ws7v6!Exceptionloginitialization$qqrv+0x5047c:
00673680 b9f8ffffff      mov     ecx,0FFFFFFF8h
 # ChildEBP RetAddr      Args to Child              
WARNING: Stack unwind information not available. Following frames may be wrong.
00 0164d164 006449f2     00718e1d 08581874 0851e680 ws7v6!Exceptionloginitialization$qqrv+0x504b1
01 0164d194 006eb736     0164d1bc 006eb941 0164d1b4 ws7v6!Exceptionloginitialization$qqrv+0x217ee
02 0164d1b4 0063f7e6     0164d1c8 0063f84d 0164d234 ws7v6!Exceptionloginitialization$qqrv+0xc8532
eax=124bc340 ebx=00c07598 ecx=124bc358 edx=124ba760 esi=0851e680 edi=00000000
eip=006736b5 esp=0164d124 ebp=0164d164 iopl=0         nv up ei pl nz na po nc
cs=0023  ss=002b  ds=002b  es=002b  fs=0053  gs=002b             efl=00000202
ws7v6!Exceptionloginitialization$qqrv+0x504b1:
006736b5 c60300          mov     byte ptr [ebx],0           ds:002b:00c07598=01
 # ChildEBP RetAddr      Args to Child              
WARNING: Stack unwind information not available. Following frames may be wrong.
00 0164d04c 00679fea     0164d05c 00666402 00000004 ws7v6!Exceptionloginitialization$qqrv+0x5047c
01 0164d07c 0066661f     0164d0a4 00000004 0164d0c8 ws7v6!Exceptionloginitialization$qqrv+0x56de6
02 0164d0a8 006665e9     0164d120 00000004 00000000 ws7v6!Exceptionloginitialization$qqrv+0x4341b
eax=124bc358 ebx=00c07598 ecx=00000001 edx=00c07598 esi=00000000 edi=00000004
eip=00673680 esp=0164d00c ebp=0164d04c iopl=0         nv up ei pl zr na pe nc
cs=0023  ss=002b  ds=002b  es=002b  fs=0053  gs=002b             efl=00000246
ws7v6!Exceptionloginitialization$qqrv+0x5047c:
00673680 b9f8ffffff      mov     ecx,0FFFFFFF8h
 # ChildEBP RetAddr      Args to Child              
WARNING: Stack unwind information not available. Following frames may be wrong.
00 0164d04c 00679fea     0164d05c 00666402 00000004 ws7v6!Exceptionloginitialization$qqrv+0x504b1
01 0164d07c 0066661f     0164d0a4 00000004 0164d0c8 ws7v6!Exceptionloginitialization$qqrv+0x56de6
02 0164d0a8 006665e9     0164d120 00000004 00000000 ws7v6!Exceptionloginitialization$qqrv+0x4341b
eax=124bc358 ebx=00c07598 ecx=124bc370 edx=124ba760 esi=00000000 edi=00000004
eip=006736b5 esp=0164d00c ebp=0164d04c iopl=0         nv up ei pl nz na po nc
cs=0023  ss=002b  ds=002b  es=002b  fs=0053  gs=002b             efl=00000202
ws7v6!Exceptionloginitialization$qqrv+0x504b1:
006736b5 c60300          mov     byte ptr [ebx],0           ds:002b:00c07598=01
 # ChildEBP RetAddr      Args to Child              
WARNING: Stack unwind information not available. Following frames may be wrong.
00 0164d0a8 006665e9     0164d120 00000003 00000000 ws7v6!Exceptionloginitialization$qqrv+0x5047c
01 0164d0e4 0063ee5f     0164d0f8 0063f03e 0164d128 ws7v6!Exceptionloginitialization$qqrv+0x433e5
02 0164d128 0063e896     00000000 0851e680 08842d70 ws7v6!Exceptionloginitialization$qqrv+0x1bc5b
eax=124bc370 ebx=00c07598 ecx=00000001 edx=00c07598 esi=124bc360 edi=00000003
eip=00673680 esp=0164d068 ebp=0164d0a8 iopl=0         nv up ei pl zr na pe nc
cs=0023  ss=002b  ds=002b  es=002b  fs=0053  gs=002b             efl=00000246
ws7v6!Exceptionloginitialization$qqrv+0x5047c:
00673680 b9f8ffffff      mov     ecx,0FFFFFFF8h
 # ChildEBP RetAddr      Args to Child              
WARNING: Stack unwind information not available. Following frames may be wrong.
00 0164d0a8 006665e9     0164d120 00000003 00000000 ws7v6!Exceptionloginitialization$qqrv+0x504b1
01 0164d0e4 0063ee5f     0164d0f8 0063f03e 0164d128 ws7v6!Exceptionloginitialization$qqrv+0x433e5
02 0164d128 0063e896     00000000 0851e680 08842d70 ws7v6!Exceptionloginitialization$qqrv+0x1bc5b
eax=124bc370 ebx=00c07598 ecx=124bc388 edx=124ba760 esi=124bc360 edi=00000003
eip=006736b5 esp=0164d068 ebp=0164d0a8 iopl=0         nv up ei pl nz na pe nc
cs=0023  ss=002b  ds=002b  es=002b  fs=0053  gs=002b             efl=00000206
ws7v6!Exceptionloginitialization$qqrv+0x504b1:
006736b5 c60300          mov     byte ptr [ebx],0           ds:002b:00c07598=01
 # ChildEBP RetAddr      Args to Child              
WARNING: Stack unwind information not available. Following frames may be wrong.
00 0164d028 0071c51d     122617a0 007189c1 122617a0 ws7v6!Exceptionloginitialization$qqrv+0x5047c
01 0164d044 0071d019     0164d084 0071d115 0164d068 ws7v6!Exceptionloginitialization$qqrv+0xf9319
02 0164d068 007257b8     122617a0 ffffffff 00842d70 ws7v6!Exceptionloginitialization$qqrv+0xf9e15
eax=124bc388 ebx=00c07598 ecx=12261701 edx=00c07598 esi=122617a0 edi=00000000
eip=00673680 esp=0164cfd0 ebp=0164d028 iopl=0         nv up ei pl zr na pe nc
cs=0023  ss=002b  ds=002b  es=002b  fs=0053  gs=002b             efl=00000246
ws7v6!Exceptionloginitialization$qqrv+0x5047c:
00673680 b9f8ffffff      mov     ecx,0FFFFFFF8h
 # ChildEBP RetAddr      Args to Child              
WARNING: Stack unwind information not available. Following frames may be wrong.
00 0164d028 0071c51d     122617a0 007189c1 122617a0 ws7v6!Exceptionloginitialization$qqrv+0x504b1
01 0164d044 0071d019     0164d084 0071d115 0164d068 ws7v6!Exceptionloginitialization$qqrv+0xf9319
02 0164d068 007257b8     122617a0 ffffffff 00842d70 ws7v6!Exceptionloginitialization$qqrv+0xf9e15
eax=124bc388 ebx=00c07598 ecx=124bc3a0 edx=124ba760 esi=122617a0 edi=00000000
eip=006736b5 esp=0164cfd0 ebp=0164d028 iopl=0         nv up ei pl nz na po nc
cs=0023  ss=002b  ds=002b  es=002b  fs=0053  gs=002b             efl=00000202
ws7v6!Exceptionloginitialization$qqrv+0x504b1:
006736b5 c60300          mov     byte ptr [ebx],0           ds:002b:00c07598=01
 # ChildEBP RetAddr      Args to Child              
WARNING: Stack unwind information not available. Following frames may be wrong.
00 0164d028 0071c51d     122617a0 007189c1 122617a0 ws7v6!Exceptionloginitialization$qqrv+0x5047c
01 0164d044 0071d019     0164d084 0071d115 0164d068 ws7v6!Exceptionloginitialization$qqrv+0xf9319
02 0164d068 007257b8     122617a0 ffffffff 00842d70 ws7v6!Exceptionloginitialization$qqrv+0xf9e15
eax=124bc3a0 ebx=00c07598 ecx=00000001 edx=00c07598 esi=00000004 edi=122617a0
eip=00673680 esp=0164cfd8 ebp=0164d028 iopl=0         nv up ei pl zr na pe nc
cs=0023  ss=002b  ds=002b  es=002b  fs=0053  gs=002b             efl=00000246
ws7v6!Exceptionloginitialization$qqrv+0x5047c:
00673680 b9f8ffffff      mov     ecx,0FFFFFFF8h
 # ChildEBP RetAddr      Args to Child              
WARNING: Stack unwind information not available. Following frames may be wrong.
00 0164d028 0071c51d     122617a0 007189c1 122617a0 ws7v6!Exceptionloginitialization$qqrv+0x504b1
01 0164d044 0071d019     0164d084 0071d115 0164d068 ws7v6!Exceptionloginitialization$qqrv+0xf9319
02 0164d068 007257b8     122617a0 ffffffff 00842d70 ws7v6!Exceptionloginitialization$qqrv+0xf9e15
eax=124bc3a0 ebx=00c07598 ecx=124bc3b8 edx=124ba760 esi=00000004 edi=122617a0
eip=006736b5 esp=0164cfd8 ebp=0164d028 iopl=0         nv up ei pl nz na pe nc
cs=0023  ss=002b  ds=002b  es=002b  fs=0053  gs=002b             efl=00000206
ws7v6!Exceptionloginitialization$qqrv+0x504b1:
006736b5 c60300          mov     byte ptr [ebx],0           ds:002b:00c07598=01
 # ChildEBP RetAddr      Args to Child              
WARNING: Stack unwind information not available. Following frames may be wrong.
00 0164d08c 00718b55     00718b30 006324b8 0063e4b4 ws7v6!Exceptionloginitialization$qqrv+0x5047c
01 0164d0b8 0063e6a0     0164d11c 0164d0d0 0063e77e ws7v6!Exceptionloginitialization$qqrv+0xf5951
02 0164d11c 0063e90a     0164d150 0063e93e 0164d148 ws7v6!Exceptionloginitialization$qqrv+0x1b49c
eax=124bc3b8 ebx=00c07598 ecx=00000001 edx=00c07598 esi=122617a0 edi=08842d70
eip=00673680 esp=0164d000 ebp=0164d08c iopl=0         nv up ei pl zr na pe nc
cs=0023  ss=002b  ds=002b  es=002b  fs=0053  gs=002b             efl=00000246
ws7v6!Exceptionloginitialization$qqrv+0x5047c:
00673680 b9f8ffffff      mov     ecx,0FFFFFFF8h
 # ChildEBP RetAddr      Args to Child              
WARNING: Stack unwind information not available. Following frames may be wrong.
00 0164d08c 00718b55     00718b30 006324b8 0063e4b4 ws7v6!Exceptionloginitialization$qqrv+0x504b1
01 0164d0b8 0063e6a0     0164d11c 0164d0d0 0063e77e ws7v6!Exceptionloginitialization$qqrv+0xf5951
02 0164d11c 0063e90a     0164d150 0063e93e 0164d148 ws7v6!Exceptionloginitialization$qqrv+0x1b49c
eax=124bc3b8 ebx=00c07598 ecx=124bc3d0 edx=124ba760 esi=122617a0 edi=08842d70
eip=006736b5 esp=0164d000 ebp=0164d08c iopl=0         nv up ei pl nz na pe nc
cs=0023  ss=002b  ds=002b  es=002b  fs=0053  gs=002b             efl=00000206
ws7v6!Exceptionloginitialization$qqrv+0x504b1:
006736b5 c60300          mov     byte ptr [ebx],0           ds:002b:00c07598=01
 # ChildEBP RetAddr      Args to Child              
WARNING: Stack unwind information not available. Following frames may be wrong.
00 0164d08c 00718b55     00718b30 006324b8 0063e4b4 ws7v6!Exceptionloginitialization$qqrv+0x5047c
01 0164d0b8 0063e6a0     0164d11c 0164d0d0 0063e77e ws7v6!Exceptionloginitialization$qqrv+0xf5951
02 0164d11c 0063e90a     0164d150 0063e93e 0164d148 ws7v6!Exceptionloginitialization$qqrv+0x1b49c
eax=124bc3d0 ebx=00c07598 ecx=00000001 edx=00c07598 esi=00000004 edi=122617a0
eip=00673680 esp=0164d008 ebp=0164d08c iopl=0         nv up ei pl zr na pe nc
cs=0023  ss=002b  ds=002b  es=002b  fs=0053  gs=002b             efl=00000246
ws7v6!Exceptionloginitialization$qqrv+0x5047c:
00673680 b9f8ffffff      mov     ecx,0FFFFFFF8h
 # ChildEBP RetAddr      Args to Child              
WARNING: Stack unwind information not available. Following frames may be wrong.
00 0164d08c 00718b55     00718b30 006324b8 0063e4b4 ws7v6!Exceptionloginitialization$qqrv+0x504b1
01 0164d0b8 0063e6a0     0164d11c 0164d0d0 0063e77e ws7v6!Exceptionloginitialization$qqrv+0xf5951
02 0164d11c 0063e90a     0164d150 0063e93e 0164d148 ws7v6!Exceptionloginitialization$qqrv+0x1b49c
eax=124bc3d0 ebx=00c07598 ecx=124bc3e8 edx=124ba760 esi=00000004 edi=122617a0
eip=006736b5 esp=0164d008 ebp=0164d08c iopl=0         nv up ei pl nz na po nc
cs=0023  ss=002b  ds=002b  es=002b  fs=0053  gs=002b             efl=00000202
ws7v6!Exceptionloginitialization$qqrv+0x504b1:
006736b5 c60300          mov     byte ptr [ebx],0           ds:002b:00c07598=01
 # ChildEBP RetAddr      Args to Child              
WARNING: Stack unwind information not available. Following frames may be wrong.
00 0164d08c 00718b55     00718b30 006324b8 0063e4b4 ws7v6!Exceptionloginitialization$qqrv+0x5047c
01 0164d0b8 0063e6a0     0164d11c 0164d0d0 0063e77e ws7v6!Exceptionloginitialization$qqrv+0xf5951
02 0164d11c 0063e90a     0164d150 0063e93e 0164d148 ws7v6!Exceptionloginitialization$qqrv+0x1b49c
eax=124bc3e8 ebx=00c07598 ecx=124bc301 edx=00c07598 esi=122617a0 edi=08842d70
eip=00673680 esp=0164d000 ebp=0164d08c iopl=0         nv up ei pl zr na pe nc
cs=0023  ss=002b  ds=002b  es=002b  fs=0053  gs=002b             efl=00000246
ws7v6!Exceptionloginitialization$qqrv+0x5047c:
00673680 b9f8ffffff      mov     ecx,0FFFFFFF8h
 # ChildEBP RetAddr      Args to Child              
WARNING: Stack unwind information not available. Following frames may be wrong.
00 0164d08c 00718b55     00718b30 006324b8 0063e4b4 ws7v6!Exceptionloginitialization$qqrv+0x504b1
01 0164d0b8 0063e6a0     0164d11c 0164d0d0 0063e77e ws7v6!Exceptionloginitialization$qqrv+0xf5951
02 0164d11c 0063e90a     0164d150 0063e93e 0164d148 ws7v6!Exceptionloginitialization$qqrv+0x1b49c
eax=124bc3e8 ebx=00c07598 ecx=124bc400 edx=124ba760 esi=122617a0 edi=08842d70
eip=006736b5 esp=0164d000 ebp=0164d08c iopl=0         nv up ei pl nz ac pe nc
cs=0023  ss=002b  ds=002b  es=002b  fs=0053  gs=002b             efl=00000216
ws7v6!Exceptionloginitialization$qqrv+0x504b1:
006736b5 c60300          mov     byte ptr [ebx],0           ds:002b:00c07598=01
 # ChildEBP RetAddr      Args to Child              
WARNING: Stack unwind information not available. Following frames may be wrong.
00 0164d08c 00718b55     00718b30 006324b8 0063e4b4 ws7v6!Exceptionloginitialization$qqrv+0x5047c
01 0164d0b8 0063e6a0     0164d11c 0164d0d0 0063e77e ws7v6!Exceptionloginitialization$qqrv+0xf5951
02 0164d11c 0063e90a     0164d150 0063e93e 0164d148 ws7v6!Exceptionloginitialization$qqrv+0x1b49c
eax=124bc400 ebx=00c07598 ecx=00000001 edx=00c07598 esi=00000004 edi=122617a0
eip=00673680 esp=0164d008 ebp=0164d08c iopl=0         nv up ei pl zr na pe nc
cs=0023  ss=002b  ds=002b  es=002b  fs=0053  gs=002b             efl=00000246
ws7v6!Exceptionloginitialization$qqrv+0x5047c:
00673680 b9f8ffffff      mov     ecx,0FFFFFFF8h
 # ChildEBP RetAddr      Args to Child              
WARNING: Stack unwind information not available. Following frames may be wrong.
00 0164d08c 00718b55     00718b30 006324b8 0063e4b4 ws7v6!Exceptionloginitialization$qqrv+0x504b1
01 0164d0b8 0063e6a0     0164d11c 0164d0d0 0063e77e ws7v6!Exceptionloginitialization$qqrv+0xf5951
02 0164d11c 0063e90a     0164d150 0063e93e 0164d148 ws7v6!Exceptionloginitialization$qqrv+0x1b49c
eax=124bc400 ebx=00c07598 ecx=124bc418 edx=124ba760 esi=00000004 edi=122617a0
eip=006736b5 esp=0164d008 ebp=0164d08c iopl=0         nv up ei pl nz na po nc
cs=0023  ss=002b  ds=002b  es=002b  fs=0053  gs=002b             efl=00000202
ws7v6!Exceptionloginitialization$qqrv+0x504b1:
006736b5 c60300          mov     byte ptr [ebx],0           ds:002b:00c07598=01
 # ChildEBP RetAddr      Args to Child              
WARNING: Stack unwind information not available. Following frames may be wrong.
00 0164d008 00644a35     00000000 122617a0 08842d70 ws7v6!Exceptionloginitialization$qqrv+0x5047c
01 0164d02c 006ec0a3     12254754 00913128 12254754 ws7v6!Exceptionloginitialization$qqrv+0x21831
02 0164d044 00644d9d     12254754 122617a0 0164d08c ws7v6!Exceptionloginitialization$qqrv+0xc8e9f
eax=124bc418 ebx=00c07598 ecx=00000001 edx=00c07598 esi=08842d70 edi=12254754
eip=00673680 esp=0164cfa8 ebp=0164d008 iopl=0         nv up ei pl zr na pe nc
cs=0023  ss=002b  ds=002b  es=002b  fs=0053  gs=002b             efl=00000246
ws7v6!Exceptionloginitialization$qqrv+0x5047c:
00673680 b9f8ffffff      mov     ecx,0FFFFFFF8h
 # ChildEBP RetAddr      Args to Child              
WARNING: Stack unwind information not available. Following frames may be wrong.
00 0164d008 00644a35     00000000 122617a0 08842d70 ws7v6!Exceptionloginitialization$qqrv+0x504b1
01 0164d02c 006ec0a3     12254754 00913128 12254754 ws7v6!Exceptionloginitialization$qqrv+0x21831
02 0164d044 00644d9d     12254754 122617a0 0164d08c ws7v6!Exceptionloginitialization$qqrv+0xc8e9f
eax=124bc418 ebx=00c07598 ecx=124bc430 edx=124ba760 esi=08842d70 edi=12254754
eip=006736b5 esp=0164cfa8 ebp=0164d008 iopl=0         nv up ei pl nz na po nc
cs=0023  ss=002b  ds=002b  es=002b  fs=0053  gs=002b             efl=00000202
ws7v6!Exceptionloginitialization$qqrv+0x504b1:
006736b5 c60300          mov     byte ptr [ebx],0           ds:002b:00c07598=01
 # ChildEBP RetAddr      Args to Child              
WARNING: Stack unwind information not available. Following frames may be wrong.
00 0164d008 00644a35     00000000 122617a0 08842d70 ws7v6!Exceptionloginitialization$qqrv+0x5047c
01 0164d02c 006ec0a3     12254754 00913128 12254754 ws7v6!Exceptionloginitialization$qqrv+0x21831
02 0164d044 00644d9d     12254754 122617a0 0164d08c ws7v6!Exceptionloginitialization$qqrv+0xc8e9f
eax=124bc430 ebx=00c07598 ecx=00000001 edx=00c07598 esi=00000000 edi=124bc418
eip=00673680 esp=0164cfac ebp=0164d008 iopl=0         nv up ei pl zr na pe nc
cs=0023  ss=002b  ds=002b  es=002b  fs=0053  gs=002b             efl=00000246
ws7v6!Exceptionloginitialization$qqrv+0x5047c:
00673680 b9f8ffffff      mov     ecx,0FFFFFFF8h
 # ChildEBP RetAddr      Args to Child              
WARNING: Stack unwind information not available. Following frames may be wrong.
00 0164d008 00644a35     00000000 122617a0 08842d70 ws7v6!Exceptionloginitialization$qqrv+0x504b1
01 0164d02c 006ec0a3     12254754 00913128 12254754 ws7v6!Exceptionloginitialization$qqrv+0x21831
02 0164d044 00644d9d     12254754 122617a0 0164d08c ws7v6!Exceptionloginitialization$qqrv+0xc8e9f
eax=124bc430 ebx=00c07598 ecx=124bc448 edx=124ba760 esi=00000000 edi=124bc418
eip=006736b5 esp=0164cfac ebp=0164d008 iopl=0         nv up ei pl nz na pe nc
cs=0023  ss=002b  ds=002b  es=002b  fs=0053  gs=002b             efl=00000206
ws7v6!Exceptionloginitialization$qqrv+0x504b1:
006736b5 c60300          mov     byte ptr [ebx],0           ds:002b:00c07598=01
 # ChildEBP RetAddr      Args to Child              
WARNING: Stack unwind information not available. Following frames may be wrong.
00 0164cfdc 006665e9     0164d054 00000003 08842d70 ws7v6!Exceptionloginitialization$qqrv+0x5047c
01 0164d018 0063ee5f     0164d02c 0063f03e 0164d05c ws7v6!Exceptionloginitialization$qqrv+0x433e5
02 0164d05c 0063e896     08842d70 0851e680 122617a0 ws7v6!Exceptionloginitialization$qqrv+0x1bc5b
eax=124bc448 ebx=00c07598 ecx=00000001 edx=00c07598 esi=124bc420 edi=00000003
eip=00673680 esp=0164cf9c ebp=0164cfdc iopl=0         nv up ei pl zr na pe nc
cs=0023  ss=002b  ds=002b  es=002b  fs=0053  gs=002b             efl=00000246
ws7v6!Exceptionloginitialization$qqrv+0x5047c:
00673680 b9f8ffffff      mov     ecx,0FFFFFFF8h
 # ChildEBP RetAddr      Args to Child              
WARNING: Stack unwind information not available. Following frames may be wrong.
00 0164cfdc 006665e9     0164d054 00000003 08842d70 ws7v6!Exceptionloginitialization$qqrv+0x504b1
01 0164d018 0063ee5f     0164d02c 0063f03e 0164d05c ws7v6!Exceptionloginitialization$qqrv+0x433e5
02 0164d05c 0063e896     08842d70 0851e680 122617a0 ws7v6!Exceptionloginitialization$qqrv+0x1bc5b
eax=124bc448 ebx=00c07598 ecx=124bc460 edx=124ba760 esi=124bc420 edi=00000003
eip=006736b5 esp=0164cf9c ebp=0164cfdc iopl=0         nv up ei pl nz na po nc
cs=0023  ss=002b  ds=002b  es=002b  fs=0053  gs=002b             efl=00000202
ws7v6!Exceptionloginitialization$qqrv+0x504b1:
006736b5 c60300          mov     byte ptr [ebx],0           ds:002b:00c07598=01
 # ChildEBP RetAddr      Args to Child              
WARNING: Stack unwind information not available. Following frames may be wrong.
00 0164cf80 00679fea     0164cf90 00666402 00000005 ws7v6!Exceptionloginitialization$qqrv+0x5047c
01 0164cfb0 0066661f     0164cfd8 00000005 0164cffc ws7v6!Exceptionloginitialization$qqrv+0x56de6
02 0164cfdc 006665e9     0164d054 00000005 08842d70 ws7v6!Exceptionloginitialization$qqrv+0x4341b
eax=124bc460 ebx=00c07598 ecx=00000001 edx=00c07598 esi=00000000 edi=00000005
eip=00673680 esp=0164cf40 ebp=0164cf80 iopl=0         nv up ei pl zr na pe nc
cs=0023  ss=002b  ds=002b  es=002b  fs=0053  gs=002b             efl=00000246
ws7v6!Exceptionloginitialization$qqrv+0x5047c:
00673680 b9f8ffffff      mov     ecx,0FFFFFFF8h
 # ChildEBP RetAddr      Args to Child              
WARNING: Stack unwind information not available. Following frames may be wrong.
00 0164cf80 00679fea     0164cf90 00666402 00000005 ws7v6!Exceptionloginitialization$qqrv+0x504b1
01 0164cfb0 0066661f     0164cfd8 00000005 0164cffc ws7v6!Exceptionloginitialization$qqrv+0x56de6
02 0164cfdc 006665e9     0164d054 00000005 08842d70 ws7v6!Exceptionloginitialization$qqrv+0x4341b
eax=124bc460 ebx=00c07598 ecx=124bc478 edx=124ba760 esi=00000000 edi=00000005
eip=006736b5 esp=0164cf40 ebp=0164cf80 iopl=0         nv up ei pl nz na pe nc
cs=0023  ss=002b  ds=002b  es=002b  fs=0053  gs=002b             efl=00000206
ws7v6!Exceptionloginitialization$qqrv+0x504b1:
006736b5 c60300          mov     byte ptr [ebx],0           ds:002b:00c07598=01
 # ChildEBP RetAddr      Args to Child              
WARNING: Stack unwind information not available. Following frames may be wrong.
00 0164cfec 0063e6a0     0164d050 0164d004 0063e77e ws7v6!Exceptionloginitialization$qqrv+0x5047c
01 0164d050 0063e90a     0164d0a8 0063e93e 0164d07c ws7v6!Exceptionloginitialization$qqrv+0x1b49c
02 0164d07c 0063e878     122617a0 0851e680 0164d0bc ws7v6!Exceptionloginitialization$qqrv+0x1b706
eax=124bc478 ebx=00c07598 ecx=00000001 edx=00c07598 esi=00000004 edi=124c52f0
eip=00673680 esp=0164cf5c ebp=0164cfec iopl=0         nv up ei pl zr na pe nc
cs=0023  ss=002b  ds=002b  es=002b  fs=0053  gs=002b             efl=00000246
ws7v6!Exceptionloginitialization$qqrv+0x5047c:
00673680 b9f8ffffff      mov     ecx,0FFFFFFF8h
 # ChildEBP RetAddr      Args to Child              
WARNING: Stack unwind information not available. Following frames may be wrong.
00 0164cfec 0063e6a0     0164d050 0164d004 0063e77e ws7v6!Exceptionloginitialization$qqrv+0x504b1
01 0164d050 0063e90a     0164d0a8 0063e93e 0164d07c ws7v6!Exceptionloginitialization$qqrv+0x1b49c
02 0164d07c 0063e878     122617a0 0851e680 0164d0bc ws7v6!Exceptionloginitialization$qqrv+0x1b706
eax=124bc478 ebx=00c07598 ecx=124bc490 edx=124ba760 esi=00000004 edi=124c52f0
eip=006736b5 esp=0164cf5c ebp=0164cfec iopl=0         nv up ei pl nz na pe nc
cs=0023  ss=002b  ds=002b  es=002b  fs=0053  gs=002b             efl=00000206
ws7v6!Exceptionloginitialization$qqrv+0x504b1:
006736b5 c60300          mov     byte ptr [ebx],0           ds:002b:00c07598=01
 # ChildEBP RetAddr      Args to Child              
WARNING: Stack unwind information not available. Following frames may be wrong.
00 0164cc3c 006a2c65     0164cdec 006a2c8e 0164cc74 ws7v6!Exceptionloginitialization$qqrv+0x5047c
01 0164cc74 006a2ea5     124c52f0 0071b563 0854f150 ws7v6!Exceptionloginitialization$qqrv+0x7fa61
02 0164cdac 0071b187     124c52f0 0000b00e 00000000 ws7v6!Exceptionloginitialization$qqrv+0x7fca1
eax=124bc490 ebx=00c07598 ecx=00000001 edx=00c07598 esi=00000440 edi=0854f150
eip=00673680 esp=0164cbe4 ebp=0164cc3c iopl=0         nv up ei pl zr na pe nc
cs=0023  ss=002b  ds=002b  es=002b  fs=0053  gs=002b             efl=00000246
ws7v6!Exceptionloginitialization$qqrv+0x5047c:
00673680 b9f8ffffff      mov     ecx,0FFFFFFF8h
 # ChildEBP RetAddr      Args to Child              
WARNING: Stack unwind information not available. Following frames may be wrong.
00 0164cc3c 006a2c65     0164cdec 006a2c8e 0164cc74 ws7v6!Exceptionloginitialization$qqrv+0x504b1
01 0164cc74 006a2ea5     124c52f0 0071b563 0854f150 ws7v6!Exceptionloginitialization$qqrv+0x7fa61
02 0164cdac 0071b187     124c52f0 0000b00e 00000000 ws7v6!Exceptionloginitialization$qqrv+0x7fca1
eax=124bc490 ebx=00c07598 ecx=124bc4a8 edx=124ba760 esi=00000440 edi=0854f150
eip=006736b5 esp=0164cbe4 ebp=0164cc3c iopl=0         nv up ei pl nz na po nc
cs=0023  ss=002b  ds=002b  es=002b  fs=0053  gs=002b             efl=00000202
ws7v6!Exceptionloginitialization$qqrv+0x504b1:
006736b5 c60300          mov     byte ptr [ebx],0           ds:002b:00c07598=01
 # ChildEBP RetAddr      Args to Child              
WARNING: Stack unwind information not available. Following frames may be wrong.
00 0164cf2c 006665e9     0164cfa4 00000003 122617a0 ws7v6!Exceptionloginitialization$qqrv+0x5047c
01 0164cf68 0063ee5f     0164cf7c 0063f03e 0164cfac ws7v6!Exceptionloginitialization$qqrv+0x433e5
02 0164cfac 0063e896     122617a0 0851e680 124c52f0 ws7v6!Exceptionloginitialization$qqrv+0x1bc5b
eax=124bc4a8 ebx=00c07598 ecx=00000001 edx=00c07598 esi=124bc498 edi=00000003
eip=00673680 esp=0164ceec ebp=0164cf2c iopl=0         nv up ei pl zr na pe nc
cs=0023  ss=002b  ds=002b  es=002b  fs=0053  gs=002b             efl=00000246
ws7v6!Exceptionloginitialization$qqrv+0x5047c:
00673680 b9f8ffffff      mov     ecx,0FFFFFFF8h
 # ChildEBP RetAddr      Args to Child              
WARNING: Stack unwind information not available. Following frames may be wrong.
00 0164cf2c 006665e9     0164cfa4 00000003 122617a0 ws7v6!Exceptionloginitialization$qqrv+0x504b1
01 0164cf68 0063ee5f     0164cf7c 0063f03e 0164cfac ws7v6!Exceptionloginitialization$qqrv+0x433e5
02 0164cfac 0063e896     122617a0 0851e680 124c52f0 ws7v6!Exceptionloginitialization$qqrv+0x1bc5b
eax=124bc4a8 ebx=00c07598 ecx=124bc4c0 edx=124ba760 esi=124bc498 edi=00000003
eip=006736b5 esp=0164ceec ebp=0164cf2c iopl=0         nv up ei pl nz na po nc
cs=0023  ss=002b  ds=002b  es=002b  fs=0053  gs=002b             efl=00000202
ws7v6!Exceptionloginitialization$qqrv+0x504b1:
006736b5 c60300          mov     byte ptr [ebx],0           ds:002b:00c07598=01
 # ChildEBP RetAddr      Args to Child              
WARNING: Stack unwind information not available. Following frames may be wrong.
00 0164ced0 00679fea     0164cee0 00666402 00000005 ws7v6!Exceptionloginitialization$qqrv+0x5047c
01 0164cf00 0066661f     0164cf28 00000005 0164cf4c ws7v6!Exceptionloginitialization$qqrv+0x56de6
02 0164cf2c 006665e9     0164cfa4 00000005 122617a0 ws7v6!Exceptionloginitialization$qqrv+0x4341b
eax=124bc4c0 ebx=00c07598 ecx=00000001 edx=00c07598 esi=00000000 edi=00000005
eip=00673680 esp=0164ce90 ebp=0164ced0 iopl=0         nv up ei pl zr na pe nc
cs=0023  ss=002b  ds=002b  es=002b  fs=0053  gs=002b             efl=00000246
ws7v6!Exceptionloginitialization$qqrv+0x5047c:
00673680 b9f8ffffff      mov     ecx,0FFFFFFF8h
 # ChildEBP RetAddr      Args to Child              
WARNING: Stack unwind information not available. Following frames may be wrong.
00 0164ced0 00679fea     0164cee0 00666402 00000005 ws7v6!Exceptionloginitialization$qqrv+0x504b1
01 0164cf00 0066661f     0164cf28 00000005 0164cf4c ws7v6!Exceptionloginitialization$qqrv+0x56de6
02 0164cf2c 006665e9     0164cfa4 00000005 122617a0 ws7v6!Exceptionloginitialization$qqrv+0x4341b
eax=124bc4c0 ebx=00c07598 ecx=124bc4d8 edx=124ba760 esi=00000000 edi=00000005
eip=006736b5 esp=0164ce90 ebp=0164ced0 iopl=0         nv up ei pl nz na pe nc
cs=0023  ss=002b  ds=002b  es=002b  fs=0053  gs=002b             efl=00000206
ws7v6!Exceptionloginitialization$qqrv+0x504b1:
006736b5 c60300          mov     byte ptr [ebx],0           ds:002b:00c07598=01
 # ChildEBP RetAddr      Args to Child              
WARNING: Stack unwind information not available. Following frames may be wrong.
00 0164d010 0071c51d     1226a930 007189c1 1226a930 ws7v6!Exceptionloginitialization$qqrv+0x5047c
01 0164d02c 0071d019     0164d078 0071d115 0164d050 ws7v6!Exceptionloginitialization$qqrv+0xf9319
02 0164d050 006a6bc7     085817d8 1226a930 006a6edc ws7v6!Exceptionloginitialization$qqrv+0xf9e15
eax=124bc4d8 ebx=00c07598 ecx=00000001 edx=00c07598 esi=00000004 edi=1226a930
eip=00673680 esp=0164cfc0 ebp=0164d010 iopl=0         nv up ei pl zr na pe nc
cs=0023  ss=002b  ds=002b  es=002b  fs=0053  gs=002b             efl=00000246
ws7v6!Exceptionloginitialization$qqrv+0x5047c:
00673680 b9f8ffffff      mov     ecx,0FFFFFFF8h
 # ChildEBP RetAddr      Args to Child              
WARNING: Stack unwind information not available. Following frames may be wrong.
00 0164d010 0071c51d     1226a930 007189c1 1226a930 ws7v6!Exceptionloginitialization$qqrv+0x504b1
01 0164d02c 0071d019     0164d078 0071d115 0164d050 ws7v6!Exceptionloginitialization$qqrv+0xf9319
02 0164d050 006a6bc7     085817d8 1226a930 006a6edc ws7v6!Exceptionloginitialization$qqrv+0xf9e15
eax=124bc4d8 ebx=00c07598 ecx=124bc4f0 edx=124ba760 esi=00000004 edi=1226a930
eip=006736b5 esp=0164cfc0 ebp=0164d010 iopl=0         nv up ei pl nz na pe nc
cs=0023  ss=002b  ds=002b  es=002b  fs=0053  gs=002b             efl=00000206
ws7v6!Exceptionloginitialization$qqrv+0x504b1:
006736b5 c60300          mov     byte ptr [ebx],0           ds:002b:00c07598=01
 # ChildEBP RetAddr      Args to Child              
WARNING: Stack unwind information not available. Following frames may be wrong.
00 0164d070 00685feb     0164d0a0 0067636d 0164d098 ws7v6!Exceptionloginitialization$qqrv+0x5047c
01 0164d098 0063e428     0164d0ac 0063e432 0164d0c4 ws7v6!Exceptionloginitialization$qqrv+0x62de7
02 0164d0c4 0063e659     0164d11c 0164d0dc 0063e7c0 ws7v6!Exceptionloginitialization$qqrv+0x1b224
eax=124bc4f0 ebx=00c07598 ecx=00682601 edx=00c07598 esi=085817d8 edi=08842d70
eip=00673680 esp=0164d02c ebp=0164d070 iopl=0         nv up ei pl zr na pe nc
cs=0023  ss=002b  ds=002b  es=002b  fs=0053  gs=002b             efl=00000246
ws7v6!Exceptionloginitialization$qqrv+0x5047c:
00673680 b9f8ffffff      mov     ecx,0FFFFFFF8h
 # ChildEBP RetAddr      Args to Child              
WARNING: Stack unwind information not available. Following frames may be wrong.
00 0164d070 00685feb     0164d0a0 0067636d 0164d098 ws7v6!Exceptionloginitialization$qqrv+0x504b1
01 0164d098 0063e428     0164d0ac 0063e432 0164d0c4 ws7v6!Exceptionloginitialization$qqrv+0x62de7
02 0164d0c4 0063e659     0164d11c 0164d0dc 0063e7c0 ws7v6!Exceptionloginitialization$qqrv+0x1b224
eax=124bc4f0 ebx=00c07598 ecx=124bc508 edx=124ba760 esi=085817d8 edi=08842d70
eip=006736b5 esp=0164d02c ebp=0164d070 iopl=0         nv up ei pl nz na po nc
cs=0023  ss=002b  ds=002b  es=002b  fs=0053  gs=002b             efl=00000202
ws7v6!Exceptionloginitialization$qqrv+0x504b1:
006736b5 c60300          mov     byte ptr [ebx],0           ds:002b:00c07598=01
 # ChildEBP RetAddr      Args to Child              
WARNING: Stack unwind information not available. Following frames may be wrong.
00 0164d008 00644a35     00000000 1226a930 08842d70 ws7v6!Exceptionloginitialization$qqrv+0x5047c
01 0164d02c 006ec0a3     124bc4cc 00913128 124bc4cc ws7v6!Exceptionloginitialization$qqrv+0x21831
02 0164d044 00644d9d     124bc4cc 1226a930 0164d08c ws7v6!Exceptionloginitialization$qqrv+0xc8e9f
eax=124bc508 ebx=00c07598 ecx=00000001 edx=00c07598 esi=08842d70 edi=124bc4cc
eip=00673680 esp=0164cfa8 ebp=0164d008 iopl=0         nv up ei pl zr na pe nc
cs=0023  ss=002b  ds=002b  es=002b  fs=0053  gs=002b             efl=00000246
ws7v6!Exceptionloginitialization$qqrv+0x5047c:
00673680 b9f8ffffff      mov     ecx,0FFFFFFF8h
 # ChildEBP RetAddr      Args to Child              
WARNING: Stack unwind information not available. Following frames may be wrong.
00 0164d008 00644a35     00000000 1226a930 08842d70 ws7v6!Exceptionloginitialization$qqrv+0x504b1
01 0164d02c 006ec0a3     124bc4cc 00913128 124bc4cc ws7v6!Exceptionloginitialization$qqrv+0x21831
02 0164d044 00644d9d     124bc4cc 1226a930 0164d08c ws7v6!Exceptionloginitialization$qqrv+0xc8e9f
eax=124bc508 ebx=00c07598 ecx=124bc520 edx=124ba760 esi=08842d70 edi=124bc4cc
eip=006736b5 esp=0164cfa8 ebp=0164d008 iopl=0         nv up ei pl nz na pe nc
cs=0023  ss=002b  ds=002b  es=002b  fs=0053  gs=002b             efl=00000206
ws7v6!Exceptionloginitialization$qqrv+0x504b1:
006736b5 c60300          mov     byte ptr [ebx],0           ds:002b:00c07598=01
 # ChildEBP RetAddr      Args to Child              
WARNING: Stack unwind information not available. Following frames may be wrong.
00 0164cfdc 006665e9     0164d054 00000003 08842d70 ws7v6!Exceptionloginitialization$qqrv+0x5047c
01 0164d018 0063ee5f     0164d02c 0063f03e 0164d05c ws7v6!Exceptionloginitialization$qqrv+0x433e5
02 0164d05c 0063e896     08842d70 0851e680 1226a930 ws7v6!Exceptionloginitialization$qqrv+0x1bc5b
eax=124bc520 ebx=00c07598 ecx=00000001 edx=00c07598 esi=124bc510 edi=00000003
eip=00673680 esp=0164cf9c ebp=0164cfdc iopl=0         nv up ei pl zr na pe nc
cs=0023  ss=002b  ds=002b  es=002b  fs=0053  gs=002b             efl=00000246
ws7v6!Exceptionloginitialization$qqrv+0x5047c:
00673680 b9f8ffffff      mov     ecx,0FFFFFFF8h
 # ChildEBP RetAddr      Args to Child              
WARNING: Stack unwind information not available. Following frames may be wrong.
00 0164cfdc 006665e9     0164d054 00000003 08842d70 ws7v6!Exceptionloginitialization$qqrv+0x504b1
01 0164d018 0063ee5f     0164d02c 0063f03e 0164d05c ws7v6!Exceptionloginitialization$qqrv+0x433e5
02 0164d05c 0063e896     08842d70 0851e680 1226a930 ws7v6!Exceptionloginitialization$qqrv+0x1bc5b
eax=124bc520 ebx=00c07598 ecx=124bc538 edx=124ba760 esi=124bc510 edi=00000003
eip=006736b5 esp=0164cf9c ebp=0164cfdc iopl=0         nv up ei pl nz na po nc
cs=0023  ss=002b  ds=002b  es=002b  fs=0053  gs=002b             efl=00000202
ws7v6!Exceptionloginitialization$qqrv+0x504b1:
006736b5 c60300          mov     byte ptr [ebx],0           ds:002b:00c07598=01
 # ChildEBP RetAddr      Args to Child              
WARNING: Stack unwind information not available. Following frames may be wrong.
00 0164cf80 00679fea     0164cf90 00666402 00000005 ws7v6!Exceptionloginitialization$qqrv+0x5047c
01 0164cfb0 0066661f     0164cfd8 00000005 0164cffc ws7v6!Exceptionloginitialization$qqrv+0x56de6
02 0164cfdc 006665e9     0164d054 00000005 08842d70 ws7v6!Exceptionloginitialization$qqrv+0x4341b
eax=124bc538 ebx=00c07598 ecx=00000001 edx=00c07598 esi=00000000 edi=00000005
eip=00673680 esp=0164cf40 ebp=0164cf80 iopl=0         nv up ei pl zr na pe nc
cs=0023  ss=002b  ds=002b  es=002b  fs=0053  gs=002b             efl=00000246
ws7v6!Exceptionloginitialization$qqrv+0x5047c:
00673680 b9f8ffffff      mov     ecx,0FFFFFFF8h
 # ChildEBP RetAddr      Args to Child              
WARNING: Stack unwind information not available. Following frames may be wrong.
00 0164cf80 00679fea     0164cf90 00666402 00000005 ws7v6!Exceptionloginitialization$qqrv+0x504b1
01 0164cfb0 0066661f     0164cfd8 00000005 0164cffc ws7v6!Exceptionloginitialization$qqrv+0x56de6
02 0164cfdc 006665e9     0164d054 00000005 08842d70 ws7v6!Exceptionloginitialization$qqrv+0x4341b
eax=124bc538 ebx=00c07598 ecx=124bc550 edx=124ba760 esi=00000000 edi=00000005
eip=006736b5 esp=0164cf40 ebp=0164cf80 iopl=0         nv up ei pl nz na po nc
cs=0023  ss=002b  ds=002b  es=002b  fs=0053  gs=002b             efl=00000202
ws7v6!Exceptionloginitialization$qqrv+0x504b1:
006736b5 c60300          mov     byte ptr [ebx],0           ds:002b:00c07598=01
 # ChildEBP RetAddr      Args to Child              
WARNING: Stack unwind information not available. Following frames may be wrong.
00 0164d008 00644a35     00000000 1226ac50 08842d70 ws7v6!Exceptionloginitialization$qqrv+0x5047c
01 0164d02c 006ec0a3     1230399c 00913128 1230399c ws7v6!Exceptionloginitialization$qqrv+0x21831
02 0164d044 00644d9d     1230399c 1226ac50 0164d08c ws7v6!Exceptionloginitialization$qqrv+0xc8e9f
eax=124bc550 ebx=00c07598 ecx=00000001 edx=00c07598 esi=08842d70 edi=1230399c
eip=00673680 esp=0164cfa8 ebp=0164d008 iopl=0         nv up ei pl zr na pe nc
cs=0023  ss=002b  ds=002b  es=002b  fs=0053  gs=002b             efl=00000246
ws7v6!Exceptionloginitialization$qqrv+0x5047c:
00673680 b9f8ffffff      mov     ecx,0FFFFFFF8h
 # ChildEBP RetAddr      Args to Child              
WARNING: Stack unwind information not available. Following frames may be wrong.
00 0164d008 00644a35     00000000 1226ac50 08842d70 ws7v6!Exceptionloginitialization$qqrv+0x504b1
01 0164d02c 006ec0a3     1230399c 00913128 1230399c ws7v6!Exceptionloginitialization$qqrv+0x21831
02 0164d044 00644d9d     1230399c 1226ac50 0164d08c ws7v6!Exceptionloginitialization$qqrv+0xc8e9f
eax=124bc550 ebx=00c07598 ecx=124bc568 edx=124ba760 esi=08842d70 edi=1230399c
eip=006736b5 esp=0164cfa8 ebp=0164d008 iopl=0         nv up ei pl nz na pe nc
cs=0023  ss=002b  ds=002b  es=002b  fs=0053  gs=002b             efl=00000206
ws7v6!Exceptionloginitialization$qqrv+0x504b1:
006736b5 c60300          mov     byte ptr [ebx],0           ds:002b:00c07598=01
 # ChildEBP RetAddr      Args to Child              
WARNING: Stack unwind information not available. Following frames may be wrong.
00 0164cfdc 006665e9     0164d054 00000003 08842d70 ws7v6!Exceptionloginitialization$qqrv+0x5047c
01 0164d018 0063ee5f     0164d02c 0063f03e 0164d05c ws7v6!Exceptionloginitialization$qqrv+0x433e5
02 0164d05c 0063e896     08842d70 0851e680 1226ac50 ws7v6!Exceptionloginitialization$qqrv+0x1bc5b
eax=124bc568 ebx=00c07598 ecx=00000001 edx=00c07598 esi=124bc558 edi=00000003
eip=00673680 esp=0164cf9c ebp=0164cfdc iopl=0         nv up ei pl zr na pe nc
cs=0023  ss=002b  ds=002b  es=002b  fs=0053  gs=002b             efl=00000246
ws7v6!Exceptionloginitialization$qqrv+0x5047c:
00673680 b9f8ffffff      mov     ecx,0FFFFFFF8h
 # ChildEBP RetAddr      Args to Child              
WARNING: Stack unwind information not available. Following frames may be wrong.
00 0164cfdc 006665e9     0164d054 00000003 08842d70 ws7v6!Exceptionloginitialization$qqrv+0x504b1
01 0164d018 0063ee5f     0164d02c 0063f03e 0164d05c ws7v6!Exceptionloginitialization$qqrv+0x433e5
02 0164d05c 0063e896     08842d70 0851e680 1226ac50 ws7v6!Exceptionloginitialization$qqrv+0x1bc5b
eax=124bc568 ebx=00c07598 ecx=124bc580 edx=124ba760 esi=124bc558 edi=00000003
eip=006736b5 esp=0164cf9c ebp=0164cfdc iopl=0         nv up ei pl nz ac po nc
cs=0023  ss=002b  ds=002b  es=002b  fs=0053  gs=002b             efl=00000212
ws7v6!Exceptionloginitialization$qqrv+0x504b1:
006736b5 c60300          mov     byte ptr [ebx],0           ds:002b:00c07598=01
 # ChildEBP RetAddr      Args to Child              
WARNING: Stack unwind information not available. Following frames may be wrong.
00 0164cf80 00679fea     0164cf90 00666402 00000005 ws7v6!Exceptionloginitialization$qqrv+0x5047c
01 0164cfb0 0066661f     0164cfd8 00000005 0164cffc ws7v6!Exceptionloginitialization$qqrv+0x56de6
02 0164cfdc 006665e9     0164d054 00000005 08842d70 ws7v6!Exceptionloginitialization$qqrv+0x4341b
eax=124bc580 ebx=00c07598 ecx=00000001 edx=00c07598 esi=00000000 edi=00000005
eip=00673680 esp=0164cf40 ebp=0164cf80 iopl=0         nv up ei pl zr na pe nc
cs=0023  ss=002b  ds=002b  es=002b  fs=0053  gs=002b             efl=00000246
ws7v6!Exceptionloginitialization$qqrv+0x5047c:
00673680 b9f8ffffff      mov     ecx,0FFFFFFF8h
 # ChildEBP RetAddr      Args to Child              
WARNING: Stack unwind information not available. Following frames may be wrong.
00 0164cf80 00679fea     0164cf90 00666402 00000005 ws7v6!Exceptionloginitialization$qqrv+0x504b1
01 0164cfb0 0066661f     0164cfd8 00000005 0164cffc ws7v6!Exceptionloginitialization$qqrv+0x56de6
02 0164cfdc 006665e9     0164d054 00000005 08842d70 ws7v6!Exceptionloginitialization$qqrv+0x4341b
eax=124bc580 ebx=00c07598 ecx=124bc598 edx=124ba760 esi=00000000 edi=00000005
eip=006736b5 esp=0164cf40 ebp=0164cf80 iopl=0         nv up ei pl nz na pe nc
cs=0023  ss=002b  ds=002b  es=002b  fs=0053  gs=002b             efl=00000206
ws7v6!Exceptionloginitialization$qqrv+0x504b1:
006736b5 c60300          mov     byte ptr [ebx],0           ds:002b:00c07598=01
 # ChildEBP RetAddr      Args to Child              
WARNING: Stack unwind information not available. Following frames may be wrong.
00 0164cfdc 006665e9     0164d054 00000003 08842d70 ws7v6!Exceptionloginitialization$qqrv+0x5047c
01 0164d018 0063ee5f     0164d02c 0063f03e 0164d05c ws7v6!Exceptionloginitialization$qqrv+0x433e5
02 0164d05c 0063e896     08842d70 0851e680 1226af70 ws7v6!Exceptionloginitialization$qqrv+0x1bc5b
eax=124bc598 ebx=00c07598 ecx=00000001 edx=00c07598 esi=124bc588 edi=00000003
eip=00673680 esp=0164cf9c ebp=0164cfdc iopl=0         nv up ei pl zr na pe nc
cs=0023  ss=002b  ds=002b  es=002b  fs=0053  gs=002b             efl=00000246
ws7v6!Exceptionloginitialization$qqrv+0x5047c:
00673680 b9f8ffffff      mov     ecx,0FFFFFFF8h
 # ChildEBP RetAddr      Args to Child              
WARNING: Stack unwind information not available. Following frames may be wrong.
00 0164cfdc 006665e9     0164d054 00000003 08842d70 ws7v6!Exceptionloginitialization$qqrv+0x504b1
01 0164d018 0063ee5f     0164d02c 0063f03e 0164d05c ws7v6!Exceptionloginitialization$qqrv+0x433e5
02 0164d05c 0063e896     08842d70 0851e680 1226af70 ws7v6!Exceptionloginitialization$qqrv+0x1bc5b
eax=124bc598 ebx=00c07598 ecx=124bc5b0 edx=124ba760 esi=124bc588 edi=00000003
eip=006736b5 esp=0164cf9c ebp=0164cfdc iopl=0         nv up ei pl nz na pe nc
cs=0023  ss=002b  ds=002b  es=002b  fs=0053  gs=002b             efl=00000206
ws7v6!Exceptionloginitialization$qqrv+0x504b1:
006736b5 c60300          mov     byte ptr [ebx],0           ds:002b:00c07598=01
 # ChildEBP RetAddr      Args to Child              
WARNING: Stack unwind information not available. Following frames may be wrong.
00 0164cf80 00679fea     0164cf90 00666402 00000005 ws7v6!Exceptionloginitialization$qqrv+0x5047c
01 0164cfb0 0066661f     0164cfd8 00000005 0164cffc ws7v6!Exceptionloginitialization$qqrv+0x56de6
02 0164cfdc 006665e9     0164d054 00000005 08842d70 ws7v6!Exceptionloginitialization$qqrv+0x4341b
eax=124bc5b0 ebx=00c07598 ecx=00000001 edx=00c07598 esi=00000000 edi=00000005
eip=00673680 esp=0164cf40 ebp=0164cf80 iopl=0         nv up ei pl zr na pe nc
cs=0023  ss=002b  ds=002b  es=002b  fs=0053  gs=002b             efl=00000246
ws7v6!Exceptionloginitialization$qqrv+0x5047c:
00673680 b9f8ffffff      mov     ecx,0FFFFFFF8h
 # ChildEBP RetAddr      Args to Child              
WARNING: Stack unwind information not available. Following frames may be wrong.
00 0164cf80 00679fea     0164cf90 00666402 00000005 ws7v6!Exceptionloginitialization$qqrv+0x504b1
01 0164cfb0 0066661f     0164cfd8 00000005 0164cffc ws7v6!Exceptionloginitialization$qqrv+0x56de6
02 0164cfdc 006665e9     0164d054 00000005 08842d70 ws7v6!Exceptionloginitialization$qqrv+0x4341b
eax=124bc5b0 ebx=00c07598 ecx=124bc5c8 edx=124ba760 esi=00000000 edi=00000005
eip=006736b5 esp=0164cf40 ebp=0164cf80 iopl=0         nv up ei pl nz na po nc
cs=0023  ss=002b  ds=002b  es=002b  fs=0053  gs=002b             efl=00000202
ws7v6!Exceptionloginitialization$qqrv+0x504b1:
006736b5 c60300          mov     byte ptr [ebx],0           ds:002b:00c07598=01
 # ChildEBP RetAddr      Args to Child              
WARNING: Stack unwind information not available. Following frames may be wrong.
00 0164d070 00685feb     0164d0a0 0067636d 0164d098 ws7v6!Exceptionloginitialization$qqrv+0x5047c
01 0164d098 0063e428     0164d0ac 0063e432 0164d0c4 ws7v6!Exceptionloginitialization$qqrv+0x62de7
02 0164d0c4 0063e659     0164d11c 0164d0dc 0063e7c0 ws7v6!Exceptionloginitialization$qqrv+0x1b224
eax=124bc5c8 ebx=00c07598 ecx=00682601 edx=00c07598 esi=124cf880 edi=08842d70
eip=00673680 esp=0164d02c ebp=0164d070 iopl=0         nv up ei pl zr na pe nc
cs=0023  ss=002b  ds=002b  es=002b  fs=0053  gs=002b             efl=00000246
ws7v6!Exceptionloginitialization$qqrv+0x5047c:
00673680 b9f8ffffff      mov     ecx,0FFFFFFF8h
 # ChildEBP RetAddr      Args to Child              
WARNING: Stack unwind information not available. Following frames may be wrong.
00 0164d070 00685feb     0164d0a0 0067636d 0164d098 ws7v6!Exceptionloginitialization$qqrv+0x504b1
01 0164d098 0063e428     0164d0ac 0063e432 0164d0c4 ws7v6!Exceptionloginitialization$qqrv+0x62de7
02 0164d0c4 0063e659     0164d11c 0164d0dc 0063e7c0 ws7v6!Exceptionloginitialization$qqrv+0x1b224
eax=124bc5c8 ebx=00c07598 ecx=124bc5e0 edx=124ba760 esi=124cf880 edi=08842d70
eip=006736b5 esp=0164d02c ebp=0164d070 iopl=0         nv up ei pl nz na pe nc
cs=0023  ss=002b  ds=002b  es=002b  fs=0053  gs=002b             efl=00000206
ws7v6!Exceptionloginitialization$qqrv+0x504b1:
006736b5 c60300          mov     byte ptr [ebx],0           ds:002b:00c07598=01
 # ChildEBP RetAddr      Args to Child              
WARNING: Stack unwind information not available. Following frames may be wrong.
00 0164cf80 00679fea     0164cf90 00666402 00000005 ws7v6!Exceptionloginitialization$qqrv+0x5047c
01 0164cfb0 0066661f     0164cfd8 00000005 0164cffc ws7v6!Exceptionloginitialization$qqrv+0x56de6
02 0164cfdc 006665e9     0164d054 00000005 08842d70 ws7v6!Exceptionloginitialization$qqrv+0x4341b
eax=124bc5e0 ebx=00c07598 ecx=00000001 edx=00c07598 esi=00000000 edi=00000005
eip=00673680 esp=0164cf40 ebp=0164cf80 iopl=0         nv up ei pl zr na pe nc
cs=0023  ss=002b  ds=002b  es=002b  fs=0053  gs=002b             efl=00000246
ws7v6!Exceptionloginitialization$qqrv+0x5047c:
00673680 b9f8ffffff      mov     ecx,0FFFFFFF8h
 # ChildEBP RetAddr      Args to Child              
WARNING: Stack unwind information not available. Following frames may be wrong.
00 0164cf80 00679fea     0164cf90 00666402 00000005 ws7v6!Exceptionloginitialization$qqrv+0x504b1
01 0164cfb0 0066661f     0164cfd8 00000005 0164cffc ws7v6!Exceptionloginitialization$qqrv+0x56de6
02 0164cfdc 006665e9     0164d054 00000005 08842d70 ws7v6!Exceptionloginitialization$qqrv+0x4341b
eax=124bc5e0 ebx=00c07598 ecx=124bc5f8 edx=124ba760 esi=00000000 edi=00000005
eip=006736b5 esp=0164cf40 ebp=0164cf80 iopl=0         nv up ei pl nz na po nc
cs=0023  ss=002b  ds=002b  es=002b  fs=0053  gs=002b             efl=00000202
ws7v6!Exceptionloginitialization$qqrv+0x504b1:
006736b5 c60300          mov     byte ptr [ebx],0           ds:002b:00c07598=01
 # ChildEBP RetAddr      Args to Child              
WARNING: Stack unwind information not available. Following frames may be wrong.
00 0164cfdc 006665e9     0164d054 00000003 08842d70 ws7v6!Exceptionloginitialization$qqrv+0x5047c
01 0164d018 0063ee5f     0164d02c 0063f03e 0164d05c ws7v6!Exceptionloginitialization$qqrv+0x433e5
02 0164d05c 0063e896     08842d70 0851e680 12261a40 ws7v6!Exceptionloginitialization$qqrv+0x1bc5b
eax=124bc5f8 ebx=00c07598 ecx=00000001 edx=00c07598 esi=124bc5e8 edi=00000003
eip=00673680 esp=0164cf9c ebp=0164cfdc iopl=0         nv up ei pl zr na pe nc
cs=0023  ss=002b  ds=002b  es=002b  fs=0053  gs=002b             efl=00000246
ws7v6!Exceptionloginitialization$qqrv+0x5047c:
00673680 b9f8ffffff      mov     ecx,0FFFFFFF8h
 # ChildEBP RetAddr      Args to Child              
WARNING: Stack unwind information not available. Following frames may be wrong.
00 0164cfdc 006665e9     0164d054 00000003 08842d70 ws7v6!Exceptionloginitialization$qqrv+0x504b1
01 0164d018 0063ee5f     0164d02c 0063f03e 0164d05c ws7v6!Exceptionloginitialization$qqrv+0x433e5
02 0164d05c 0063e896     08842d70 0851e680 12261a40 ws7v6!Exceptionloginitialization$qqrv+0x1bc5b
eax=124bc5f8 ebx=00c07598 ecx=124bc610 edx=124ba760 esi=124bc5e8 edi=00000003
eip=006736b5 esp=0164cf9c ebp=0164cfdc iopl=0         nv up ei pl nz na po nc
cs=0023  ss=002b  ds=002b  es=002b  fs=0053  gs=002b             efl=00000202
ws7v6!Exceptionloginitialization$qqrv+0x504b1:
006736b5 c60300          mov     byte ptr [ebx],0           ds:002b:00c07598=01
 # ChildEBP RetAddr      Args to Child              
WARNING: Stack unwind information not available. Following frames may be wrong.
00 0164cf80 00679fea     0164cf90 00666402 00000005 ws7v6!Exceptionloginitialization$qqrv+0x5047c
01 0164cfb0 0066661f     0164cfd8 00000005 0164cffc ws7v6!Exceptionloginitialization$qqrv+0x56de6
02 0164cfdc 006665e9     0164d054 00000005 08842d70 ws7v6!Exceptionloginitialization$qqrv+0x4341b
eax=124bc610 ebx=00c07598 ecx=00000001 edx=00c07598 esi=00000000 edi=00000005
eip=00673680 esp=0164cf40 ebp=0164cf80 iopl=0         nv up ei pl zr na pe nc
cs=0023  ss=002b  ds=002b  es=002b  fs=0053  gs=002b             efl=00000246
ws7v6!Exceptionloginitialization$qqrv+0x5047c:
00673680 b9f8ffffff      mov     ecx,0FFFFFFF8h
 # ChildEBP RetAddr      Args to Child              
WARNING: Stack unwind information not available. Following frames may be wrong.
00 0164cf80 00679fea     0164cf90 00666402 00000005 ws7v6!Exceptionloginitialization$qqrv+0x504b1
01 0164cfb0 0066661f     0164cfd8 00000005 0164cffc ws7v6!Exceptionloginitialization$qqrv+0x56de6
02 0164cfdc 006665e9     0164d054 00000005 08842d70 ws7v6!Exceptionloginitialization$qqrv+0x4341b
eax=124bc610 ebx=00c07598 ecx=124bc628 edx=124ba760 esi=00000000 edi=00000005
eip=006736b5 esp=0164cf40 ebp=0164cf80 iopl=0         nv up ei pl nz na pe nc
cs=0023  ss=002b  ds=002b  es=002b  fs=0053  gs=002b             efl=00000206
ws7v6!Exceptionloginitialization$qqrv+0x504b1:
006736b5 c60300          mov     byte ptr [ebx],0           ds:002b:00c07598=01
 # ChildEBP RetAddr      Args to Child              
WARNING: Stack unwind information not available. Following frames may be wrong.
00 0164cfec 0063e6a0     0164d050 0164d004 0063e77e ws7v6!Exceptionloginitialization$qqrv+0x5047c
01 0164d050 0063e90a     0164d0a8 0063e93e 0164d07c ws7v6!Exceptionloginitialization$qqrv+0x1b49c
02 0164d07c 0063e878     12261a40 0851e680 0164d0bc ws7v6!Exceptionloginitialization$qqrv+0x1b706
eax=124bc628 ebx=00c07598 ecx=00000001 edx=00c07598 esi=00000004 edi=124c54d0
eip=00673680 esp=0164cf5c ebp=0164cfec iopl=0         nv up ei pl zr na pe nc
cs=0023  ss=002b  ds=002b  es=002b  fs=0053  gs=002b             efl=00000246
ws7v6!Exceptionloginitialization$qqrv+0x5047c:
00673680 b9f8ffffff      mov     ecx,0FFFFFFF8h
 # ChildEBP RetAddr      Args to Child              
WARNING: Stack unwind information not available. Following frames may be wrong.
00 0164cfec 0063e6a0     0164d050 0164d004 0063e77e ws7v6!Exceptionloginitialization$qqrv+0x504b1
01 0164d050 0063e90a     0164d0a8 0063e93e 0164d07c ws7v6!Exceptionloginitialization$qqrv+0x1b49c
02 0164d07c 0063e878     12261a40 0851e680 0164d0bc ws7v6!Exceptionloginitialization$qqrv+0x1b706
eax=124bc628 ebx=00c07598 ecx=124bc640 edx=124ba760 esi=00000004 edi=124c54d0
eip=006736b5 esp=0164cf5c ebp=0164cfec iopl=0         nv up ei pl nz na pe nc
cs=0023  ss=002b  ds=002b  es=002b  fs=0053  gs=002b             efl=00000206
ws7v6!Exceptionloginitialization$qqrv+0x504b1:
006736b5 c60300          mov     byte ptr [ebx],0           ds:002b:00c07598=01
 # ChildEBP RetAddr      Args to Child              
WARNING: Stack unwind information not available. Following frames may be wrong.
00 0164cf3c 00644a35     00000000 124c54d0 08842d70 ws7v6!Exceptionloginitialization$qqrv+0x5047c
01 0164cf60 006ec0a3     1011a334 00913128 1011a334 ws7v6!Exceptionloginitialization$qqrv+0x21831
02 0164cf78 00644d9d     1011a334 124c54d0 0000b036 ws7v6!Exceptionloginitialization$qqrv+0xc8e9f
eax=124bc640 ebx=00c07598 ecx=00000001 edx=00c07598 esi=08842d70 edi=1011a334
eip=00673680 esp=0164cedc ebp=0164cf3c iopl=0         nv up ei pl zr na pe nc
cs=0023  ss=002b  ds=002b  es=002b  fs=0053  gs=002b             efl=00000246
ws7v6!Exceptionloginitialization$qqrv+0x5047c:
00673680 b9f8ffffff      mov     ecx,0FFFFFFF8h
 # ChildEBP RetAddr      Args to Child              
WARNING: Stack unwind information not available. Following frames may be wrong.
00 0164cf3c 00644a35     00000000 124c54d0 08842d70 ws7v6!Exceptionloginitialization$qqrv+0x504b1
01 0164cf60 006ec0a3     1011a334 00913128 1011a334 ws7v6!Exceptionloginitialization$qqrv+0x21831
02 0164cf78 00644d9d     1011a334 124c54d0 0000b036 ws7v6!Exceptionloginitialization$qqrv+0xc8e9f
eax=124bc640 ebx=00c07598 ecx=124bc658 edx=124ba760 esi=08842d70 edi=1011a334
eip=006736b5 esp=0164cedc ebp=0164cf3c iopl=0         nv up ei pl nz na po nc
cs=0023  ss=002b  ds=002b  es=002b  fs=0053  gs=002b             efl=00000202
ws7v6!Exceptionloginitialization$qqrv+0x504b1:
006736b5 c60300          mov     byte ptr [ebx],0           ds:002b:00c07598=01
 # ChildEBP RetAddr      Args to Child              
WARNING: Stack unwind information not available. Following frames may be wrong.
00 0164cf2c 006665e9     0164cfa4 00000003 12261a40 ws7v6!Exceptionloginitialization$qqrv+0x5047c
01 0164cf68 0063ee5f     0164cf7c 0063f03e 0164cfac ws7v6!Exceptionloginitialization$qqrv+0x433e5
02 0164cfac 0063e896     12261a40 0851e680 124c54d0 ws7v6!Exceptionloginitialization$qqrv+0x1bc5b
eax=124bc658 ebx=00c07598 ecx=00000001 edx=00c07598 esi=124bc648 edi=00000003
eip=00673680 esp=0164ceec ebp=0164cf2c iopl=0         nv up ei pl zr na pe nc
cs=0023  ss=002b  ds=002b  es=002b  fs=0053  gs=002b             efl=00000246
ws7v6!Exceptionloginitialization$qqrv+0x5047c:
00673680 b9f8ffffff      mov     ecx,0FFFFFFF8h
 # ChildEBP RetAddr      Args to Child              
WARNING: Stack unwind information not available. Following frames may be wrong.
00 0164cf2c 006665e9     0164cfa4 00000003 12261a40 ws7v6!Exceptionloginitialization$qqrv+0x504b1
01 0164cf68 0063ee5f     0164cf7c 0063f03e 0164cfac ws7v6!Exceptionloginitialization$qqrv+0x433e5
02 0164cfac 0063e896     12261a40 0851e680 124c54d0 ws7v6!Exceptionloginitialization$qqrv+0x1bc5b
eax=124bc658 ebx=00c07598 ecx=124bc670 edx=124ba760 esi=124bc648 edi=00000003
eip=006736b5 esp=0164ceec ebp=0164cf2c iopl=0         nv up ei pl nz na po nc
cs=0023  ss=002b  ds=002b  es=002b  fs=0053  gs=002b             efl=00000202
ws7v6!Exceptionloginitialization$qqrv+0x504b1:
006736b5 c60300          mov     byte ptr [ebx],0           ds:002b:00c07598=01
 # ChildEBP RetAddr      Args to Child              
WARNING: Stack unwind information not available. Following frames may be wrong.
00 0164ced0 00679fea     0164cee0 00666402 00000005 ws7v6!Exceptionloginitialization$qqrv+0x5047c
01 0164cf00 0066661f     0164cf28 00000005 0164cf4c ws7v6!Exceptionloginitialization$qqrv+0x56de6
02 0164cf2c 006665e9     0164cfa4 00000005 12261a40 ws7v6!Exceptionloginitialization$qqrv+0x4341b
eax=124bc670 ebx=00c07598 ecx=00000001 edx=00c07598 esi=00000000 edi=00000005
eip=00673680 esp=0164ce90 ebp=0164ced0 iopl=0         nv up ei pl zr na pe nc
cs=0023  ss=002b  ds=002b  es=002b  fs=0053  gs=002b             efl=00000246
ws7v6!Exceptionloginitialization$qqrv+0x5047c:
00673680 b9f8ffffff      mov     ecx,0FFFFFFF8h
 # ChildEBP RetAddr      Args to Child              
WARNING: Stack unwind information not available. Following frames may be wrong.
00 0164ced0 00679fea     0164cee0 00666402 00000005 ws7v6!Exceptionloginitialization$qqrv+0x504b1
01 0164cf00 0066661f     0164cf28 00000005 0164cf4c ws7v6!Exceptionloginitialization$qqrv+0x56de6
02 0164cf2c 006665e9     0164cfa4 00000005 12261a40 ws7v6!Exceptionloginitialization$qqrv+0x4341b
eax=124bc670 ebx=00c07598 ecx=124bc688 edx=124ba760 esi=00000000 edi=00000005
eip=006736b5 esp=0164ce90 ebp=0164ced0 iopl=0         nv up ei pl nz na pe nc
cs=0023  ss=002b  ds=002b  es=002b  fs=0053  gs=002b             efl=00000206
ws7v6!Exceptionloginitialization$qqrv+0x504b1:
006736b5 c60300          mov     byte ptr [ebx],0           ds:002b:00c07598=01
 # ChildEBP RetAddr      Args to Child              
WARNING: Stack unwind information not available. Following frames may be wrong.
00 0164cf2c 006665e9     0164cfa4 00000003 12261a40 ws7v6!Exceptionloginitialization$qqrv+0x5047c
01 0164cf68 0063ee5f     0164cf7c 0063f03e 0164cfac ws7v6!Exceptionloginitialization$qqrv+0x433e5
02 0164cfac 0063e896     12261a40 0851e680 124c56b0 ws7v6!Exceptionloginitialization$qqrv+0x1bc5b
eax=124bc688 ebx=00c07598 ecx=00000001 edx=00c07598 esi=124bc678 edi=00000003
eip=00673680 esp=0164ceec ebp=0164cf2c iopl=0         nv up ei pl zr na pe nc
cs=0023  ss=002b  ds=002b  es=002b  fs=0053  gs=002b             efl=00000246
ws7v6!Exceptionloginitialization$qqrv+0x5047c:
00673680 b9f8ffffff      mov     ecx,0FFFFFFF8h
 # ChildEBP RetAddr      Args to Child              
WARNING: Stack unwind information not available. Following frames may be wrong.
00 0164cf2c 006665e9     0164cfa4 00000003 12261a40 ws7v6!Exceptionloginitialization$qqrv+0x504b1
01 0164cf68 0063ee5f     0164cf7c 0063f03e 0164cfac ws7v6!Exceptionloginitialization$qqrv+0x433e5
02 0164cfac 0063e896     12261a40 0851e680 124c56b0 ws7v6!Exceptionloginitialization$qqrv+0x1bc5b
eax=124bc688 ebx=00c07598 ecx=124bc6a0 edx=124ba760 esi=124bc678 edi=00000003
eip=006736b5 esp=0164ceec ebp=0164cf2c iopl=0         nv up ei pl nz na po nc
cs=0023  ss=002b  ds=002b  es=002b  fs=0053  gs=002b             efl=00000202
ws7v6!Exceptionloginitialization$qqrv+0x504b1:
006736b5 c60300          mov     byte ptr [ebx],0           ds:002b:00c07598=01
 # ChildEBP RetAddr      Args to Child              
WARNING: Stack unwind information not available. Following frames may be wrong.
00 0164ced0 00679fea     0164cee0 00666402 00000005 ws7v6!Exceptionloginitialization$qqrv+0x5047c
01 0164cf00 0066661f     0164cf28 00000005 0164cf4c ws7v6!Exceptionloginitialization$qqrv+0x56de6
02 0164cf2c 006665e9     0164cfa4 00000005 12261a40 ws7v6!Exceptionloginitialization$qqrv+0x4341b
eax=124bc6a0 ebx=00c07598 ecx=00000001 edx=00c07598 esi=00000000 edi=00000005
eip=00673680 esp=0164ce90 ebp=0164ced0 iopl=0         nv up ei pl zr na pe nc
cs=0023  ss=002b  ds=002b  es=002b  fs=0053  gs=002b             efl=00000246
ws7v6!Exceptionloginitialization$qqrv+0x5047c:
00673680 b9f8ffffff      mov     ecx,0FFFFFFF8h
 # ChildEBP RetAddr      Args to Child              
WARNING: Stack unwind information not available. Following frames may be wrong.
00 0164ced0 00679fea     0164cee0 00666402 00000005 ws7v6!Exceptionloginitialization$qqrv+0x504b1
01 0164cf00 0066661f     0164cf28 00000005 0164cf4c ws7v6!Exceptionloginitialization$qqrv+0x56de6
02 0164cf2c 006665e9     0164cfa4 00000005 12261a40 ws7v6!Exceptionloginitialization$qqrv+0x4341b
eax=124bc6a0 ebx=00c07598 ecx=124bc6b8 edx=124ba760 esi=00000000 edi=00000005
eip=006736b5 esp=0164ce90 ebp=0164ced0 iopl=0         nv up ei pl nz na pe nc
cs=0023  ss=002b  ds=002b  es=002b  fs=0053  gs=002b             efl=00000206
ws7v6!Exceptionloginitialization$qqrv+0x504b1:
006736b5 c60300          mov     byte ptr [ebx],0           ds:002b:00c07598=01
 # ChildEBP RetAddr      Args to Child              
WARNING: Stack unwind information not available. Following frames may be wrong.
00 0164cf2c 006665e9     0164cfa4 00000003 12261a40 ws7v6!Exceptionloginitialization$qqrv+0x5047c
01 0164cf68 0063ee5f     0164cf7c 0063f03e 0164cfac ws7v6!Exceptionloginitialization$qqrv+0x433e5
02 0164cfac 0063e896     12261a40 0851e680 124c5890 ws7v6!Exceptionloginitialization$qqrv+0x1bc5b
eax=124bc6b8 ebx=00c07598 ecx=00000001 edx=00c07598 esi=124bc6a8 edi=00000003
eip=00673680 esp=0164ceec ebp=0164cf2c iopl=0         nv up ei pl zr na pe nc
cs=0023  ss=002b  ds=002b  es=002b  fs=0053  gs=002b             efl=00000246
ws7v6!Exceptionloginitialization$qqrv+0x5047c:
00673680 b9f8ffffff      mov     ecx,0FFFFFFF8h
 # ChildEBP RetAddr      Args to Child              
WARNING: Stack unwind information not available. Following frames may be wrong.
00 0164cf2c 006665e9     0164cfa4 00000003 12261a40 ws7v6!Exceptionloginitialization$qqrv+0x504b1
01 0164cf68 0063ee5f     0164cf7c 0063f03e 0164cfac ws7v6!Exceptionloginitialization$qqrv+0x433e5
02 0164cfac 0063e896     12261a40 0851e680 124c5890 ws7v6!Exceptionloginitialization$qqrv+0x1bc5b
eax=124bc6b8 ebx=00c07598 ecx=124bc6d0 edx=124ba760 esi=124bc6a8 edi=00000003
eip=006736b5 esp=0164ceec ebp=0164cf2c iopl=0         nv up ei pl nz na pe nc
cs=0023  ss=002b  ds=002b  es=002b  fs=0053  gs=002b             efl=00000206
ws7v6!Exceptionloginitialization$qqrv+0x504b1:
006736b5 c60300          mov     byte ptr [ebx],0           ds:002b:00c07598=01
 # ChildEBP RetAddr      Args to Child              
WARNING: Stack unwind information not available. Following frames may be wrong.
00 0164ced0 00679fea     0164cee0 00666402 00000005 ws7v6!Exceptionloginitialization$qqrv+0x5047c
01 0164cf00 0066661f     0164cf28 00000005 0164cf4c ws7v6!Exceptionloginitialization$qqrv+0x56de6
02 0164cf2c 006665e9     0164cfa4 00000005 12261a40 ws7v6!Exceptionloginitialization$qqrv+0x4341b
eax=124bc6d0 ebx=00c07598 ecx=00000001 edx=00c07598 esi=00000000 edi=00000005
eip=00673680 esp=0164ce90 ebp=0164ced0 iopl=0         nv up ei pl zr na pe nc
cs=0023  ss=002b  ds=002b  es=002b  fs=0053  gs=002b             efl=00000246
ws7v6!Exceptionloginitialization$qqrv+0x5047c:
00673680 b9f8ffffff      mov     ecx,0FFFFFFF8h
 # ChildEBP RetAddr      Args to Child              
WARNING: Stack unwind information not available. Following frames may be wrong.
00 0164ced0 00679fea     0164cee0 00666402 00000005 ws7v6!Exceptionloginitialization$qqrv+0x504b1
01 0164cf00 0066661f     0164cf28 00000005 0164cf4c ws7v6!Exceptionloginitialization$qqrv+0x56de6
02 0164cf2c 006665e9     0164cfa4 00000005 12261a40 ws7v6!Exceptionloginitialization$qqrv+0x4341b
eax=124bc6d0 ebx=00c07598 ecx=124bc6e8 edx=124ba760 esi=00000000 edi=00000005
eip=006736b5 esp=0164ce90 ebp=0164ced0 iopl=0         nv up ei pl nz na po nc
cs=0023  ss=002b  ds=002b  es=002b  fs=0053  gs=002b             efl=00000202
ws7v6!Exceptionloginitialization$qqrv+0x504b1:
006736b5 c60300          mov     byte ptr [ebx],0           ds:002b:00c07598=01
(1860.5354): Break instruction exception - code 80000003 (first chance)
eax=0021a000 ebx=00000000 ecx=770cdca0 edx=770cdca0 esi=770cdca0 edi=770cdca0
eip=77094d30 esp=131bff44 ebp=131bff70 iopl=0         nv up ei pl zr na pe nc
cs=0023  ss=002b  ds=002b  es=002b  fs=0053  gs=002b             efl=00000246
ntdll!DbgBreakPoint:
77094d30 cc              int     3
